
kernel.tmp:	file format ELF64-x86-64

Disassembly of section .top_of_kernel:
kentry:
   10000:	e8 1b 00 00 00 	callq	27 <kmain>
   10005:	eb fe 	jmp	-2 <kentry+0x5>
Disassembly of section .kernel:
kmain:
   10020:	55 	pushq	%rbp
   10021:	48 89 e5 	movq	%rsp, %rbp
   10024:	48 83 ec 10 	subq	$16, %rsp
   10028:	48 89 7d f8 	movq	%rdi, -8(%rbp)
   1002c:	48 8b 45 f8 	movq	-8(%rbp), %rax
   10030:	ba 21 00 00 00 	movl	$33, %edx
   10035:	48 89 c6 	movq	%rax, %rsi
   10038:	bf c0 33 01 00 	movl	$78784, %edi
   1003d:	e8 fb 07 00 00 	callq	2043 <memcpy>
   10042:	0f b7 05 88 33 00 00 	movzwl	13192(%rip), %eax
   10049:	0f b7 c0 	movzwl	%ax, %eax
   1004c:	48 89 c7 	movq	%rax, %rdi
   1004f:	b8 00 00 00 00 	movl	$0, %eax
   10054:	e8 b3 09 00 00 	callq	2483 <initMemoryMap>
   10059:	0f b7 05 73 33 00 00 	movzwl	13171(%rip), %eax
   10060:	0f b7 c0 	movzwl	%ax, %eax
   10063:	48 89 c7 	movq	%rax, %rdi
   10066:	e8 d1 0c 00 00 	callq	3281 <initPhysicalPageFrameAllocation>
   1006b:	b8 00 00 00 00 	movl	$0, %eax
   10070:	e8 05 0f 00 00 	callq	3845 <initGDT>
   10075:	b8 00 00 00 00 	movl	$0, %eax
   1007a:	e8 0c 11 00 00 	callq	4364 <initPaging>
   1007f:	be 06 00 00 00 	movl	$6, %esi
   10084:	bf 00 00 02 00 	movl	$131072, %edi
   10089:	e8 5d 19 00 00 	callq	6493 <initHeap>
   1008e:	b8 00 00 00 00 	movl	$0, %eax
   10093:	e8 20 22 00 00 	callq	8736 <initIDT>
   10098:	41 b8 ff ff ff ff 	movl	$4294967295, %r8d
   1009e:	b9 64 00 00 00 	movl	$100, %ecx
   100a3:	ba 32 00 00 00 	movl	$50, %edx
   100a8:	be 00 00 00 00 	movl	$0, %esi
   100ad:	bf 00 00 00 00 	movl	$0, %edi
   100b2:	e8 50 2b 00 00 	callq	11088 <drawRect>
   100b7:	eb fe 	jmp	-2 <kmain+0x97>

ceil:
   100b9:	55 	pushq	%rbp
   100ba:	48 89 e5 	movq	%rsp, %rbp
   100bd:	f2 0f 11 45 f8 	movsd	%xmm0, -8(%rbp)
   100c2:	f2 0f 10 45 f8 	movsd	-8(%rbp), %xmm0
   100c7:	f2 0f 2c c0 	cvttsd2si	%xmm0, %eax
   100cb:	66 0f ef c0 	pxor	%xmm0, %xmm0
   100cf:	f2 0f 2a c0 	cvtsi2sdl	%eax, %xmm0
   100d3:	66 0f 2e 45 f8 	ucomisd	-8(%rbp), %xmm0
   100d8:	7a 07 	jp	7 <ceil+0x28>
   100da:	66 0f 2e 45 f8 	ucomisd	-8(%rbp), %xmm0
   100df:	74 17 	je	23 <ceil+0x3f>
   100e1:	f2 0f 10 4d f8 	movsd	-8(%rbp), %xmm1
   100e6:	f2 0f 10 05 ba 32 00 00 	movsd	12986(%rip), %xmm0
   100ee:	f2 0f 58 c1 	addsd	%xmm1, %xmm0
   100f2:	f2 0f 2c c0 	cvttsd2si	%xmm0, %eax
   100f6:	eb 09 	jmp	9 <ceil+0x48>
   100f8:	f2 0f 10 45 f8 	movsd	-8(%rbp), %xmm0
   100fd:	f2 0f 2c c0 	cvttsd2si	%xmm0, %eax
   10101:	5d 	popq	%rbp
   10102:	c3 	retq

floor:
   10103:	55 	pushq	%rbp
   10104:	48 89 e5 	movq	%rsp, %rbp
   10107:	f2 0f 11 45 f8 	movsd	%xmm0, -8(%rbp)
   1010c:	f2 0f 10 45 f8 	movsd	-8(%rbp), %xmm0
   10111:	f2 0f 2c c0 	cvttsd2si	%xmm0, %eax
   10115:	5d 	popq	%rbp
   10116:	c3 	retq

min:
   10117:	55 	pushq	%rbp
   10118:	48 89 e5 	movq	%rsp, %rbp
   1011b:	89 7d fc 	movl	%edi, -4(%rbp)
   1011e:	89 75 f8 	movl	%esi, -8(%rbp)
   10121:	8b 55 f8 	movl	-8(%rbp), %edx
   10124:	8b 45 fc 	movl	-4(%rbp), %eax
   10127:	39 c2 	cmpl	%eax, %edx
   10129:	0f 4e c2 	cmovlel	%edx, %eax
   1012c:	5d 	popq	%rbp
   1012d:	c3 	retq

max:
   1012e:	55 	pushq	%rbp
   1012f:	48 89 e5 	movq	%rsp, %rbp
   10132:	89 7d fc 	movl	%edi, -4(%rbp)
   10135:	89 75 f8 	movl	%esi, -8(%rbp)
   10138:	8b 55 fc 	movl	-4(%rbp), %edx
   1013b:	8b 45 f8 	movl	-8(%rbp), %eax
   1013e:	39 c2 	cmpl	%eax, %edx
   10140:	0f 4e c2 	cmovlel	%edx, %eax
   10143:	5d 	popq	%rbp
   10144:	c3 	retq

sqrt:
   10145:	55 	pushq	%rbp
   10146:	48 89 e5 	movq	%rsp, %rbp
   10149:	f2 0f 11 45 e8 	movsd	%xmm0, -24(%rbp)
   1014e:	f2 0f 10 05 52 32 00 00 	movsd	12882(%rip), %xmm0
   10156:	f2 0f 11 45 f8 	movsd	%xmm0, -8(%rbp)
   1015b:	c7 45 f4 01 00 00 00 	movl	$1, -12(%rbp)
   10162:	eb 31 	jmp	49 <sqrt+0x50>
   10164:	f2 0f 10 45 f8 	movsd	-8(%rbp), %xmm0
   10169:	f2 0f 59 c0 	mulsd	%xmm0, %xmm0
   1016d:	66 0f 28 c8 	movapd	%xmm0, %xmm1
   10171:	f2 0f 5c 4d e8 	subsd	-24(%rbp), %xmm1
   10176:	f2 0f 10 45 f8 	movsd	-8(%rbp), %xmm0
   1017b:	f2 0f 58 c0 	addsd	%xmm0, %xmm0
   1017f:	f2 0f 5e c8 	divsd	%xmm0, %xmm1
   10183:	f2 0f 10 45 f8 	movsd	-8(%rbp), %xmm0
   10188:	f2 0f 5c c1 	subsd	%xmm1, %xmm0
   1018c:	f2 0f 11 45 f8 	movsd	%xmm0, -8(%rbp)
   10191:	83 45 f4 01 	addl	$1, -12(%rbp)
   10195:	83 7d f4 0a 	cmpl	$10, -12(%rbp)
   10199:	7e c9 	jle	-55 <sqrt+0x1f>
   1019b:	f2 0f 10 45 f8 	movsd	-8(%rbp), %xmm0
   101a0:	66 48 0f 7e c0 	movq	%xmm0, %rax
   101a5:	66 48 0f 6e c0 	movq	%rax, %xmm0
   101aa:	5d 	popq	%rbp
   101ab:	c3 	retq

pow:
   101ac:	55 	pushq	%rbp
   101ad:	48 89 e5 	movq	%rsp, %rbp
   101b0:	48 83 ec 20 	subq	$32, %rsp
   101b4:	89 7d ec 	movl	%edi, -20(%rbp)
   101b7:	89 75 e8 	movl	%esi, -24(%rbp)
   101ba:	83 7d ec 00 	cmpl	$0, -20(%rbp)
   101be:	75 07 	jne	7 <pow+0x1b>
   101c0:	b8 00 00 00 00 	movl	$0, %eax
   101c5:	eb 48 	jmp	72 <pow+0x63>
   101c7:	83 7d e8 00 	cmpl	$0, -24(%rbp)
   101cb:	75 07 	jne	7 <pow+0x28>
   101cd:	b8 01 00 00 00 	movl	$1, %eax
   101d2:	eb 3b 	jmp	59 <pow+0x63>
   101d4:	8b 45 e8 	movl	-24(%rbp), %eax
   101d7:	d1 e8 	shrl	%eax
   101d9:	89 c2 	movl	%eax, %edx
   101db:	8b 45 ec 	movl	-20(%rbp), %eax
   101de:	89 d6 	movl	%edx, %esi
   101e0:	89 c7 	movl	%eax, %edi
   101e2:	e8 c5 ff ff ff 	callq	-59 <pow>
   101e7:	89 45 fc 	movl	%eax, -4(%rbp)
   101ea:	8b 45 e8 	movl	-24(%rbp), %eax
   101ed:	83 e0 01 	andl	$1, %eax
   101f0:	85 c0 	testl	%eax, %eax
   101f2:	75 0a 	jne	10 <pow+0x52>
   101f4:	8b 45 fc 	movl	-4(%rbp), %eax
   101f7:	0f af c0 	imull	%eax, %eax
   101fa:	48 98 	cltq
   101fc:	eb 11 	jmp	17 <pow+0x63>
   101fe:	8b 45 fc 	movl	-4(%rbp), %eax
   10201:	0f af 45 e8 	imull	-24(%rbp), %eax
   10205:	89 c2 	movl	%eax, %edx
   10207:	8b 45 fc 	movl	-4(%rbp), %eax
   1020a:	0f af c2 	imull	%edx, %eax
   1020d:	89 c0 	movl	%eax, %eax
   1020f:	c9 	leave
   10210:	c3 	retq

abs:
   10211:	55 	pushq	%rbp
   10212:	48 89 e5 	movq	%rsp, %rbp
   10215:	48 89 7d f8 	movq	%rdi, -8(%rbp)
   10219:	48 8b 45 f8 	movq	-8(%rbp), %rax
   1021d:	48 89 c2 	movq	%rax, %rdx
   10220:	48 f7 da 	negq	%rdx
   10223:	48 0f 49 c2 	cmovnsq	%rdx, %rax
   10227:	5d 	popq	%rbp
   10228:	c3 	retq

hypot:
   10229:	55 	pushq	%rbp
   1022a:	48 89 e5 	movq	%rsp, %rbp
   1022d:	48 83 ec 10 	subq	$16, %rsp
   10231:	f2 0f 11 45 f8 	movsd	%xmm0, -8(%rbp)
   10236:	f2 0f 11 4d f0 	movsd	%xmm1, -16(%rbp)
   1023b:	f2 0f 10 45 f8 	movsd	-8(%rbp), %xmm0
   10240:	66 0f 28 c8 	movapd	%xmm0, %xmm1
   10244:	f2 0f 59 c8 	mulsd	%xmm0, %xmm1
   10248:	f2 0f 10 45 f0 	movsd	-16(%rbp), %xmm0
   1024d:	f2 0f 59 c0 	mulsd	%xmm0, %xmm0
   10251:	f2 0f 58 c8 	addsd	%xmm0, %xmm1
   10255:	66 48 0f 7e c8 	movq	%xmm1, %rax
   1025a:	66 48 0f 6e c0 	movq	%rax, %xmm0
   1025f:	e8 e1 fe ff ff 	callq	-287 <sqrt>
   10264:	66 48 0f 7e c0 	movq	%xmm0, %rax
   10269:	66 48 0f 6e c0 	movq	%rax, %xmm0
   1026e:	c9 	leave
   1026f:	c3 	retq

toLowercose:
   10270:	55 	pushq	%rbp
   10271:	48 89 e5 	movq	%rsp, %rbp
   10274:	89 f8 	movl	%edi, %eax
   10276:	88 45 fc 	movb	%al, -4(%rbp)
   10279:	80 7d fc 5a 	cmpb	$90, -4(%rbp)
   1027d:	7f 09 	jg	9 <toLowercose+0x18>
   1027f:	0f b6 45 fc 	movzbl	-4(%rbp), %eax
   10283:	83 c0 20 	addl	$32, %eax
   10286:	eb 04 	jmp	4 <toLowercose+0x1c>
   10288:	0f b6 45 fc 	movzbl	-4(%rbp), %eax
   1028c:	5d 	popq	%rbp
   1028d:	c3 	retq

toUppercase:
   1028e:	55 	pushq	%rbp
   1028f:	48 89 e5 	movq	%rsp, %rbp
   10292:	89 f8 	movl	%edi, %eax
   10294:	88 45 fc 	movb	%al, -4(%rbp)
   10297:	80 7d fc 5a 	cmpb	$90, -4(%rbp)
   1029b:	7e 09 	jle	9 <toUppercase+0x18>
   1029d:	0f b6 45 fc 	movzbl	-4(%rbp), %eax
   102a1:	83 c0 20 	addl	$32, %eax
   102a4:	eb 04 	jmp	4 <toUppercase+0x1c>
   102a6:	0f b6 45 fc 	movzbl	-4(%rbp), %eax
   102aa:	5d 	popq	%rbp
   102ab:	c3 	retq

strlen:
   102ac:	55 	pushq	%rbp
   102ad:	48 89 e5 	movq	%rsp, %rbp
   102b0:	48 89 7d e8 	movq	%rdi, -24(%rbp)
   102b4:	c7 45 fc 00 00 00 00 	movl	$0, -4(%rbp)
   102bb:	eb 09 	jmp	9 <strlen+0x1a>
   102bd:	83 45 fc 01 	addl	$1, -4(%rbp)
   102c1:	48 83 45 e8 01 	addq	$1, -24(%rbp)
   102c6:	48 8b 45 e8 	movq	-24(%rbp), %rax
   102ca:	0f b6 00 	movzbl	(%rax), %eax
   102cd:	84 c0 	testb	%al, %al
   102cf:	75 ec 	jne	-20 <strlen+0x11>
   102d1:	8b 45 fc 	movl	-4(%rbp), %eax
   102d4:	5d 	popq	%rbp
   102d5:	c3 	retq

strcmp:
   102d6:	55 	pushq	%rbp
   102d7:	48 89 e5 	movq	%rsp, %rbp
   102da:	48 89 7d f8 	movq	%rdi, -8(%rbp)
   102de:	48 89 75 f0 	movq	%rsi, -16(%rbp)
   102e2:	eb 1c 	jmp	28 <strcmp+0x2a>
   102e4:	48 8b 45 f8 	movq	-8(%rbp), %rax
   102e8:	0f b6 00 	movzbl	(%rax), %eax
   102eb:	84 c0 	testb	%al, %al
   102ed:	75 07 	jne	7 <strcmp+0x20>
   102ef:	b8 00 00 00 00 	movl	$0, %eax
   102f4:	eb 34 	jmp	52 <strcmp+0x54>
   102f6:	48 83 45 f8 01 	addq	$1, -8(%rbp)
   102fb:	48 83 45 f0 01 	addq	$1, -16(%rbp)
   10300:	48 8b 45 f8 	movq	-8(%rbp), %rax
   10304:	0f b6 10 	movzbl	(%rax), %edx
   10307:	48 8b 45 f0 	movq	-16(%rbp), %rax
   1030b:	0f b6 00 	movzbl	(%rax), %eax
   1030e:	38 c2 	cmpb	%al, %dl
   10310:	74 d2 	je	-46 <strcmp+0xe>
   10312:	48 8b 45 f8 	movq	-8(%rbp), %rax
   10316:	0f b6 00 	movzbl	(%rax), %eax
   10319:	0f b6 d0 	movzbl	%al, %edx
   1031c:	48 8b 45 f0 	movq	-16(%rbp), %rax
   10320:	0f b6 00 	movzbl	(%rax), %eax
   10323:	0f b6 c8 	movzbl	%al, %ecx
   10326:	89 d0 	movl	%edx, %eax
   10328:	29 c8 	subl	%ecx, %eax
   1032a:	5d 	popq	%rbp
   1032b:	c3 	retq

strncmp:
   1032c:	55 	pushq	%rbp
   1032d:	48 89 e5 	movq	%rsp, %rbp
   10330:	48 89 7d e8 	movq	%rdi, -24(%rbp)
   10334:	48 89 75 e0 	movq	%rsi, -32(%rbp)
   10338:	89 55 dc 	movl	%edx, -36(%rbp)
   1033b:	c7 45 fc 00 00 00 00 	movl	$0, -4(%rbp)
   10342:	eb 1c 	jmp	28 <strncmp+0x34>
   10344:	48 8b 45 e8 	movq	-24(%rbp), %rax
   10348:	0f b6 00 	movzbl	(%rax), %eax
   1034b:	84 c0 	testb	%al, %al
   1034d:	75 07 	jne	7 <strncmp+0x2a>
   1034f:	b8 00 00 00 00 	movl	$0, %eax
   10354:	eb 3c 	jmp	60 <strncmp+0x66>
   10356:	48 83 45 e8 01 	addq	$1, -24(%rbp)
   1035b:	48 83 45 e0 01 	addq	$1, -32(%rbp)
   10360:	48 8b 45 e8 	movq	-24(%rbp), %rax
   10364:	0f b6 10 	movzbl	(%rax), %edx
   10367:	48 8b 45 e0 	movq	-32(%rbp), %rax
   1036b:	0f b6 00 	movzbl	(%rax), %eax
   1036e:	38 c2 	cmpb	%al, %dl
   10370:	75 08 	jne	8 <strncmp+0x4e>
   10372:	8b 45 fc 	movl	-4(%rbp), %eax
   10375:	39 45 dc 	cmpl	%eax, -36(%rbp)
   10378:	77 ca 	ja	-54 <strncmp+0x18>
   1037a:	48 8b 45 e8 	movq	-24(%rbp), %rax
   1037e:	0f b6 00 	movzbl	(%rax), %eax
   10381:	0f b6 d0 	movzbl	%al, %edx
   10384:	48 8b 45 e0 	movq	-32(%rbp), %rax
   10388:	0f b6 00 	movzbl	(%rax), %eax
   1038b:	0f b6 c8 	movzbl	%al, %ecx
   1038e:	89 d0 	movl	%edx, %eax
   10390:	29 c8 	subl	%ecx, %eax
   10392:	5d 	popq	%rbp
   10393:	c3 	retq

strcasecmp:
   10394:	55 	pushq	%rbp
   10395:	48 89 e5 	movq	%rsp, %rbp
   10398:	53 	pushq	%rbx
   10399:	48 83 ec 10 	subq	$16, %rsp
   1039d:	48 89 7d f0 	movq	%rdi, -16(%rbp)
   103a1:	48 89 75 e8 	movq	%rsi, -24(%rbp)
   103a5:	eb 1c 	jmp	28 <strcasecmp+0x2f>
   103a7:	48 8b 45 f0 	movq	-16(%rbp), %rax
   103ab:	0f b6 00 	movzbl	(%rax), %eax
   103ae:	84 c0 	testb	%al, %al
   103b0:	75 07 	jne	7 <strcasecmp+0x25>
   103b2:	b8 00 00 00 00 	movl	$0, %eax
   103b7:	eb 4a 	jmp	74 <strcasecmp+0x6f>
   103b9:	48 83 45 f0 01 	addq	$1, -16(%rbp)
   103be:	48 83 45 e8 01 	addq	$1, -24(%rbp)
   103c3:	48 8b 45 f0 	movq	-16(%rbp), %rax
   103c7:	0f b6 00 	movzbl	(%rax), %eax
   103ca:	0f be c0 	movsbl	%al, %eax
   103cd:	89 c7 	movl	%eax, %edi
   103cf:	e8 9c fe ff ff 	callq	-356 <toLowercose>
   103d4:	89 c3 	movl	%eax, %ebx
   103d6:	48 8b 45 e8 	movq	-24(%rbp), %rax
   103da:	0f b6 00 	movzbl	(%rax), %eax
   103dd:	0f be c0 	movsbl	%al, %eax
   103e0:	89 c7 	movl	%eax, %edi
   103e2:	e8 89 fe ff ff 	callq	-375 <toLowercose>
   103e7:	38 c3 	cmpb	%al, %bl
   103e9:	74 bc 	je	-68 <strcasecmp+0x13>
   103eb:	48 8b 45 f0 	movq	-16(%rbp), %rax
   103ef:	0f b6 00 	movzbl	(%rax), %eax
   103f2:	0f b6 d0 	movzbl	%al, %edx
   103f5:	48 8b 45 e8 	movq	-24(%rbp), %rax
   103f9:	0f b6 00 	movzbl	(%rax), %eax
   103fc:	0f b6 c8 	movzbl	%al, %ecx
   103ff:	89 d0 	movl	%edx, %eax
   10401:	29 c8 	subl	%ecx, %eax
   10403:	48 8b 5d f8 	movq	-8(%rbp), %rbx
   10407:	c9 	leave
   10408:	c3 	retq

strncasecmp:
   10409:	55 	pushq	%rbp
   1040a:	48 89 e5 	movq	%rsp, %rbp
   1040d:	53 	pushq	%rbx
   1040e:	48 83 ec 28 	subq	$40, %rsp
   10412:	48 89 7d e0 	movq	%rdi, -32(%rbp)
   10416:	48 89 75 d8 	movq	%rsi, -40(%rbp)
   1041a:	89 55 d4 	movl	%edx, -44(%rbp)
   1041d:	c7 45 f4 00 00 00 00 	movl	$0, -12(%rbp)
   10424:	eb 1c 	jmp	28 <strncasecmp+0x39>
   10426:	48 8b 45 e0 	movq	-32(%rbp), %rax
   1042a:	0f b6 00 	movzbl	(%rax), %eax
   1042d:	84 c0 	testb	%al, %al
   1042f:	75 07 	jne	7 <strncasecmp+0x2f>
   10431:	b8 00 00 00 00 	movl	$0, %eax
   10436:	eb 52 	jmp	82 <strncasecmp+0x81>
   10438:	48 83 45 e0 01 	addq	$1, -32(%rbp)
   1043d:	48 83 45 d8 01 	addq	$1, -40(%rbp)
   10442:	48 8b 45 e0 	movq	-32(%rbp), %rax
   10446:	0f b6 00 	movzbl	(%rax), %eax
   10449:	0f be c0 	movsbl	%al, %eax
   1044c:	89 c7 	movl	%eax, %edi
   1044e:	e8 1d fe ff ff 	callq	-483 <toLowercose>
   10453:	89 c3 	movl	%eax, %ebx
   10455:	48 8b 45 d8 	movq	-40(%rbp), %rax
   10459:	0f b6 00 	movzbl	(%rax), %eax
   1045c:	0f be c0 	movsbl	%al, %eax
   1045f:	89 c7 	movl	%eax, %edi
   10461:	e8 0a fe ff ff 	callq	-502 <toLowercose>
   10466:	38 c3 	cmpb	%al, %bl
   10468:	75 08 	jne	8 <strncasecmp+0x69>
   1046a:	8b 45 f4 	movl	-12(%rbp), %eax
   1046d:	39 45 d4 	cmpl	%eax, -44(%rbp)
   10470:	77 b4 	ja	-76 <strncasecmp+0x1d>
   10472:	48 8b 45 e0 	movq	-32(%rbp), %rax
   10476:	0f b6 00 	movzbl	(%rax), %eax
   10479:	0f b6 d0 	movzbl	%al, %edx
   1047c:	48 8b 45 d8 	movq	-40(%rbp), %rax
   10480:	0f b6 00 	movzbl	(%rax), %eax
   10483:	0f b6 c8 	movzbl	%al, %ecx
   10486:	89 d0 	movl	%edx, %eax
   10488:	29 c8 	subl	%ecx, %eax
   1048a:	48 8b 5d f8 	movq	-8(%rbp), %rbx
   1048e:	c9 	leave
   1048f:	c3 	retq

strcat:
   10490:	55 	pushq	%rbp
   10491:	48 89 e5 	movq	%rsp, %rbp
   10494:	48 83 ec 20 	subq	$32, %rsp
   10498:	48 89 7d e8 	movq	%rdi, -24(%rbp)
   1049c:	48 89 75 e0 	movq	%rsi, -32(%rbp)
   104a0:	48 8b 45 e8 	movq	-24(%rbp), %rax
   104a4:	48 89 c7 	movq	%rax, %rdi
   104a7:	e8 00 fe ff ff 	callq	-512 <strlen>
   104ac:	89 c2 	movl	%eax, %edx
   104ae:	48 8b 45 e8 	movq	-24(%rbp), %rax
   104b2:	48 01 d0 	addq	%rdx, %rax
   104b5:	48 89 45 f8 	movq	%rax, -8(%rbp)
   104b9:	eb 1d 	jmp	29 <strcat+0x48>
   104bb:	48 8b 55 e0 	movq	-32(%rbp), %rdx
   104bf:	48 8d 42 01 	leaq	1(%rdx), %rax
   104c3:	48 89 45 e0 	movq	%rax, -32(%rbp)
   104c7:	48 8b 45 f8 	movq	-8(%rbp), %rax
   104cb:	48 8d 48 01 	leaq	1(%rax), %rcx
   104cf:	48 89 4d f8 	movq	%rcx, -8(%rbp)
   104d3:	0f b6 12 	movzbl	(%rdx), %edx
   104d6:	88 10 	movb	%dl, (%rax)
   104d8:	48 8b 45 e0 	movq	-32(%rbp), %rax
   104dc:	0f b6 00 	movzbl	(%rax), %eax
   104df:	84 c0 	testb	%al, %al
   104e1:	75 d8 	jne	-40 <strcat+0x2b>
   104e3:	48 8b 45 f8 	movq	-8(%rbp), %rax
   104e7:	c6 00 00 	movb	$0, (%rax)
   104ea:	48 8b 45 e8 	movq	-24(%rbp), %rax
   104ee:	c9 	leave
   104ef:	c3 	retq

strncat:
   104f0:	55 	pushq	%rbp
   104f1:	48 89 e5 	movq	%rsp, %rbp
   104f4:	48 83 ec 28 	subq	$40, %rsp
   104f8:	48 89 7d e8 	movq	%rdi, -24(%rbp)
   104fc:	48 89 75 e0 	movq	%rsi, -32(%rbp)
   10500:	89 55 dc 	movl	%edx, -36(%rbp)
   10503:	48 8b 45 e8 	movq	-24(%rbp), %rax
   10507:	48 89 c7 	movq	%rax, %rdi
   1050a:	e8 9d fd ff ff 	callq	-611 <strlen>
   1050f:	89 c2 	movl	%eax, %edx
   10511:	48 8b 45 e8 	movq	-24(%rbp), %rax
   10515:	48 01 d0 	addq	%rdx, %rax
   10518:	48 89 45 f8 	movq	%rax, -8(%rbp)
   1051c:	c7 45 f4 00 00 00 00 	movl	$0, -12(%rbp)
   10523:	eb 21 	jmp	33 <strncat+0x56>
   10525:	48 8b 55 e0 	movq	-32(%rbp), %rdx
   10529:	48 8d 42 01 	leaq	1(%rdx), %rax
   1052d:	48 89 45 e0 	movq	%rax, -32(%rbp)
   10531:	48 8b 45 f8 	movq	-8(%rbp), %rax
   10535:	48 8d 48 01 	leaq	1(%rax), %rcx
   10539:	48 89 4d f8 	movq	%rcx, -8(%rbp)
   1053d:	0f b6 12 	movzbl	(%rdx), %edx
   10540:	88 10 	movb	%dl, (%rax)
   10542:	83 45 f4 01 	addl	$1, -12(%rbp)
   10546:	48 8b 45 e0 	movq	-32(%rbp), %rax
   1054a:	0f b6 00 	movzbl	(%rax), %eax
   1054d:	84 c0 	testb	%al, %al
   1054f:	74 08 	je	8 <strncat+0x69>
   10551:	8b 45 f4 	movl	-12(%rbp), %eax
   10554:	39 45 dc 	cmpl	%eax, -36(%rbp)
   10557:	77 cc 	ja	-52 <strncat+0x35>
   10559:	48 8b 45 f8 	movq	-8(%rbp), %rax
   1055d:	c6 00 00 	movb	$0, (%rax)
   10560:	48 8b 45 e8 	movq	-24(%rbp), %rax
   10564:	c9 	leave
   10565:	c3 	retq

strchr:
   10566:	55 	pushq	%rbp
   10567:	48 89 e5 	movq	%rsp, %rbp
   1056a:	48 83 ec 20 	subq	$32, %rsp
   1056e:	48 89 7d e8 	movq	%rdi, -24(%rbp)
   10572:	89 f0 	movl	%esi, %eax
   10574:	88 45 e4 	movb	%al, -28(%rbp)
   10577:	c7 45 fc 00 00 00 00 	movl	$0, -4(%rbp)
   1057e:	eb 22 	jmp	34 <strchr+0x3c>
   10580:	8b 55 fc 	movl	-4(%rbp), %edx
   10583:	48 8b 45 e8 	movq	-24(%rbp), %rax
   10587:	48 01 d0 	addq	%rdx, %rax
   1058a:	0f b6 00 	movzbl	(%rax), %eax
   1058d:	38 45 e4 	cmpb	%al, -28(%rbp)
   10590:	75 0c 	jne	12 <strchr+0x38>
   10592:	8b 55 fc 	movl	-4(%rbp), %edx
   10595:	48 8b 45 e8 	movq	-24(%rbp), %rax
   10599:	48 01 d0 	addq	%rdx, %rax
   1059c:	eb 1a 	jmp	26 <strchr+0x52>
   1059e:	83 45 fc 01 	addl	$1, -4(%rbp)
   105a2:	48 8b 45 e8 	movq	-24(%rbp), %rax
   105a6:	48 89 c7 	movq	%rax, %rdi
   105a9:	e8 fe fc ff ff 	callq	-770 <strlen>
   105ae:	39 45 fc 	cmpl	%eax, -4(%rbp)
   105b1:	72 cd 	jb	-51 <strchr+0x1a>
   105b3:	b8 00 00 00 00 	movl	$0, %eax
   105b8:	c9 	leave
   105b9:	c3 	retq

strnchr:
   105ba:	55 	pushq	%rbp
   105bb:	48 89 e5 	movq	%rsp, %rbp
   105be:	48 83 ec 20 	subq	$32, %rsp
   105c2:	48 89 7d e8 	movq	%rdi, -24(%rbp)
   105c6:	89 f0 	movl	%esi, %eax
   105c8:	89 55 e0 	movl	%edx, -32(%rbp)
   105cb:	88 45 e4 	movb	%al, -28(%rbp)
   105ce:	c7 45 fc 00 00 00 00 	movl	$0, -4(%rbp)
   105d5:	eb 22 	jmp	34 <strnchr+0x3f>
   105d7:	8b 55 fc 	movl	-4(%rbp), %edx
   105da:	48 8b 45 e8 	movq	-24(%rbp), %rax
   105de:	48 01 d0 	addq	%rdx, %rax
   105e1:	0f b6 00 	movzbl	(%rax), %eax
   105e4:	38 45 e4 	cmpb	%al, -28(%rbp)
   105e7:	75 0c 	jne	12 <strnchr+0x3b>
   105e9:	8b 55 fc 	movl	-4(%rbp), %edx
   105ec:	48 8b 45 e8 	movq	-24(%rbp), %rax
   105f0:	48 01 d0 	addq	%rdx, %rax
   105f3:	eb 41 	jmp	65 <strnchr+0x7c>
   105f5:	83 45 fc 01 	addl	$1, -4(%rbp)
   105f9:	48 8b 45 e8 	movq	-24(%rbp), %rax
   105fd:	48 89 c7 	movq	%rax, %rdi
   10600:	e8 a7 fc ff ff 	callq	-857 <strlen>
   10605:	39 45 e0 	cmpl	%eax, -32(%rbp)
   10608:	0f 92 c0 	setb	%al
   1060b:	0f b6 c0 	movzbl	%al, %eax
   1060e:	39 45 fc 	cmpl	%eax, -4(%rbp)
   10611:	73 09 	jae	9 <strnchr+0x62>
   10613:	83 7d e0 00 	cmpl	$0, -32(%rbp)
   10617:	0f 95 c0 	setne	%al
   1061a:	eb 11 	jmp	17 <strnchr+0x73>
   1061c:	48 8b 45 e8 	movq	-24(%rbp), %rax
   10620:	48 89 c7 	movq	%rax, %rdi
   10623:	e8 84 fc ff ff 	callq	-892 <strlen>
   10628:	85 c0 	testl	%eax, %eax
   1062a:	0f 95 c0 	setne	%al
   1062d:	84 c0 	testb	%al, %al
   1062f:	75 a6 	jne	-90 <strnchr+0x1d>
   10631:	b8 00 00 00 00 	movl	$0, %eax
   10636:	c9 	leave
   10637:	c3 	retq

strrchr:
   10638:	55 	pushq	%rbp
   10639:	48 89 e5 	movq	%rsp, %rbp
   1063c:	48 83 ec 20 	subq	$32, %rsp
   10640:	48 89 7d e8 	movq	%rdi, -24(%rbp)
   10644:	89 f0 	movl	%esi, %eax
   10646:	88 45 e4 	movb	%al, -28(%rbp)
   10649:	48 c7 45 f8 00 00 00 00 	movq	$0, -8(%rbp)
   10651:	c7 45 f4 00 00 00 00 	movl	$0, -12(%rbp)
   10658:	eb 24 	jmp	36 <strrchr+0x46>
   1065a:	8b 55 f4 	movl	-12(%rbp), %edx
   1065d:	48 8b 45 e8 	movq	-24(%rbp), %rax
   10661:	48 01 d0 	addq	%rdx, %rax
   10664:	0f b6 00 	movzbl	(%rax), %eax
   10667:	38 45 e4 	cmpb	%al, -28(%rbp)
   1066a:	75 0e 	jne	14 <strrchr+0x42>
   1066c:	8b 55 f4 	movl	-12(%rbp), %edx
   1066f:	48 8b 45 e8 	movq	-24(%rbp), %rax
   10673:	48 01 d0 	addq	%rdx, %rax
   10676:	48 89 45 f8 	movq	%rax, -8(%rbp)
   1067a:	83 45 f4 01 	addl	$1, -12(%rbp)
   1067e:	48 8b 45 e8 	movq	-24(%rbp), %rax
   10682:	48 89 c7 	movq	%rax, %rdi
   10685:	e8 22 fc ff ff 	callq	-990 <strlen>
   1068a:	39 45 f4 	cmpl	%eax, -12(%rbp)
   1068d:	72 cb 	jb	-53 <strrchr+0x22>
   1068f:	48 8b 45 f8 	movq	-8(%rbp), %rax
   10693:	c9 	leave
   10694:	c3 	retq

strstr:
   10695:	55 	pushq	%rbp
   10696:	48 89 e5 	movq	%rsp, %rbp
   10699:	48 83 ec 20 	subq	$32, %rsp
   1069d:	48 89 7d e8 	movq	%rdi, -24(%rbp)
   106a1:	48 89 75 e0 	movq	%rsi, -32(%rbp)
   106a5:	c7 45 fc 00 00 00 00 	movl	$0, -4(%rbp)
   106ac:	eb 2d 	jmp	45 <strstr+0x46>
   106ae:	8b 55 fc 	movl	-4(%rbp), %edx
   106b1:	48 8b 45 e8 	movq	-24(%rbp), %rax
   106b5:	48 01 c2 	addq	%rax, %rdx
   106b8:	48 8b 45 e0 	movq	-32(%rbp), %rax
   106bc:	48 89 c6 	movq	%rax, %rsi
   106bf:	48 89 d7 	movq	%rdx, %rdi
   106c2:	e8 0f fc ff ff 	callq	-1009 <strcmp>
   106c7:	85 c0 	testl	%eax, %eax
   106c9:	75 0c 	jne	12 <strstr+0x42>
   106cb:	8b 55 fc 	movl	-4(%rbp), %edx
   106ce:	48 8b 45 e8 	movq	-24(%rbp), %rax
   106d2:	48 01 d0 	addq	%rdx, %rax
   106d5:	eb 1a 	jmp	26 <strstr+0x5c>
   106d7:	83 45 fc 01 	addl	$1, -4(%rbp)
   106db:	48 8b 45 e8 	movq	-24(%rbp), %rax
   106df:	48 89 c7 	movq	%rax, %rdi
   106e2:	e8 c5 fb ff ff 	callq	-1083 <strlen>
   106e7:	39 45 fc 	cmpl	%eax, -4(%rbp)
   106ea:	72 c2 	jb	-62 <strstr+0x19>
   106ec:	b8 00 00 00 00 	movl	$0, %eax
   106f1:	c9 	leave
   106f2:	c3 	retq

strnstr:
   106f3:	55 	pushq	%rbp
   106f4:	48 89 e5 	movq	%rsp, %rbp
   106f7:	48 83 ec 28 	subq	$40, %rsp
   106fb:	48 89 7d e8 	movq	%rdi, -24(%rbp)
   106ff:	48 89 75 e0 	movq	%rsi, -32(%rbp)
   10703:	89 55 dc 	movl	%edx, -36(%rbp)
   10706:	c7 45 fc 00 00 00 00 	movl	$0, -4(%rbp)
   1070d:	eb 2d 	jmp	45 <strnstr+0x49>
   1070f:	8b 55 fc 	movl	-4(%rbp), %edx
   10712:	48 8b 45 e8 	movq	-24(%rbp), %rax
   10716:	48 01 c2 	addq	%rax, %rdx
   10719:	48 8b 45 e0 	movq	-32(%rbp), %rax
   1071d:	48 89 c6 	movq	%rax, %rsi
   10720:	48 89 d7 	movq	%rdx, %rdi
   10723:	e8 ae fb ff ff 	callq	-1106 <strcmp>
   10728:	85 c0 	testl	%eax, %eax
   1072a:	75 0c 	jne	12 <strnstr+0x45>
   1072c:	8b 55 fc 	movl	-4(%rbp), %edx
   1072f:	48 8b 45 e8 	movq	-24(%rbp), %rax
   10733:	48 01 d0 	addq	%rdx, %rax
   10736:	eb 41 	jmp	65 <strnstr+0x86>
   10738:	83 45 fc 01 	addl	$1, -4(%rbp)
   1073c:	48 8b 45 e8 	movq	-24(%rbp), %rax
   10740:	48 89 c7 	movq	%rax, %rdi
   10743:	e8 64 fb ff ff 	callq	-1180 <strlen>
   10748:	39 45 dc 	cmpl	%eax, -36(%rbp)
   1074b:	0f 92 c0 	setb	%al
   1074e:	0f b6 c0 	movzbl	%al, %eax
   10751:	39 45 fc 	cmpl	%eax, -4(%rbp)
   10754:	73 09 	jae	9 <strnstr+0x6c>
   10756:	83 7d dc 00 	cmpl	$0, -36(%rbp)
   1075a:	0f 95 c0 	setne	%al
   1075d:	eb 11 	jmp	17 <strnstr+0x7d>
   1075f:	48 8b 45 e8 	movq	-24(%rbp), %rax
   10763:	48 89 c7 	movq	%rax, %rdi
   10766:	e8 41 fb ff ff 	callq	-1215 <strlen>
   1076b:	85 c0 	testl	%eax, %eax
   1076d:	0f 95 c0 	setne	%al
   10770:	84 c0 	testb	%al, %al
   10772:	75 9b 	jne	-101 <strnstr+0x1c>
   10774:	b8 00 00 00 00 	movl	$0, %eax
   10779:	c9 	leave
   1077a:	c3 	retq

strcpy:
   1077b:	55 	pushq	%rbp
   1077c:	48 89 e5 	movq	%rsp, %rbp
   1077f:	48 89 7d e8 	movq	%rdi, -24(%rbp)
   10783:	48 89 75 e0 	movq	%rsi, -32(%rbp)
   10787:	48 83 7d e8 00 	cmpq	$0, -24(%rbp)
   1078c:	75 07 	jne	7 <strcpy+0x1a>
   1078e:	b8 00 00 00 00 	movl	$0, %eax
   10793:	eb 37 	jmp	55 <strcpy+0x51>
   10795:	48 8b 45 e8 	movq	-24(%rbp), %rax
   10799:	48 89 45 f8 	movq	%rax, -8(%rbp)
   1079d:	eb 17 	jmp	23 <strcpy+0x3b>
   1079f:	48 8b 45 e0 	movq	-32(%rbp), %rax
   107a3:	0f b6 10 	movzbl	(%rax), %edx
   107a6:	48 8b 45 e8 	movq	-24(%rbp), %rax
   107aa:	88 10 	movb	%dl, (%rax)
   107ac:	48 83 45 e8 01 	addq	$1, -24(%rbp)
   107b1:	48 83 45 e0 01 	addq	$1, -32(%rbp)
   107b6:	48 8b 45 e0 	movq	-32(%rbp), %rax
   107ba:	0f b6 00 	movzbl	(%rax), %eax
   107bd:	84 c0 	testb	%al, %al
   107bf:	75 de 	jne	-34 <strcpy+0x24>
   107c1:	48 8b 45 e8 	movq	-24(%rbp), %rax
   107c5:	c6 00 00 	movb	$0, (%rax)
   107c8:	48 8b 45 f8 	movq	-8(%rbp), %rax
   107cc:	5d 	popq	%rbp
   107cd:	c3 	retq

strncpy:
   107ce:	55 	pushq	%rbp
   107cf:	48 89 e5 	movq	%rsp, %rbp
   107d2:	48 89 7d e8 	movq	%rdi, -24(%rbp)
   107d6:	48 89 75 e0 	movq	%rsi, -32(%rbp)
   107da:	89 55 dc 	movl	%edx, -36(%rbp)
   107dd:	c7 45 fc 00 00 00 00 	movl	$0, -4(%rbp)
   107e4:	eb 1d 	jmp	29 <strncpy+0x35>
   107e6:	8b 55 fc 	movl	-4(%rbp), %edx
   107e9:	48 8b 45 e0 	movq	-32(%rbp), %rax
   107ed:	48 01 d0 	addq	%rdx, %rax
   107f0:	8b 4d fc 	movl	-4(%rbp), %ecx
   107f3:	48 8b 55 e8 	movq	-24(%rbp), %rdx
   107f7:	48 01 ca 	addq	%rcx, %rdx
   107fa:	0f b6 00 	movzbl	(%rax), %eax
   107fd:	88 02 	movb	%al, (%rdx)
   107ff:	83 45 fc 01 	addl	$1, -4(%rbp)
   10803:	8b 45 fc 	movl	-4(%rbp), %eax
   10806:	3b 45 dc 	cmpl	-36(%rbp), %eax
   10809:	73 24 	jae	36 <strncpy+0x61>
   1080b:	8b 55 fc 	movl	-4(%rbp), %edx
   1080e:	48 8b 45 e0 	movq	-32(%rbp), %rax
   10812:	48 01 d0 	addq	%rdx, %rax
   10815:	0f b6 00 	movzbl	(%rax), %eax
   10818:	84 c0 	testb	%al, %al
   1081a:	75 ca 	jne	-54 <strncpy+0x18>
   1081c:	eb 11 	jmp	17 <strncpy+0x61>
   1081e:	8b 55 fc 	movl	-4(%rbp), %edx
   10821:	48 8b 45 e8 	movq	-24(%rbp), %rax
   10825:	48 01 d0 	addq	%rdx, %rax
   10828:	c6 00 00 	movb	$0, (%rax)
   1082b:	83 45 fc 01 	addl	$1, -4(%rbp)
   1082f:	8b 45 fc 	movl	-4(%rbp), %eax
   10832:	3b 45 dc 	cmpl	-36(%rbp), %eax
   10835:	72 e7 	jb	-25 <strncpy+0x50>
   10837:	48 8b 45 e8 	movq	-24(%rbp), %rax
   1083b:	5d 	popq	%rbp
   1083c:	c3 	retq

memcpy:
   1083d:	55 	pushq	%rbp
   1083e:	48 89 e5 	movq	%rsp, %rbp
   10841:	48 89 7d e8 	movq	%rdi, -24(%rbp)
   10845:	48 89 75 e0 	movq	%rsi, -32(%rbp)
   10849:	48 89 55 d8 	movq	%rdx, -40(%rbp)
   1084d:	48 8b 45 e0 	movq	-32(%rbp), %rax
   10851:	48 89 45 f8 	movq	%rax, -8(%rbp)
   10855:	48 8b 45 e8 	movq	-24(%rbp), %rax
   10859:	48 89 45 f0 	movq	%rax, -16(%rbp)
   1085d:	eb 1d 	jmp	29 <memcpy+0x3f>
   1085f:	48 8b 55 f8 	movq	-8(%rbp), %rdx
   10863:	48 8d 42 01 	leaq	1(%rdx), %rax
   10867:	48 89 45 f8 	movq	%rax, -8(%rbp)
   1086b:	48 8b 45 f0 	movq	-16(%rbp), %rax
   1086f:	48 8d 48 01 	leaq	1(%rax), %rcx
   10873:	48 89 4d f0 	movq	%rcx, -16(%rbp)
   10877:	0f b6 12 	movzbl	(%rdx), %edx
   1087a:	88 10 	movb	%dl, (%rax)
   1087c:	48 8b 45 d8 	movq	-40(%rbp), %rax
   10880:	48 8d 50 ff 	leaq	-1(%rax), %rdx
   10884:	48 89 55 d8 	movq	%rdx, -40(%rbp)
   10888:	48 85 c0 	testq	%rax, %rax
   1088b:	75 d2 	jne	-46 <memcpy+0x22>
   1088d:	90 	nop
   1088e:	90 	nop
   1088f:	5d 	popq	%rbp
   10890:	c3 	retq

memset:
   10891:	55 	pushq	%rbp
   10892:	48 89 e5 	movq	%rsp, %rbp
   10895:	48 89 7d e8 	movq	%rdi, -24(%rbp)
   10899:	89 f0 	movl	%esi, %eax
   1089b:	48 89 55 d8 	movq	%rdx, -40(%rbp)
   1089f:	88 45 e4 	movb	%al, -28(%rbp)
   108a2:	48 8b 45 e8 	movq	-24(%rbp), %rax
   108a6:	48 89 45 f8 	movq	%rax, -8(%rbp)
   108aa:	eb 12 	jmp	18 <memset+0x2d>
   108ac:	48 8b 45 f8 	movq	-8(%rbp), %rax
   108b0:	48 8d 50 01 	leaq	1(%rax), %rdx
   108b4:	48 89 55 f8 	movq	%rdx, -8(%rbp)
   108b8:	0f b6 55 e4 	movzbl	-28(%rbp), %edx
   108bc:	88 10 	movb	%dl, (%rax)
   108be:	48 8b 45 d8 	movq	-40(%rbp), %rax
   108c2:	48 8d 50 ff 	leaq	-1(%rax), %rdx
   108c6:	48 89 55 d8 	movq	%rdx, -40(%rbp)
   108ca:	48 85 c0 	testq	%rax, %rax
   108cd:	75 dd 	jne	-35 <memset+0x1b>
   108cf:	90 	nop
   108d0:	90 	nop
   108d1:	5d 	popq	%rbp
   108d2:	c3 	retq

memmove:
   108d3:	55 	pushq	%rbp
   108d4:	48 89 e5 	movq	%rsp, %rbp
   108d7:	48 89 7d d8 	movq	%rdi, -40(%rbp)
   108db:	48 89 75 d0 	movq	%rsi, -48(%rbp)
   108df:	48 89 55 c8 	movq	%rdx, -56(%rbp)
   108e3:	48 8b 45 d0 	movq	-48(%rbp), %rax
   108e7:	48 89 45 f8 	movq	%rax, -8(%rbp)
   108eb:	48 8b 45 d8 	movq	-40(%rbp), %rax
   108ef:	48 89 45 f0 	movq	%rax, -16(%rbp)
   108f3:	48 8b 45 f0 	movq	-16(%rbp), %rax
   108f7:	48 3b 45 f8 	cmpq	-8(%rbp), %rax
   108fb:	73 32 	jae	50 <memmove+0x5c>
   108fd:	eb 1d 	jmp	29 <memmove+0x49>
   108ff:	48 8b 55 f8 	movq	-8(%rbp), %rdx
   10903:	48 8d 42 01 	leaq	1(%rdx), %rax
   10907:	48 89 45 f8 	movq	%rax, -8(%rbp)
   1090b:	48 8b 45 f0 	movq	-16(%rbp), %rax
   1090f:	48 8d 48 01 	leaq	1(%rax), %rcx
   10913:	48 89 4d f0 	movq	%rcx, -16(%rbp)
   10917:	0f b6 12 	movzbl	(%rdx), %edx
   1091a:	88 10 	movb	%dl, (%rax)
   1091c:	48 8b 45 c8 	movq	-56(%rbp), %rax
   10920:	48 8d 50 ff 	leaq	-1(%rax), %rdx
   10924:	48 89 55 c8 	movq	%rdx, -56(%rbp)
   10928:	48 85 c0 	testq	%rax, %rax
   1092b:	75 d2 	jne	-46 <memmove+0x2c>
   1092d:	eb 56 	jmp	86 <memmove+0xb2>
   1092f:	48 8b 45 c8 	movq	-56(%rbp), %rax
   10933:	48 8d 50 ff 	leaq	-1(%rax), %rdx
   10937:	48 8b 45 f8 	movq	-8(%rbp), %rax
   1093b:	48 01 d0 	addq	%rdx, %rax
   1093e:	48 89 45 e8 	movq	%rax, -24(%rbp)
   10942:	48 8b 45 c8 	movq	-56(%rbp), %rax
   10946:	48 8d 50 ff 	leaq	-1(%rax), %rdx
   1094a:	48 8b 45 f0 	movq	-16(%rbp), %rax
   1094e:	48 01 d0 	addq	%rdx, %rax
   10951:	48 89 45 e0 	movq	%rax, -32(%rbp)
   10955:	eb 1d 	jmp	29 <memmove+0xa1>
   10957:	48 8b 55 e8 	movq	-24(%rbp), %rdx
   1095b:	48 8d 42 ff 	leaq	-1(%rdx), %rax
   1095f:	48 89 45 e8 	movq	%rax, -24(%rbp)
   10963:	48 8b 45 e0 	movq	-32(%rbp), %rax
   10967:	48 8d 48 ff 	leaq	-1(%rax), %rcx
   1096b:	48 89 4d e0 	movq	%rcx, -32(%rbp)
   1096f:	0f b6 12 	movzbl	(%rdx), %edx
   10972:	88 10 	movb	%dl, (%rax)
   10974:	48 8b 45 c8 	movq	-56(%rbp), %rax
   10978:	48 8d 50 ff 	leaq	-1(%rax), %rdx
   1097c:	48 89 55 c8 	movq	%rdx, -56(%rbp)
   10980:	48 85 c0 	testq	%rax, %rax
   10983:	75 d2 	jne	-46 <memmove+0x84>
   10985:	90 	nop
   10986:	5d 	popq	%rbp
   10987:	c3 	retq

memcmp:
   10988:	55 	pushq	%rbp
   10989:	48 89 e5 	movq	%rsp, %rbp
   1098c:	48 89 7d e8 	movq	%rdi, -24(%rbp)
   10990:	48 89 75 e0 	movq	%rsi, -32(%rbp)
   10994:	48 89 55 d8 	movq	%rdx, -40(%rbp)
   10998:	48 8b 45 e8 	movq	-24(%rbp), %rax
   1099c:	48 89 45 f8 	movq	%rax, -8(%rbp)
   109a0:	48 8b 45 e0 	movq	-32(%rbp), %rax
   109a4:	48 89 45 f0 	movq	%rax, -16(%rbp)
   109a8:	eb 4a 	jmp	74 <memcmp+0x6c>
   109aa:	48 8b 45 f8 	movq	-8(%rbp), %rax
   109ae:	48 8d 50 01 	leaq	1(%rax), %rdx
   109b2:	48 89 55 f8 	movq	%rdx, -8(%rbp)
   109b6:	0f b6 08 	movzbl	(%rax), %ecx
   109b9:	48 8b 45 f0 	movq	-16(%rbp), %rax
   109bd:	48 8d 50 01 	leaq	1(%rax), %rdx
   109c1:	48 89 55 f0 	movq	%rdx, -16(%rbp)
   109c5:	0f b6 00 	movzbl	(%rax), %eax
   109c8:	38 c1 	cmpb	%al, %cl
   109ca:	74 28 	je	40 <memcmp+0x6c>
   109cc:	48 8b 45 f8 	movq	-8(%rbp), %rax
   109d0:	48 83 e8 01 	subq	$1, %rax
   109d4:	0f b6 10 	movzbl	(%rax), %edx
   109d7:	48 8b 45 f0 	movq	-16(%rbp), %rax
   109db:	48 83 e8 01 	subq	$1, %rax
   109df:	0f b6 00 	movzbl	(%rax), %eax
   109e2:	38 c2 	cmpb	%al, %dl
   109e4:	73 07 	jae	7 <memcmp+0x65>
   109e6:	b8 ff ff ff ff 	movl	$4294967295, %eax
   109eb:	eb 1d 	jmp	29 <memcmp+0x82>
   109ed:	b8 01 00 00 00 	movl	$1, %eax
   109f2:	eb 16 	jmp	22 <memcmp+0x82>
   109f4:	48 8b 45 d8 	movq	-40(%rbp), %rax
   109f8:	48 8d 50 ff 	leaq	-1(%rax), %rdx
   109fc:	48 89 55 d8 	movq	%rdx, -40(%rbp)
   10a00:	48 85 c0 	testq	%rax, %rax
   10a03:	75 a5 	jne	-91 <memcmp+0x22>
   10a05:	b8 00 00 00 00 	movl	$0, %eax
   10a0a:	5d 	popq	%rbp
   10a0b:	c3 	retq

initMemoryMap:
   10a0c:	55 	pushq	%rbp
   10a0d:	48 89 e5 	movq	%rsp, %rbp
   10a10:	89 f8 	movl	%edi, %eax
   10a12:	66 89 45 fc 	movw	%ax, -4(%rbp)
   10a16:	0f b7 45 fc 	movzwl	-4(%rbp), %eax
   10a1a:	66 89 05 c1 29 00 00 	movw	%ax, 10689(%rip)
   10a21:	90 	nop
   10a22:	5d 	popq	%rbp
   10a23:	c3 	retq

getSystemMemory:
   10a24:	55 	pushq	%rbp
   10a25:	48 89 e5 	movq	%rsp, %rbp
   10a28:	48 c7 45 f8 00 00 00 00 	movq	$0, -8(%rbp)
   10a30:	0f b7 05 ab 29 00 00 	movzwl	10667(%rip), %eax
   10a37:	0f b7 c0 	movzwl	%ax, %eax
   10a3a:	83 e8 04 	subl	$4, %eax
   10a3d:	48 98 	cltq
   10a3f:	8b 00 	movl	(%rax), %eax
   10a41:	89 45 ec 	movl	%eax, -20(%rbp)
   10a44:	48 c7 45 f0 00 00 00 00 	movq	$0, -16(%rbp)
   10a4c:	eb 33 	jmp	51 <getSystemMemory+0x5d>
   10a4e:	0f b7 05 8d 29 00 00 	movzwl	10637(%rip), %eax
   10a55:	0f b7 c8 	movzwl	%ax, %ecx
   10a58:	48 8b 55 f0 	movq	-16(%rbp), %rdx
   10a5c:	48 89 d0 	movq	%rdx, %rax
   10a5f:	48 01 c0 	addq	%rax, %rax
   10a62:	48 01 d0 	addq	%rdx, %rax
   10a65:	48 c1 e0 03 	shlq	$3, %rax
   10a69:	48 01 c8 	addq	%rcx, %rax
   10a6c:	48 89 45 e0 	movq	%rax, -32(%rbp)
   10a70:	48 8b 45 e0 	movq	-32(%rbp), %rax
   10a74:	48 8b 40 08 	movq	8(%rax), %rax
   10a78:	48 01 45 f8 	addq	%rax, -8(%rbp)
   10a7c:	48 83 45 f0 01 	addq	$1, -16(%rbp)
   10a81:	8b 45 ec 	movl	-20(%rbp), %eax
   10a84:	48 39 45 f0 	cmpq	%rax, -16(%rbp)
   10a88:	72 c4 	jb	-60 <getSystemMemory+0x2a>
   10a8a:	48 8b 45 f8 	movq	-8(%rbp), %rax
   10a8e:	5d 	popq	%rbp
   10a8f:	c3 	retq

getUsableSystemMemory:
   10a90:	55 	pushq	%rbp
   10a91:	48 89 e5 	movq	%rsp, %rbp
   10a94:	48 c7 45 f8 00 00 00 00 	movq	$0, -8(%rbp)
   10a9c:	0f b7 05 3f 29 00 00 	movzwl	10559(%rip), %eax
   10aa3:	0f b7 c0 	movzwl	%ax, %eax
   10aa6:	83 e8 04 	subl	$4, %eax
   10aa9:	48 98 	cltq
   10aab:	8b 00 	movl	(%rax), %eax
   10aad:	89 45 ec 	movl	%eax, -20(%rbp)
   10ab0:	48 c7 45 f0 00 00 00 00 	movq	$0, -16(%rbp)
   10ab8:	eb 6e 	jmp	110 <getUsableSystemMemory+0x98>
   10aba:	0f b7 05 21 29 00 00 	movzwl	10529(%rip), %eax
   10ac1:	0f b7 c8 	movzwl	%ax, %ecx
   10ac4:	48 8b 55 f0 	movq	-16(%rbp), %rdx
   10ac8:	48 89 d0 	movq	%rdx, %rax
   10acb:	48 01 c0 	addq	%rax, %rax
   10ace:	48 01 d0 	addq	%rdx, %rax
   10ad1:	48 c1 e0 03 	shlq	$3, %rax
   10ad5:	48 01 c8 	addq	%rcx, %rax
   10ad8:	48 89 45 e0 	movq	%rax, -32(%rbp)
   10adc:	48 8b 45 e0 	movq	-32(%rbp), %rax
   10ae0:	8b 40 10 	movl	16(%rax), %eax
   10ae3:	83 f8 02 	cmpl	$2, %eax
   10ae6:	74 3b 	je	59 <getUsableSystemMemory+0x93>
   10ae8:	48 8b 45 e0 	movq	-32(%rbp), %rax
   10aec:	8b 40 10 	movl	16(%rax), %eax
   10aef:	83 f8 04 	cmpl	$4, %eax
   10af2:	74 2f 	je	47 <getUsableSystemMemory+0x93>
   10af4:	48 8b 45 e0 	movq	-32(%rbp), %rax
   10af8:	8b 40 10 	movl	16(%rax), %eax
   10afb:	83 f8 05 	cmpl	$5, %eax
   10afe:	74 23 	je	35 <getUsableSystemMemory+0x93>
   10b00:	48 8b 45 e0 	movq	-32(%rbp), %rax
   10b04:	8b 40 14 	movl	20(%rax), %eax
   10b07:	85 c0 	testl	%eax, %eax
   10b09:	74 18 	je	24 <getUsableSystemMemory+0x93>
   10b0b:	48 8b 45 e0 	movq	-32(%rbp), %rax
   10b0f:	8b 40 14 	movl	20(%rax), %eax
   10b12:	83 f8 02 	cmpl	$2, %eax
   10b15:	74 0c 	je	12 <getUsableSystemMemory+0x93>
   10b17:	48 8b 45 e0 	movq	-32(%rbp), %rax
   10b1b:	48 8b 40 08 	movq	8(%rax), %rax
   10b1f:	48 01 45 f8 	addq	%rax, -8(%rbp)
   10b23:	48 83 45 f0 01 	addq	$1, -16(%rbp)
   10b28:	8b 45 ec 	movl	-20(%rbp), %eax
   10b2b:	48 39 45 f0 	cmpq	%rax, -16(%rbp)
   10b2f:	72 89 	jb	-119 <getUsableSystemMemory+0x2a>
   10b31:	48 8b 45 f8 	movq	-8(%rbp), %rax
   10b35:	5d 	popq	%rbp
   10b36:	c3 	retq

isMemoryEntryUsable:
   10b37:	55 	pushq	%rbp
   10b38:	48 89 e5 	movq	%rsp, %rbp
   10b3b:	48 89 7d f8 	movq	%rdi, -8(%rbp)
   10b3f:	48 8b 45 f8 	movq	-8(%rbp), %rax
   10b43:	8b 40 10 	movl	16(%rax), %eax
   10b46:	83 f8 02 	cmpl	$2, %eax
   10b49:	74 36 	je	54 <isMemoryEntryUsable+0x4a>
   10b4b:	48 8b 45 f8 	movq	-8(%rbp), %rax
   10b4f:	8b 40 10 	movl	16(%rax), %eax
   10b52:	83 f8 04 	cmpl	$4, %eax
   10b55:	74 2a 	je	42 <isMemoryEntryUsable+0x4a>
   10b57:	48 8b 45 f8 	movq	-8(%rbp), %rax
   10b5b:	8b 40 10 	movl	16(%rax), %eax
   10b5e:	83 f8 05 	cmpl	$5, %eax
   10b61:	74 1e 	je	30 <isMemoryEntryUsable+0x4a>
   10b63:	48 8b 45 f8 	movq	-8(%rbp), %rax
   10b67:	8b 40 14 	movl	20(%rax), %eax
   10b6a:	85 c0 	testl	%eax, %eax
   10b6c:	74 13 	je	19 <isMemoryEntryUsable+0x4a>
   10b6e:	48 8b 45 f8 	movq	-8(%rbp), %rax
   10b72:	8b 40 14 	movl	20(%rax), %eax
   10b75:	83 f8 02 	cmpl	$2, %eax
   10b78:	74 07 	je	7 <isMemoryEntryUsable+0x4a>
   10b7a:	b8 01 00 00 00 	movl	$1, %eax
   10b7f:	eb 05 	jmp	5 <isMemoryEntryUsable+0x4f>
   10b81:	b8 00 00 00 00 	movl	$0, %eax
   10b86:	5d 	popq	%rbp
   10b87:	c3 	retq

bitmapGet:
   10b88:	55 	pushq	%rbp
   10b89:	48 89 e5 	movq	%rsp, %rbp
   10b8c:	53 	pushq	%rbx
   10b8d:	48 89 f9 	movq	%rdi, %rcx
   10b90:	48 89 f0 	movq	%rsi, %rax
   10b93:	48 89 c3 	movq	%rax, %rbx
   10b96:	48 89 4d d0 	movq	%rcx, -48(%rbp)
   10b9a:	48 89 5d d8 	movq	%rbx, -40(%rbp)
   10b9e:	48 89 55 c8 	movq	%rdx, -56(%rbp)
   10ba2:	48 8b 45 c8 	movq	-56(%rbp), %rax
   10ba6:	48 c1 e8 06 	shrq	$6, %rax
   10baa:	48 89 45 e8 	movq	%rax, -24(%rbp)
   10bae:	48 8b 45 c8 	movq	-56(%rbp), %rax
   10bb2:	83 e0 3f 	andl	$63, %eax
   10bb5:	48 89 45 e0 	movq	%rax, -32(%rbp)
   10bb9:	48 8b 55 d8 	movq	-40(%rbp), %rdx
   10bbd:	48 8b 45 e8 	movq	-24(%rbp), %rax
   10bc1:	48 c1 e0 03 	shlq	$3, %rax
   10bc5:	48 01 d0 	addq	%rdx, %rax
   10bc8:	48 8b 00 	movq	(%rax), %rax
   10bcb:	89 c6 	movl	%eax, %esi
   10bcd:	48 8b 45 e0 	movq	-32(%rbp), %rax
   10bd1:	ba 01 00 00 00 	movl	$1, %edx
   10bd6:	89 c1 	movl	%eax, %ecx
   10bd8:	d3 e2 	shll	%cl, %edx
   10bda:	89 d0 	movl	%edx, %eax
   10bdc:	21 f0 	andl	%esi, %eax
   10bde:	48 8b 5d f8 	movq	-8(%rbp), %rbx
   10be2:	c9 	leave
   10be3:	c3 	retq

bitmapSet:
   10be4:	55 	pushq	%rbp
   10be5:	48 89 e5 	movq	%rsp, %rbp
   10be8:	48 89 f0 	movq	%rsi, %rax
   10beb:	49 89 f8 	movq	%rdi, %r8
   10bee:	4c 89 c6 	movq	%r8, %rsi
   10bf1:	4c 89 cf 	movq	%r9, %rdi
   10bf4:	48 89 c7 	movq	%rax, %rdi
   10bf7:	48 89 75 e0 	movq	%rsi, -32(%rbp)
   10bfb:	48 89 7d e8 	movq	%rdi, -24(%rbp)
   10bff:	48 89 55 d8 	movq	%rdx, -40(%rbp)
   10c03:	89 4d d4 	movl	%ecx, -44(%rbp)
   10c06:	48 8b 45 d8 	movq	-40(%rbp), %rax
   10c0a:	48 c1 e8 06 	shrq	$6, %rax
   10c0e:	48 89 45 f8 	movq	%rax, -8(%rbp)
   10c12:	48 8b 45 d8 	movq	-40(%rbp), %rax
   10c16:	83 e0 3f 	andl	$63, %eax
   10c19:	48 89 45 f0 	movq	%rax, -16(%rbp)
   10c1d:	83 7d d4 00 	cmpl	$0, -44(%rbp)
   10c21:	74 3b 	je	59 <bitmapSet+0x7a>
   10c23:	48 8b 55 e8 	movq	-24(%rbp), %rdx
   10c27:	48 8b 45 f8 	movq	-8(%rbp), %rax
   10c2b:	48 c1 e0 03 	shlq	$3, %rax
   10c2f:	48 01 d0 	addq	%rdx, %rax
   10c32:	48 8b 30 	movq	(%rax), %rsi
   10c35:	48 8b 45 f0 	movq	-16(%rbp), %rax
   10c39:	ba 01 00 00 00 	movl	$1, %edx
   10c3e:	89 c1 	movl	%eax, %ecx
   10c40:	d3 e2 	shll	%cl, %edx
   10c42:	89 d0 	movl	%edx, %eax
   10c44:	48 63 d0 	movslq	%eax, %rdx
   10c47:	48 8b 4d e8 	movq	-24(%rbp), %rcx
   10c4b:	48 8b 45 f8 	movq	-8(%rbp), %rax
   10c4f:	48 c1 e0 03 	shlq	$3, %rax
   10c53:	48 01 c8 	addq	%rcx, %rax
   10c56:	48 09 f2 	orq	%rsi, %rdx
   10c59:	48 89 10 	movq	%rdx, (%rax)
   10c5c:	eb 3b 	jmp	59 <bitmapSet+0xb5>
   10c5e:	48 8b 55 e8 	movq	-24(%rbp), %rdx
   10c62:	48 8b 45 f8 	movq	-8(%rbp), %rax
   10c66:	48 c1 e0 03 	shlq	$3, %rax
   10c6a:	48 01 d0 	addq	%rdx, %rax
   10c6d:	48 8b 30 	movq	(%rax), %rsi
   10c70:	48 8b 45 f0 	movq	-16(%rbp), %rax
   10c74:	ba 01 00 00 00 	movl	$1, %edx
   10c79:	89 c1 	movl	%eax, %ecx
   10c7b:	d3 e2 	shll	%cl, %edx
   10c7d:	89 d0 	movl	%edx, %eax
   10c7f:	f7 d0 	notl	%eax
   10c81:	48 63 d0 	movslq	%eax, %rdx
   10c84:	48 8b 4d e8 	movq	-24(%rbp), %rcx
   10c88:	48 8b 45 f8 	movq	-8(%rbp), %rax
   10c8c:	48 c1 e0 03 	shlq	$3, %rax
   10c90:	48 01 c8 	addq	%rcx, %rax
   10c93:	48 21 f2 	andq	%rsi, %rdx
   10c96:	48 89 10 	movq	%rdx, (%rax)
   10c99:	90 	nop
   10c9a:	5d 	popq	%rbp
   10c9b:	c3 	retq

bitmapFirstZeriBit:
   10c9c:	55 	pushq	%rbp
   10c9d:	48 89 e5 	movq	%rsp, %rbp
   10ca0:	48 89 f8 	movq	%rdi, %rax
   10ca3:	48 89 f1 	movq	%rsi, %rcx
   10ca6:	48 89 ca 	movq	%rcx, %rdx
   10ca9:	48 89 45 e0 	movq	%rax, -32(%rbp)
   10cad:	48 89 55 e8 	movq	%rdx, -24(%rbp)
   10cb1:	c7 45 fc 00 00 00 00 	movl	$0, -4(%rbp)
   10cb8:	eb 6d 	jmp	109 <bitmapFirstZeriBit+0x8b>
   10cba:	48 8b 55 e8 	movq	-24(%rbp), %rdx
   10cbe:	8b 45 fc 	movl	-4(%rbp), %eax
   10cc1:	48 c1 e0 03 	shlq	$3, %rax
   10cc5:	48 01 d0 	addq	%rdx, %rax
   10cc8:	48 8b 00 	movq	(%rax), %rax
   10ccb:	48 83 f8 ff 	cmpq	$-1, %rax
   10ccf:	74 52 	je	82 <bitmapFirstZeriBit+0x87>
   10cd1:	c7 45 f8 00 00 00 00 	movl	$0, -8(%rbp)
   10cd8:	eb 43 	jmp	67 <bitmapFirstZeriBit+0x81>
   10cda:	8b 45 f8 	movl	-8(%rbp), %eax
   10cdd:	ba 01 00 00 00 	movl	$1, %edx
   10ce2:	89 c1 	movl	%eax, %ecx
   10ce4:	d3 e2 	shll	%cl, %edx
   10ce6:	89 d0 	movl	%edx, %eax
   10ce8:	48 98 	cltq
   10cea:	48 89 45 f0 	movq	%rax, -16(%rbp)
   10cee:	48 8b 55 e8 	movq	-24(%rbp), %rdx
   10cf2:	8b 45 fc 	movl	-4(%rbp), %eax
   10cf5:	48 c1 e0 03 	shlq	$3, %rax
   10cf9:	48 01 d0 	addq	%rdx, %rax
   10cfc:	48 8b 00 	movq	(%rax), %rax
   10cff:	48 23 45 f0 	andq	-16(%rbp), %rax
   10d03:	48 85 c0 	testq	%rax, %rax
   10d06:	75 11 	jne	17 <bitmapFirstZeriBit+0x7d>
   10d08:	8b 45 fc 	movl	-4(%rbp), %eax
   10d0b:	c1 e0 06 	shll	$6, %eax
   10d0e:	89 c2 	movl	%eax, %edx
   10d10:	8b 45 f8 	movl	-8(%rbp), %eax
   10d13:	01 d0 	addl	%edx, %eax
   10d15:	89 c0 	movl	%eax, %eax
   10d17:	eb 21 	jmp	33 <bitmapFirstZeriBit+0x9e>
   10d19:	83 45 f8 01 	addl	$1, -8(%rbp)
   10d1d:	83 7d f8 3f 	cmpl	$63, -8(%rbp)
   10d21:	76 b7 	jbe	-73 <bitmapFirstZeriBit+0x3e>
   10d23:	83 45 fc 01 	addl	$1, -4(%rbp)
   10d27:	8b 55 fc 	movl	-4(%rbp), %edx
   10d2a:	48 8b 45 e0 	movq	-32(%rbp), %rax
   10d2e:	48 39 c2 	cmpq	%rax, %rdx
   10d31:	72 87 	jb	-121 <bitmapFirstZeriBit+0x1e>
   10d33:	48 c7 c0 ff ff ff ff 	movq	$-1, %rax
   10d3a:	5d 	popq	%rbp
   10d3b:	c3 	retq

initPhysicalPageFrameAllocation:
   10d3c:	55 	pushq	%rbp
   10d3d:	48 89 e5 	movq	%rsp, %rbp
   10d40:	48 83 ec 10 	subq	$16, %rsp
   10d44:	48 89 7d f8 	movq	%rdi, -8(%rbp)
   10d48:	48 8b 45 f8 	movq	-8(%rbp), %rax
   10d4c:	48 83 e8 80 	subq	$-128, %rax
   10d50:	48 c1 e0 09 	shlq	$9, %rax
   10d54:	48 05 00 01 00 00 	addq	$256, %rax
   10d5a:	48 89 05 97 26 00 00 	movq	%rax, 9879(%rip)
   10d61:	b8 00 00 00 00 	movl	$0, %eax
   10d66:	e8 b9 fc ff ff 	callq	-839 <getSystemMemory>
   10d6b:	48 c1 e8 03 	shrq	$3, %rax
   10d6f:	48 89 05 7a 26 00 00 	movq	%rax, 9850(%rip)
   10d76:	48 8b 15 73 26 00 00 	movq	9843(%rip), %rdx
   10d7d:	48 8b 05 74 26 00 00 	movq	9844(%rip), %rax
   10d84:	be 00 00 00 00 	movl	$0, %esi
   10d89:	48 89 c7 	movq	%rax, %rdi
   10d8c:	e8 00 fb ff ff 	callq	-1280 <memset>
   10d91:	c7 05 65 26 00 00 01 00 00 00 	movl	$1, 9829(%rip)
   10d9b:	be 00 01 00 00 	movl	$256, %esi
   10da0:	bf 00 00 00 00 	movl	$0, %edi
   10da5:	e8 03 00 00 00 	callq	3 <reservePages>
   10daa:	90 	nop
   10dab:	c9 	leave
   10dac:	c3 	retq

reservePages:
   10dad:	55 	pushq	%rbp
   10dae:	48 89 e5 	movq	%rsp, %rbp
   10db1:	48 83 ec 20 	subq	$32, %rsp
   10db5:	48 89 7d e8 	movq	%rdi, -24(%rbp)
   10db9:	48 89 75 e0 	movq	%rsi, -32(%rbp)
   10dbd:	8b 05 3d 26 00 00 	movl	9789(%rip), %eax
   10dc3:	85 c0 	testl	%eax, %eax
   10dc5:	74 5a 	je	90 <reservePages+0x74>
   10dc7:	48 c7 45 f8 00 00 00 00 	movq	$0, -8(%rbp)
   10dcf:	eb 44 	jmp	68 <reservePages+0x68>
   10dd1:	48 8b 45 f8 	movq	-8(%rbp), %rax
   10dd5:	48 c1 e0 0c 	shlq	$12, %rax
   10dd9:	48 89 c2 	movq	%rax, %rdx
   10ddc:	48 8b 45 e8 	movq	-24(%rbp), %rax
   10de0:	48 01 d0 	addq	%rdx, %rax
   10de3:	48 89 45 f0 	movq	%rax, -16(%rbp)
   10de7:	48 8b 45 f0 	movq	-16(%rbp), %rax
   10deb:	48 c1 e8 0c 	shrq	$12, %rax
   10def:	48 89 c2 	movq	%rax, %rdx
   10df2:	48 8b 35 f7 25 00 00 	movq	9719(%rip), %rsi
   10df9:	48 8b 05 f8 25 00 00 	movq	9720(%rip), %rax
   10e00:	b9 01 00 00 00 	movl	$1, %ecx
   10e05:	48 89 f7 	movq	%rsi, %rdi
   10e08:	48 89 c6 	movq	%rax, %rsi
   10e0b:	e8 d4 fd ff ff 	callq	-556 <bitmapSet>
   10e10:	48 83 45 f8 01 	addq	$1, -8(%rbp)
   10e15:	48 8b 45 f8 	movq	-8(%rbp), %rax
   10e19:	48 3b 45 e0 	cmpq	-32(%rbp), %rax
   10e1d:	72 b2 	jb	-78 <reservePages+0x24>
   10e1f:	eb 01 	jmp	1 <reservePages+0x75>
   10e21:	90 	nop
   10e22:	c9 	leave
   10e23:	c3 	retq

unreservePages:
   10e24:	55 	pushq	%rbp
   10e25:	48 89 e5 	movq	%rsp, %rbp
   10e28:	48 83 ec 20 	subq	$32, %rsp
   10e2c:	48 89 7d e8 	movq	%rdi, -24(%rbp)
   10e30:	48 89 75 e0 	movq	%rsi, -32(%rbp)
   10e34:	8b 05 c6 25 00 00 	movl	9670(%rip), %eax
   10e3a:	85 c0 	testl	%eax, %eax
   10e3c:	74 5a 	je	90 <unreservePages+0x74>
   10e3e:	48 c7 45 f8 00 00 00 00 	movq	$0, -8(%rbp)
   10e46:	eb 44 	jmp	68 <unreservePages+0x68>
   10e48:	48 8b 45 f8 	movq	-8(%rbp), %rax
   10e4c:	48 c1 e0 0c 	shlq	$12, %rax
   10e50:	48 89 c2 	movq	%rax, %rdx
   10e53:	48 8b 45 e8 	movq	-24(%rbp), %rax
   10e57:	48 01 d0 	addq	%rdx, %rax
   10e5a:	48 89 45 f0 	movq	%rax, -16(%rbp)
   10e5e:	48 8b 45 f0 	movq	-16(%rbp), %rax
   10e62:	48 c1 e8 0c 	shrq	$12, %rax
   10e66:	48 89 c2 	movq	%rax, %rdx
   10e69:	48 8b 35 80 25 00 00 	movq	9600(%rip), %rsi
   10e70:	48 8b 05 81 25 00 00 	movq	9601(%rip), %rax
   10e77:	b9 00 00 00 00 	movl	$0, %ecx
   10e7c:	48 89 f7 	movq	%rsi, %rdi
   10e7f:	48 89 c6 	movq	%rax, %rsi
   10e82:	e8 5d fd ff ff 	callq	-675 <bitmapSet>
   10e87:	48 83 45 f8 01 	addq	$1, -8(%rbp)
   10e8c:	48 8b 45 f8 	movq	-8(%rbp), %rax
   10e90:	48 3b 45 e0 	cmpq	-32(%rbp), %rax
   10e94:	72 b2 	jb	-78 <unreservePages+0x24>
   10e96:	eb 01 	jmp	1 <unreservePages+0x75>
   10e98:	90 	nop
   10e99:	c9 	leave
   10e9a:	c3 	retq

isPageReserved:
   10e9b:	55 	pushq	%rbp
   10e9c:	48 89 e5 	movq	%rsp, %rbp
   10e9f:	48 83 ec 10 	subq	$16, %rsp
   10ea3:	48 89 7d f8 	movq	%rdi, -8(%rbp)
   10ea7:	8b 05 53 25 00 00 	movl	9555(%rip), %eax
   10ead:	85 c0 	testl	%eax, %eax
   10eaf:	75 07 	jne	7 <isPageReserved+0x1d>
   10eb1:	b8 00 00 00 00 	movl	$0, %eax
   10eb6:	eb 1d 	jmp	29 <isPageReserved+0x3a>
   10eb8:	48 8b 55 f8 	movq	-8(%rbp), %rdx
   10ebc:	48 8b 0d 2d 25 00 00 	movq	9517(%rip), %rcx
   10ec3:	48 8b 05 2e 25 00 00 	movq	9518(%rip), %rax
   10eca:	48 89 cf 	movq	%rcx, %rdi
   10ecd:	48 89 c6 	movq	%rax, %rsi
   10ed0:	e8 b3 fc ff ff 	callq	-845 <bitmapGet>
   10ed5:	c9 	leave
   10ed6:	c3 	retq

firstUnreservedPage:
   10ed7:	55 	pushq	%rbp
   10ed8:	48 89 e5 	movq	%rsp, %rbp
   10edb:	8b 05 1f 25 00 00 	movl	9503(%rip), %eax
   10ee1:	85 c0 	testl	%eax, %eax
   10ee3:	75 07 	jne	7 <firstUnreservedPage+0x15>
   10ee5:	b8 00 00 00 00 	movl	$0, %eax
   10eea:	eb 19 	jmp	25 <firstUnreservedPage+0x2e>
   10eec:	48 8b 15 fd 24 00 00 	movq	9469(%rip), %rdx
   10ef3:	48 8b 05 fe 24 00 00 	movq	9470(%rip), %rax
   10efa:	48 89 d7 	movq	%rdx, %rdi
   10efd:	48 89 c6 	movq	%rax, %rsi
   10f00:	e8 97 fd ff ff 	callq	-617 <bitmapFirstZeriBit>
   10f05:	5d 	popq	%rbp
   10f06:	c3 	retq

RequestPhysicalPage:
   10f07:	55 	pushq	%rbp
   10f08:	48 89 e5 	movq	%rsp, %rbp
   10f0b:	48 83 ec 10 	subq	$16, %rsp
   10f0f:	8b 05 eb 24 00 00 	movl	9451(%rip), %eax
   10f15:	85 c0 	testl	%eax, %eax
   10f17:	75 07 	jne	7 <RequestPhysicalPage+0x19>
   10f19:	b8 00 00 00 00 	movl	$0, %eax
   10f1e:	eb 34 	jmp	52 <RequestPhysicalPage+0x4d>
   10f20:	b8 00 00 00 00 	movl	$0, %eax
   10f25:	e8 ad ff ff ff 	callq	-83 <firstUnreservedPage>
   10f2a:	48 89 45 f8 	movq	%rax, -8(%rbp)
   10f2e:	48 83 7d f8 ff 	cmpq	$-1, -8(%rbp)
   10f33:	75 02 	jne	2 <RequestPhysicalPage+0x30>
   10f35:	eb fe 	jmp	-2 <RequestPhysicalPage+0x2e>
   10f37:	48 8b 45 f8 	movq	-8(%rbp), %rax
   10f3b:	48 c1 e0 0c 	shlq	$12, %rax
   10f3f:	be 01 00 00 00 	movl	$1, %esi
   10f44:	48 89 c7 	movq	%rax, %rdi
   10f47:	e8 61 fe ff ff 	callq	-415 <reservePages>
   10f4c:	48 8b 45 f8 	movq	-8(%rbp), %rax
   10f50:	48 c1 e0 0c 	shlq	$12, %rax
   10f54:	c9 	leave
   10f55:	c3 	retq
   10f56:	66 2e 0f 1f 84 00 00 00 00 00 	nopw	%cs:(%rax,%rax)

loadGDT:
   10f60:	fa 	cli
   10f61:	0f 01 17 	lgdtq	(%rdi)
   10f64:	66 b8 10 00 	movw	$16, %ax
   10f68:	8e c0 	movl	%eax, %es
   10f6a:	8e e8 	movl	%eax, %gs
   10f6c:	8e d8 	movl	%eax, %ds
   10f6e:	8e e0 	movl	%eax, %fs
   10f70:	5f 	popq	%rdi
   10f71:	b8 08 00 00 00 	movl	$8, %eax
   10f76:	50 	pushq	%rax
   10f77:	57 	pushq	%rdi
   10f78:	48 cb 	lretq

initGDT:
   10f7a:	55 	pushq	%rbp
   10f7b:	48 89 e5 	movq	%rsp, %rbp
   10f7e:	48 83 ec 10 	subq	$16, %rsp
   10f82:	48 c7 45 f8 20 34 01 00 	movq	$78880, -8(%rbp)
   10f8a:	66 c7 45 f6 2f 00 	movw	$47, -10(%rbp)
   10f90:	48 8b 45 f8 	movq	-8(%rbp), %rax
   10f94:	41 b9 00 00 00 00 	movl	$0, %r9d
   10f9a:	41 b8 00 00 00 00 	movl	$0, %r8d
   10fa0:	b9 00 00 00 00 	movl	$0, %ecx
   10fa5:	ba 00 00 00 00 	movl	$0, %edx
   10faa:	be 00 00 00 00 	movl	$0, %esi
   10faf:	48 89 c7 	movq	%rax, %rdi
   10fb2:	b8 00 00 00 00 	movl	$0, %eax
   10fb7:	e8 bf 00 00 00 	callq	191 <gdtSetEntry>
   10fbc:	48 8b 45 f8 	movq	-8(%rbp), %rax
   10fc0:	41 b9 a0 00 00 00 	movl	$160, %r9d
   10fc6:	41 b8 9a 00 00 00 	movl	$154, %r8d
   10fcc:	b9 00 00 00 00 	movl	$0, %ecx
   10fd1:	ba 00 00 00 00 	movl	$0, %edx
   10fd6:	be 01 00 00 00 	movl	$1, %esi
   10fdb:	48 89 c7 	movq	%rax, %rdi
   10fde:	b8 00 00 00 00 	movl	$0, %eax
   10fe3:	e8 93 00 00 00 	callq	147 <gdtSetEntry>
   10fe8:	48 8b 45 f8 	movq	-8(%rbp), %rax
   10fec:	41 b9 a0 00 00 00 	movl	$160, %r9d
   10ff2:	41 b8 92 00 00 00 	movl	$146, %r8d
   10ff8:	b9 00 00 00 00 	movl	$0, %ecx
   10ffd:	ba 00 00 00 00 	movl	$0, %edx
   11002:	be 02 00 00 00 	movl	$2, %esi
   11007:	48 89 c7 	movq	%rax, %rdi
   1100a:	b8 00 00 00 00 	movl	$0, %eax
   1100f:	e8 67 00 00 00 	callq	103 <gdtSetEntry>
   11014:	48 8b 45 f8 	movq	-8(%rbp), %rax
   11018:	41 b9 a0 00 00 00 	movl	$160, %r9d
   1101e:	41 b8 f2 00 00 00 	movl	$242, %r8d
   11024:	b9 00 00 00 00 	movl	$0, %ecx
   11029:	ba 00 00 00 00 	movl	$0, %edx
   1102e:	be 03 00 00 00 	movl	$3, %esi
   11033:	48 89 c7 	movq	%rax, %rdi
   11036:	b8 00 00 00 00 	movl	$0, %eax
   1103b:	e8 3b 00 00 00 	callq	59 <gdtSetEntry>
   11040:	48 8b 45 f8 	movq	-8(%rbp), %rax
   11044:	41 b9 a0 00 00 00 	movl	$160, %r9d
   1104a:	41 b8 fa 00 00 00 	movl	$250, %r8d
   11050:	b9 00 00 00 00 	movl	$0, %ecx
   11055:	ba 00 00 00 00 	movl	$0, %edx
   1105a:	be 04 00 00 00 	movl	$4, %esi
   1105f:	48 89 c7 	movq	%rax, %rdi
   11062:	b8 00 00 00 00 	movl	$0, %eax
   11067:	e8 0f 00 00 00 	callq	15 <gdtSetEntry>
   1106c:	48 8d 45 f6 	leaq	-10(%rbp), %rax
   11070:	48 89 c7 	movq	%rax, %rdi
   11073:	e8 e8 fe ff ff 	callq	-280 <loadGDT>
   11078:	90 	nop
   11079:	c9 	leave
   1107a:	c3 	retq

gdtSetEntry:
   1107b:	55 	pushq	%rbp
   1107c:	48 89 e5 	movq	%rsp, %rbp
   1107f:	48 89 7d f8 	movq	%rdi, -8(%rbp)
   11083:	89 f0 	movl	%esi, %eax
   11085:	48 89 55 e8 	movq	%rdx, -24(%rbp)
   11089:	89 4d f0 	movl	%ecx, -16(%rbp)
   1108c:	44 89 c1 	movl	%r8d, %ecx
   1108f:	44 89 ca 	movl	%r9d, %edx
   11092:	88 45 f4 	movb	%al, -12(%rbp)
   11095:	89 c8 	movl	%ecx, %eax
   11097:	88 45 e4 	movb	%al, -28(%rbp)
   1109a:	89 d0 	movl	%edx, %eax
   1109c:	88 45 e0 	movb	%al, -32(%rbp)
   1109f:	0f b6 45 f4 	movzbl	-12(%rbp), %eax
   110a3:	48 8d 14 c5 00 00 00 00 	leaq	(,%rax,8), %rdx
   110ab:	48 8b 45 f8 	movq	-8(%rbp), %rax
   110af:	48 01 d0 	addq	%rdx, %rax
   110b2:	48 8b 55 e8 	movq	-24(%rbp), %rdx
   110b6:	66 89 50 02 	movw	%dx, 2(%rax)
   110ba:	48 8b 45 e8 	movq	-24(%rbp), %rax
   110be:	48 c1 e8 10 	shrq	$16, %rax
   110c2:	48 89 c2 	movq	%rax, %rdx
   110c5:	0f b6 45 f4 	movzbl	-12(%rbp), %eax
   110c9:	48 8d 0c c5 00 00 00 00 	leaq	(,%rax,8), %rcx
   110d1:	48 8b 45 f8 	movq	-8(%rbp), %rax
   110d5:	48 01 c8 	addq	%rcx, %rax
   110d8:	88 50 04 	movb	%dl, 4(%rax)
   110db:	48 8b 45 e8 	movq	-24(%rbp), %rax
   110df:	48 c1 e8 18 	shrq	$24, %rax
   110e3:	48 89 c2 	movq	%rax, %rdx
   110e6:	0f b6 45 f4 	movzbl	-12(%rbp), %eax
   110ea:	48 8d 0c c5 00 00 00 00 	leaq	(,%rax,8), %rcx
   110f2:	48 8b 45 f8 	movq	-8(%rbp), %rax
   110f6:	48 01 c8 	addq	%rcx, %rax
   110f9:	88 50 07 	movb	%dl, 7(%rax)
   110fc:	0f b6 45 f4 	movzbl	-12(%rbp), %eax
   11100:	48 8d 14 c5 00 00 00 00 	leaq	(,%rax,8), %rdx
   11108:	48 8b 45 f8 	movq	-8(%rbp), %rax
   1110c:	48 01 d0 	addq	%rdx, %rax
   1110f:	8b 55 f0 	movl	-16(%rbp), %edx
   11112:	66 89 10 	movw	%dx, (%rax)
   11115:	8b 45 f0 	movl	-16(%rbp), %eax
   11118:	c1 e8 10 	shrl	$16, %eax
   1111b:	89 c2 	movl	%eax, %edx
   1111d:	0f b6 45 f4 	movzbl	-12(%rbp), %eax
   11121:	48 8d 0c c5 00 00 00 00 	leaq	(,%rax,8), %rcx
   11129:	48 8b 45 f8 	movq	-8(%rbp), %rax
   1112d:	48 01 c8 	addq	%rcx, %rax
   11130:	83 e2 0f 	andl	$15, %edx
   11133:	88 50 06 	movb	%dl, 6(%rax)
   11136:	0f b6 45 f4 	movzbl	-12(%rbp), %eax
   1113a:	48 8d 14 c5 00 00 00 00 	leaq	(,%rax,8), %rdx
   11142:	48 8b 45 f8 	movq	-8(%rbp), %rax
   11146:	48 01 d0 	addq	%rdx, %rax
   11149:	0f b6 40 06 	movzbl	6(%rax), %eax
   1114d:	89 c2 	movl	%eax, %edx
   1114f:	0f b6 45 e0 	movzbl	-32(%rbp), %eax
   11153:	83 e0 f0 	andl	$-16, %eax
   11156:	09 c2 	orl	%eax, %edx
   11158:	0f b6 45 f4 	movzbl	-12(%rbp), %eax
   1115c:	48 8d 0c c5 00 00 00 00 	leaq	(,%rax,8), %rcx
   11164:	48 8b 45 f8 	movq	-8(%rbp), %rax
   11168:	48 01 c8 	addq	%rcx, %rax
   1116b:	88 50 06 	movb	%dl, 6(%rax)
   1116e:	0f b6 45 f4 	movzbl	-12(%rbp), %eax
   11172:	48 8d 14 c5 00 00 00 00 	leaq	(,%rax,8), %rdx
   1117a:	48 8b 45 f8 	movq	-8(%rbp), %rax
   1117e:	48 01 c2 	addq	%rax, %rdx
   11181:	0f b6 45 e4 	movzbl	-28(%rbp), %eax
   11185:	88 42 05 	movb	%al, 5(%rdx)
   11188:	90 	nop
   11189:	5d 	popq	%rbp
   1118a:	c3 	retq

initPaging:
   1118b:	55 	pushq	%rbp
   1118c:	48 89 e5 	movq	%rsp, %rbp
   1118f:	48 83 ec 20 	subq	$32, %rsp
   11193:	b8 00 00 00 00 	movl	$0, %eax
   11198:	e8 6a fd ff ff 	callq	-662 <RequestPhysicalPage>
   1119d:	48 89 45 e0 	movq	%rax, -32(%rbp)
   111a1:	48 8b 45 e0 	movq	-32(%rbp), %rax
   111a5:	48 89 c7 	movq	%rax, %rdi
   111a8:	b8 00 00 00 00 	movl	$0, %eax
   111ad:	e8 04 08 00 00 	callq	2052 <setAsCurrentPML4>
   111b2:	48 c7 45 f8 00 00 00 00 	movq	$0, -8(%rbp)
   111ba:	48 c7 45 f0 00 00 30 00 	movq	$3145728, -16(%rbp)
   111c2:	48 c7 45 e8 00 00 00 00 	movq	$0, -24(%rbp)
   111ca:	eb 2e 	jmp	46 <initPaging+0x6f>
   111cc:	48 8b 55 f8 	movq	-8(%rbp), %rdx
   111d0:	48 8b 75 f8 	movq	-8(%rbp), %rsi
   111d4:	48 8b 45 e0 	movq	-32(%rbp), %rax
   111d8:	b9 03 00 00 00 	movl	$3, %ecx
   111dd:	48 89 c7 	movq	%rax, %rdi
   111e0:	e8 c1 00 00 00 	callq	193 <mapPhysicalToVirtualAddr>
   111e5:	48 81 45 f8 00 10 00 00 	addq	$4096, -8(%rbp)
   111ed:	48 81 6d f0 00 10 00 00 	subq	$4096, -16(%rbp)
   111f5:	48 83 45 e8 01 	addq	$1, -24(%rbp)
   111fa:	48 83 7d f0 00 	cmpq	$0, -16(%rbp)
   111ff:	75 cb 	jne	-53 <initPaging+0x41>
   11201:	8b 05 c6 21 00 00 	movl	8646(%rip), %eax
   11207:	89 c0 	movl	%eax, %eax
   11209:	48 89 45 f8 	movq	%rax, -8(%rbp)
   1120d:	0f b7 05 ae 21 00 00 	movzwl	8622(%rip), %eax
   11214:	0f b7 d0 	movzwl	%ax, %edx
   11217:	0f b7 05 a6 21 00 00 	movzwl	8614(%rip), %eax
   1121e:	0f b7 c0 	movzwl	%ax, %eax
   11221:	0f af d0 	imull	%eax, %edx
   11224:	0f b6 05 9b 21 00 00 	movzbl	8603(%rip), %eax
   1122b:	0f b6 c0 	movzbl	%al, %eax
   1122e:	0f af c2 	imull	%edx, %eax
   11231:	8d 50 07 	leal	7(%rax), %edx
   11234:	85 c0 	testl	%eax, %eax
   11236:	0f 48 c2 	cmovsl	%edx, %eax
   11239:	c1 f8 03 	sarl	$3, %eax
   1123c:	48 98 	cltq
   1123e:	48 89 45 f0 	movq	%rax, -16(%rbp)
   11242:	48 c7 45 e8 00 00 00 00 	movq	$0, -24(%rbp)
   1124a:	eb 2e 	jmp	46 <initPaging+0xef>
   1124c:	48 8b 55 f8 	movq	-8(%rbp), %rdx
   11250:	48 8b 75 f8 	movq	-8(%rbp), %rsi
   11254:	48 8b 45 e0 	movq	-32(%rbp), %rax
   11258:	b9 03 00 00 00 	movl	$3, %ecx
   1125d:	48 89 c7 	movq	%rax, %rdi
   11260:	e8 41 00 00 00 	callq	65 <mapPhysicalToVirtualAddr>
   11265:	48 81 45 f8 00 10 00 00 	addq	$4096, -8(%rbp)
   1126d:	48 81 6d f0 00 10 00 00 	subq	$4096, -16(%rbp)
   11275:	48 83 45 e8 01 	addq	$1, -24(%rbp)
   1127a:	48 83 7d f0 00 	cmpq	$0, -16(%rbp)
   1127f:	75 cb 	jne	-53 <initPaging+0xc1>
   11281:	48 8b 45 e0 	movq	-32(%rbp), %rax
   11285:	48 89 c7 	movq	%rax, %rdi
   11288:	b8 00 00 00 00 	movl	$0, %eax
   1128d:	e8 47 07 00 00 	callq	1863 <loadCurrentPML4>
   11292:	48 8b 45 e0 	movq	-32(%rbp), %rax
   11296:	48 89 c7 	movq	%rax, %rdi
   11299:	b8 00 00 00 00 	movl	$0, %eax
   1129e:	e8 13 07 00 00 	callq	1811 <setAsCurrentPML4>
   112a3:	90 	nop
   112a4:	c9 	leave
   112a5:	c3 	retq

mapPhysicalToVirtualAddr:
   112a6:	55 	pushq	%rbp
   112a7:	48 89 e5 	movq	%rsp, %rbp
   112aa:	48 83 ec 50 	subq	$80, %rsp
   112ae:	48 89 7d c8 	movq	%rdi, -56(%rbp)
   112b2:	48 89 75 c0 	movq	%rsi, -64(%rbp)
   112b6:	48 89 55 b8 	movq	%rdx, -72(%rbp)
   112ba:	89 4d b4 	movl	%ecx, -76(%rbp)
   112bd:	48 c1 6d b8 0c 	shrq	$12, -72(%rbp)
   112c2:	48 8b 45 b8 	movq	-72(%rbp), %rax
   112c6:	25 ff 01 00 00 	andl	$511, %eax
   112cb:	89 45 e4 	movl	%eax, -28(%rbp)
   112ce:	48 c1 6d b8 09 	shrq	$9, -72(%rbp)
   112d3:	48 8b 45 b8 	movq	-72(%rbp), %rax
   112d7:	25 ff 01 00 00 	andl	$511, %eax
   112dc:	89 45 e0 	movl	%eax, -32(%rbp)
   112df:	48 c1 6d b8 09 	shrq	$9, -72(%rbp)
   112e4:	48 8b 45 b8 	movq	-72(%rbp), %rax
   112e8:	25 ff 01 00 00 	andl	$511, %eax
   112ed:	89 45 dc 	movl	%eax, -36(%rbp)
   112f0:	48 c1 6d b8 09 	shrq	$9, -72(%rbp)
   112f5:	48 8b 45 b8 	movq	-72(%rbp), %rax
   112f9:	25 ff 01 00 00 	andl	$511, %eax
   112fe:	89 45 d8 	movl	%eax, -40(%rbp)
   11301:	48 8b 45 c8 	movq	-56(%rbp), %rax
   11305:	8b 55 d8 	movl	-40(%rbp), %edx
   11308:	0f b6 04 d0 	movzbl	(%rax,%rdx,8), %eax
   1130c:	83 e0 01 	andl	$1, %eax
   1130f:	84 c0 	testb	%al, %al
   11311:	0f 85 c2 00 00 00 	jne	194 <mapPhysicalToVirtualAddr+0x133>
   11317:	b8 00 00 00 00 	movl	$0, %eax
   1131c:	e8 e6 fb ff ff 	callq	-1050 <RequestPhysicalPage>
   11321:	48 89 45 f8 	movq	%rax, -8(%rbp)
   11325:	48 8b 45 f8 	movq	-8(%rbp), %rax
   11329:	ba 00 10 00 00 	movl	$4096, %edx
   1132e:	be 00 00 00 00 	movl	$0, %esi
   11333:	48 89 c7 	movq	%rax, %rdi
   11336:	e8 56 f5 ff ff 	callq	-2730 <memset>
   1133b:	48 8b 45 c8 	movq	-56(%rbp), %rax
   1133f:	8b 55 d8 	movl	-40(%rbp), %edx
   11342:	0f b6 0c d0 	movzbl	(%rax,%rdx,8), %ecx
   11346:	83 c9 01 	orl	$1, %ecx
   11349:	88 0c d0 	movb	%cl, (%rax,%rdx,8)
   1134c:	48 8b 45 c8 	movq	-56(%rbp), %rax
   11350:	8b 55 d8 	movl	-40(%rbp), %edx
   11353:	0f b6 0c d0 	movzbl	(%rax,%rdx,8), %ecx
   11357:	83 c9 02 	orl	$2, %ecx
   1135a:	88 0c d0 	movb	%cl, (%rax,%rdx,8)
   1135d:	48 8b 45 f8 	movq	-8(%rbp), %rax
   11361:	48 c1 e8 0c 	shrq	$12, %rax
   11365:	89 c1 	movl	%eax, %ecx
   11367:	81 e1 ff ff ff 0f 	andl	$268435455, %ecx
   1136d:	48 8b 45 c8 	movq	-56(%rbp), %rax
   11371:	8b 55 d8 	movl	-40(%rbp), %edx
   11374:	89 ce 	movl	%ecx, %esi
   11376:	83 e6 0f 	andl	$15, %esi
   11379:	89 f7 	movl	%esi, %edi
   1137b:	c1 e7 04 	shll	$4, %edi
   1137e:	0f b6 74 d0 01 	movzbl	1(%rax,%rdx,8), %esi
   11383:	83 e6 0f 	andl	$15, %esi
   11386:	09 fe 	orl	%edi, %esi
   11388:	40 88 74 d0 01 	movb	%sil, 1(%rax,%rdx,8)
   1138d:	89 ce 	movl	%ecx, %esi
   1138f:	c1 ee 04 	shrl	$4, %esi
   11392:	89 f6 	movl	%esi, %esi
   11394:	40 0f b6 fe 	movzbl	%sil, %edi
   11398:	0f b6 74 d0 02 	movzbl	2(%rax,%rdx,8), %esi
   1139d:	83 e6 00 	andl	$0, %esi
   113a0:	09 fe 	orl	%edi, %esi
   113a2:	40 88 74 d0 02 	movb	%sil, 2(%rax,%rdx,8)
   113a7:	89 ce 	movl	%ecx, %esi
   113a9:	c1 ee 0c 	shrl	$12, %esi
   113ac:	89 f6 	movl	%esi, %esi
   113ae:	40 0f b6 fe 	movzbl	%sil, %edi
   113b2:	0f b6 74 d0 03 	movzbl	3(%rax,%rdx,8), %esi
   113b7:	83 e6 00 	andl	$0, %esi
   113ba:	09 fe 	orl	%edi, %esi
   113bc:	40 88 74 d0 03 	movb	%sil, 3(%rax,%rdx,8)
   113c1:	c1 e9 14 	shrl	$20, %ecx
   113c4:	89 c9 	movl	%ecx, %ecx
   113c6:	0f b6 f1 	movzbl	%cl, %esi
   113c9:	0f b6 4c d0 04 	movzbl	4(%rax,%rdx,8), %ecx
   113ce:	83 e1 00 	andl	$0, %ecx
   113d1:	09 f1 	orl	%esi, %ecx
   113d3:	88 4c d0 04 	movb	%cl, 4(%rax,%rdx,8)
   113d7:	eb 3f 	jmp	63 <mapPhysicalToVirtualAddr+0x172>
   113d9:	48 8b 45 c8 	movq	-56(%rbp), %rax
   113dd:	8b 55 d8 	movl	-40(%rbp), %edx
   113e0:	0f b6 4c d0 01 	movzbl	1(%rax,%rdx,8), %ecx
   113e5:	c0 e9 04 	shrb	$4, %cl
   113e8:	0f b6 f1 	movzbl	%cl, %esi
   113eb:	0f b6 4c d0 02 	movzbl	2(%rax,%rdx,8), %ecx
   113f0:	48 c1 e1 04 	shlq	$4, %rcx
   113f4:	48 09 ce 	orq	%rcx, %rsi
   113f7:	0f b6 4c d0 03 	movzbl	3(%rax,%rdx,8), %ecx
   113fc:	48 c1 e1 0c 	shlq	$12, %rcx
   11400:	48 09 f1 	orq	%rsi, %rcx
   11403:	0f b6 44 d0 04 	movzbl	4(%rax,%rdx,8), %eax
   11408:	48 c1 e0 14 	shlq	$20, %rax
   1140c:	48 09 c8 	orq	%rcx, %rax
   1140f:	c1 e0 0c 	shll	$12, %eax
   11412:	48 98 	cltq
   11414:	48 89 45 f8 	movq	%rax, -8(%rbp)
   11418:	48 8b 45 f8 	movq	-8(%rbp), %rax
   1141c:	8b 55 dc 	movl	-36(%rbp), %edx
   1141f:	0f b6 04 d0 	movzbl	(%rax,%rdx,8), %eax
   11423:	83 e0 01 	andl	$1, %eax
   11426:	84 c0 	testb	%al, %al
   11428:	0f 85 c2 00 00 00 	jne	194 <mapPhysicalToVirtualAddr+0x24a>
   1142e:	b8 00 00 00 00 	movl	$0, %eax
   11433:	e8 cf fa ff ff 	callq	-1329 <RequestPhysicalPage>
   11438:	48 89 45 f0 	movq	%rax, -16(%rbp)
   1143c:	48 8b 45 f0 	movq	-16(%rbp), %rax
   11440:	ba 00 10 00 00 	movl	$4096, %edx
   11445:	be 00 00 00 00 	movl	$0, %esi
   1144a:	48 89 c7 	movq	%rax, %rdi
   1144d:	e8 3f f4 ff ff 	callq	-3009 <memset>
   11452:	48 8b 45 f8 	movq	-8(%rbp), %rax
   11456:	8b 55 dc 	movl	-36(%rbp), %edx
   11459:	0f b6 0c d0 	movzbl	(%rax,%rdx,8), %ecx
   1145d:	83 c9 01 	orl	$1, %ecx
   11460:	88 0c d0 	movb	%cl, (%rax,%rdx,8)
   11463:	48 8b 45 f8 	movq	-8(%rbp), %rax
   11467:	8b 55 dc 	movl	-36(%rbp), %edx
   1146a:	0f b6 0c d0 	movzbl	(%rax,%rdx,8), %ecx
   1146e:	83 c9 02 	orl	$2, %ecx
   11471:	88 0c d0 	movb	%cl, (%rax,%rdx,8)
   11474:	48 8b 45 f0 	movq	-16(%rbp), %rax
   11478:	48 c1 e8 0c 	shrq	$12, %rax
   1147c:	89 c1 	movl	%eax, %ecx
   1147e:	81 e1 ff ff ff 0f 	andl	$268435455, %ecx
   11484:	48 8b 45 f8 	movq	-8(%rbp), %rax
   11488:	8b 55 dc 	movl	-36(%rbp), %edx
   1148b:	89 ce 	movl	%ecx, %esi
   1148d:	83 e6 0f 	andl	$15, %esi
   11490:	89 f7 	movl	%esi, %edi
   11492:	c1 e7 04 	shll	$4, %edi
   11495:	0f b6 74 d0 01 	movzbl	1(%rax,%rdx,8), %esi
   1149a:	83 e6 0f 	andl	$15, %esi
   1149d:	09 fe 	orl	%edi, %esi
   1149f:	40 88 74 d0 01 	movb	%sil, 1(%rax,%rdx,8)
   114a4:	89 ce 	movl	%ecx, %esi
   114a6:	c1 ee 04 	shrl	$4, %esi
   114a9:	89 f6 	movl	%esi, %esi
   114ab:	40 0f b6 fe 	movzbl	%sil, %edi
   114af:	0f b6 74 d0 02 	movzbl	2(%rax,%rdx,8), %esi
   114b4:	83 e6 00 	andl	$0, %esi
   114b7:	09 fe 	orl	%edi, %esi
   114b9:	40 88 74 d0 02 	movb	%sil, 2(%rax,%rdx,8)
   114be:	89 ce 	movl	%ecx, %esi
   114c0:	c1 ee 0c 	shrl	$12, %esi
   114c3:	89 f6 	movl	%esi, %esi
   114c5:	40 0f b6 fe 	movzbl	%sil, %edi
   114c9:	0f b6 74 d0 03 	movzbl	3(%rax,%rdx,8), %esi
   114ce:	83 e6 00 	andl	$0, %esi
   114d1:	09 fe 	orl	%edi, %esi
   114d3:	40 88 74 d0 03 	movb	%sil, 3(%rax,%rdx,8)
   114d8:	c1 e9 14 	shrl	$20, %ecx
   114db:	89 c9 	movl	%ecx, %ecx
   114dd:	0f b6 f1 	movzbl	%cl, %esi
   114e0:	0f b6 4c d0 04 	movzbl	4(%rax,%rdx,8), %ecx
   114e5:	83 e1 00 	andl	$0, %ecx
   114e8:	09 f1 	orl	%esi, %ecx
   114ea:	88 4c d0 04 	movb	%cl, 4(%rax,%rdx,8)
   114ee:	eb 3f 	jmp	63 <mapPhysicalToVirtualAddr+0x289>
   114f0:	48 8b 45 f8 	movq	-8(%rbp), %rax
   114f4:	8b 55 dc 	movl	-36(%rbp), %edx
   114f7:	0f b6 4c d0 01 	movzbl	1(%rax,%rdx,8), %ecx
   114fc:	c0 e9 04 	shrb	$4, %cl
   114ff:	0f b6 f1 	movzbl	%cl, %esi
   11502:	0f b6 4c d0 02 	movzbl	2(%rax,%rdx,8), %ecx
   11507:	48 c1 e1 04 	shlq	$4, %rcx
   1150b:	48 09 ce 	orq	%rcx, %rsi
   1150e:	0f b6 4c d0 03 	movzbl	3(%rax,%rdx,8), %ecx
   11513:	48 c1 e1 0c 	shlq	$12, %rcx
   11517:	48 09 f1 	orq	%rsi, %rcx
   1151a:	0f b6 44 d0 04 	movzbl	4(%rax,%rdx,8), %eax
   1151f:	48 c1 e0 14 	shlq	$20, %rax
   11523:	48 09 c8 	orq	%rcx, %rax
   11526:	c1 e0 0c 	shll	$12, %eax
   11529:	48 98 	cltq
   1152b:	48 89 45 f0 	movq	%rax, -16(%rbp)
   1152f:	48 8b 45 f0 	movq	-16(%rbp), %rax
   11533:	8b 55 e0 	movl	-32(%rbp), %edx
   11536:	0f b6 04 d0 	movzbl	(%rax,%rdx,8), %eax
   1153a:	83 e0 01 	andl	$1, %eax
   1153d:	84 c0 	testb	%al, %al
   1153f:	0f 85 c2 00 00 00 	jne	194 <mapPhysicalToVirtualAddr+0x361>
   11545:	b8 00 00 00 00 	movl	$0, %eax
   1154a:	e8 b8 f9 ff ff 	callq	-1608 <RequestPhysicalPage>
   1154f:	48 89 45 e8 	movq	%rax, -24(%rbp)
   11553:	48 8b 45 e8 	movq	-24(%rbp), %rax
   11557:	ba 00 10 00 00 	movl	$4096, %edx
   1155c:	be 00 00 00 00 	movl	$0, %esi
   11561:	48 89 c7 	movq	%rax, %rdi
   11564:	e8 28 f3 ff ff 	callq	-3288 <memset>
   11569:	48 8b 45 f0 	movq	-16(%rbp), %rax
   1156d:	8b 55 e0 	movl	-32(%rbp), %edx
   11570:	0f b6 0c d0 	movzbl	(%rax,%rdx,8), %ecx
   11574:	83 c9 01 	orl	$1, %ecx
   11577:	88 0c d0 	movb	%cl, (%rax,%rdx,8)
   1157a:	48 8b 45 f0 	movq	-16(%rbp), %rax
   1157e:	8b 55 e0 	movl	-32(%rbp), %edx
   11581:	0f b6 0c d0 	movzbl	(%rax,%rdx,8), %ecx
   11585:	83 c9 02 	orl	$2, %ecx
   11588:	88 0c d0 	movb	%cl, (%rax,%rdx,8)
   1158b:	48 8b 45 e8 	movq	-24(%rbp), %rax
   1158f:	48 c1 e8 0c 	shrq	$12, %rax
   11593:	89 c1 	movl	%eax, %ecx
   11595:	81 e1 ff ff ff 0f 	andl	$268435455, %ecx
   1159b:	48 8b 45 f0 	movq	-16(%rbp), %rax
   1159f:	8b 55 e0 	movl	-32(%rbp), %edx
   115a2:	89 ce 	movl	%ecx, %esi
   115a4:	83 e6 0f 	andl	$15, %esi
   115a7:	89 f7 	movl	%esi, %edi
   115a9:	c1 e7 04 	shll	$4, %edi
   115ac:	0f b6 74 d0 01 	movzbl	1(%rax,%rdx,8), %esi
   115b1:	83 e6 0f 	andl	$15, %esi
   115b4:	09 fe 	orl	%edi, %esi
   115b6:	40 88 74 d0 01 	movb	%sil, 1(%rax,%rdx,8)
   115bb:	89 ce 	movl	%ecx, %esi
   115bd:	c1 ee 04 	shrl	$4, %esi
   115c0:	89 f6 	movl	%esi, %esi
   115c2:	40 0f b6 fe 	movzbl	%sil, %edi
   115c6:	0f b6 74 d0 02 	movzbl	2(%rax,%rdx,8), %esi
   115cb:	83 e6 00 	andl	$0, %esi
   115ce:	09 fe 	orl	%edi, %esi
   115d0:	40 88 74 d0 02 	movb	%sil, 2(%rax,%rdx,8)
   115d5:	89 ce 	movl	%ecx, %esi
   115d7:	c1 ee 0c 	shrl	$12, %esi
   115da:	89 f6 	movl	%esi, %esi
   115dc:	40 0f b6 fe 	movzbl	%sil, %edi
   115e0:	0f b6 74 d0 03 	movzbl	3(%rax,%rdx,8), %esi
   115e5:	83 e6 00 	andl	$0, %esi
   115e8:	09 fe 	orl	%edi, %esi
   115ea:	40 88 74 d0 03 	movb	%sil, 3(%rax,%rdx,8)
   115ef:	c1 e9 14 	shrl	$20, %ecx
   115f2:	89 c9 	movl	%ecx, %ecx
   115f4:	0f b6 f1 	movzbl	%cl, %esi
   115f7:	0f b6 4c d0 04 	movzbl	4(%rax,%rdx,8), %ecx
   115fc:	83 e1 00 	andl	$0, %ecx
   115ff:	09 f1 	orl	%esi, %ecx
   11601:	88 4c d0 04 	movb	%cl, 4(%rax,%rdx,8)
   11605:	eb 3f 	jmp	63 <mapPhysicalToVirtualAddr+0x3a0>
   11607:	48 8b 45 f0 	movq	-16(%rbp), %rax
   1160b:	8b 55 e0 	movl	-32(%rbp), %edx
   1160e:	0f b6 4c d0 01 	movzbl	1(%rax,%rdx,8), %ecx
   11613:	c0 e9 04 	shrb	$4, %cl
   11616:	0f b6 f1 	movzbl	%cl, %esi
   11619:	0f b6 4c d0 02 	movzbl	2(%rax,%rdx,8), %ecx
   1161e:	48 c1 e1 04 	shlq	$4, %rcx
   11622:	48 09 ce 	orq	%rcx, %rsi
   11625:	0f b6 4c d0 03 	movzbl	3(%rax,%rdx,8), %ecx
   1162a:	48 c1 e1 0c 	shlq	$12, %rcx
   1162e:	48 09 f1 	orq	%rsi, %rcx
   11631:	0f b6 44 d0 04 	movzbl	4(%rax,%rdx,8), %eax
   11636:	48 c1 e0 14 	shlq	$20, %rax
   1163a:	48 09 c8 	orq	%rcx, %rax
   1163d:	c1 e0 0c 	shll	$12, %eax
   11640:	48 98 	cltq
   11642:	48 89 45 e8 	movq	%rax, -24(%rbp)
   11646:	8b 45 b4 	movl	-76(%rbp), %eax
   11649:	83 e0 01 	andl	$1, %eax
   1164c:	48 8b 55 e8 	movq	-24(%rbp), %rdx
   11650:	8b 4d e4 	movl	-28(%rbp), %ecx
   11653:	83 e0 01 	andl	$1, %eax
   11656:	89 c6 	movl	%eax, %esi
   11658:	0f b6 04 ca 	movzbl	(%rdx,%rcx,8), %eax
   1165c:	83 e0 fe 	andl	$-2, %eax
   1165f:	09 f0 	orl	%esi, %eax
   11661:	88 04 ca 	movb	%al, (%rdx,%rcx,8)
   11664:	8b 45 b4 	movl	-76(%rbp), %eax
   11667:	d1 e8 	shrl	%eax
   11669:	83 e0 01 	andl	$1, %eax
   1166c:	48 8b 55 e8 	movq	-24(%rbp), %rdx
   11670:	8b 4d e4 	movl	-28(%rbp), %ecx
   11673:	83 e0 01 	andl	$1, %eax
   11676:	8d 34 00 	leal	(%rax,%rax), %esi
   11679:	0f b6 04 ca 	movzbl	(%rdx,%rcx,8), %eax
   1167d:	83 e0 fd 	andl	$-3, %eax
   11680:	09 f0 	orl	%esi, %eax
   11682:	88 04 ca 	movb	%al, (%rdx,%rcx,8)
   11685:	8b 45 b4 	movl	-76(%rbp), %eax
   11688:	c1 e8 02 	shrl	$2, %eax
   1168b:	83 e0 01 	andl	$1, %eax
   1168e:	48 8b 55 e8 	movq	-24(%rbp), %rdx
   11692:	8b 4d e4 	movl	-28(%rbp), %ecx
   11695:	83 e0 01 	andl	$1, %eax
   11698:	8d 34 85 00 00 00 00 	leal	(,%rax,4), %esi
   1169f:	0f b6 04 ca 	movzbl	(%rdx,%rcx,8), %eax
   116a3:	83 e0 fb 	andl	$-5, %eax
   116a6:	09 f0 	orl	%esi, %eax
   116a8:	88 04 ca 	movb	%al, (%rdx,%rcx,8)
   116ab:	8b 45 b4 	movl	-76(%rbp), %eax
   116ae:	c1 e8 03 	shrl	$3, %eax
   116b1:	83 e0 01 	andl	$1, %eax
   116b4:	48 8b 55 e8 	movq	-24(%rbp), %rdx
   116b8:	8b 4d e4 	movl	-28(%rbp), %ecx
   116bb:	83 e0 01 	andl	$1, %eax
   116be:	8d 34 c5 00 00 00 00 	leal	(,%rax,8), %esi
   116c5:	0f b6 04 ca 	movzbl	(%rdx,%rcx,8), %eax
   116c9:	83 e0 f7 	andl	$-9, %eax
   116cc:	09 f0 	orl	%esi, %eax
   116ce:	88 04 ca 	movb	%al, (%rdx,%rcx,8)
   116d1:	8b 45 b4 	movl	-76(%rbp), %eax
   116d4:	c1 e8 04 	shrl	$4, %eax
   116d7:	83 e0 01 	andl	$1, %eax
   116da:	48 8b 55 e8 	movq	-24(%rbp), %rdx
   116de:	8b 4d e4 	movl	-28(%rbp), %ecx
   116e1:	83 e0 01 	andl	$1, %eax
   116e4:	c1 e0 04 	shll	$4, %eax
   116e7:	89 c6 	movl	%eax, %esi
   116e9:	0f b6 04 ca 	movzbl	(%rdx,%rcx,8), %eax
   116ed:	83 e0 ef 	andl	$-17, %eax
   116f0:	09 f0 	orl	%esi, %eax
   116f2:	88 04 ca 	movb	%al, (%rdx,%rcx,8)
   116f5:	8b 45 b4 	movl	-76(%rbp), %eax
   116f8:	c1 e8 05 	shrl	$5, %eax
   116fb:	83 e0 01 	andl	$1, %eax
   116fe:	48 8b 55 e8 	movq	-24(%rbp), %rdx
   11702:	8b 4d e4 	movl	-28(%rbp), %ecx
   11705:	83 e0 01 	andl	$1, %eax
   11708:	c1 e0 05 	shll	$5, %eax
   1170b:	89 c6 	movl	%eax, %esi
   1170d:	0f b6 04 ca 	movzbl	(%rdx,%rcx,8), %eax
   11711:	83 e0 df 	andl	$-33, %eax
   11714:	09 f0 	orl	%esi, %eax
   11716:	88 04 ca 	movb	%al, (%rdx,%rcx,8)
   11719:	8b 45 b4 	movl	-76(%rbp), %eax
   1171c:	c1 e8 06 	shrl	$6, %eax
   1171f:	83 e0 01 	andl	$1, %eax
   11722:	48 8b 55 e8 	movq	-24(%rbp), %rdx
   11726:	8b 4d e4 	movl	-28(%rbp), %ecx
   11729:	83 e0 01 	andl	$1, %eax
   1172c:	c1 e0 06 	shll	$6, %eax
   1172f:	89 c6 	movl	%eax, %esi
   11731:	0f b6 04 ca 	movzbl	(%rdx,%rcx,8), %eax
   11735:	83 e0 bf 	andl	$-65, %eax
   11738:	09 f0 	orl	%esi, %eax
   1173a:	88 04 ca 	movb	%al, (%rdx,%rcx,8)
   1173d:	48 8b 45 e8 	movq	-24(%rbp), %rax
   11741:	8b 55 e4 	movl	-28(%rbp), %edx
   11744:	0f b6 0c d0 	movzbl	(%rax,%rdx,8), %ecx
   11748:	83 e1 7f 	andl	$127, %ecx
   1174b:	88 0c d0 	movb	%cl, (%rax,%rdx,8)
   1174e:	8b 45 b4 	movl	-76(%rbp), %eax
   11751:	c1 e8 08 	shrl	$8, %eax
   11754:	83 e0 01 	andl	$1, %eax
   11757:	48 8b 55 e8 	movq	-24(%rbp), %rdx
   1175b:	8b 4d e4 	movl	-28(%rbp), %ecx
   1175e:	83 e0 01 	andl	$1, %eax
   11761:	89 c6 	movl	%eax, %esi
   11763:	0f b6 44 ca 01 	movzbl	1(%rdx,%rcx,8), %eax
   11768:	83 e0 fe 	andl	$-2, %eax
   1176b:	09 f0 	orl	%esi, %eax
   1176d:	88 44 ca 01 	movb	%al, 1(%rdx,%rcx,8)
   11771:	48 8b 45 e8 	movq	-24(%rbp), %rax
   11775:	8b 55 e4 	movl	-28(%rbp), %edx
   11778:	0f b6 4c d0 06 	movzbl	6(%rax,%rdx,8), %ecx
   1177d:	83 e1 0f 	andl	$15, %ecx
   11780:	88 4c d0 06 	movb	%cl, 6(%rax,%rdx,8)
   11784:	0f b6 4c d0 07 	movzbl	7(%rax,%rdx,8), %ecx
   11789:	83 e1 f8 	andl	$-8, %ecx
   1178c:	88 4c d0 07 	movb	%cl, 7(%rax,%rdx,8)
   11790:	48 8b 45 c0 	movq	-64(%rbp), %rax
   11794:	48 c1 e8 0c 	shrq	$12, %rax
   11798:	89 c1 	movl	%eax, %ecx
   1179a:	81 e1 ff ff ff 0f 	andl	$268435455, %ecx
   117a0:	48 8b 45 e8 	movq	-24(%rbp), %rax
   117a4:	8b 55 e4 	movl	-28(%rbp), %edx
   117a7:	89 ce 	movl	%ecx, %esi
   117a9:	83 e6 0f 	andl	$15, %esi
   117ac:	89 f7 	movl	%esi, %edi
   117ae:	c1 e7 04 	shll	$4, %edi
   117b1:	0f b6 74 d0 01 	movzbl	1(%rax,%rdx,8), %esi
   117b6:	83 e6 0f 	andl	$15, %esi
   117b9:	09 fe 	orl	%edi, %esi
   117bb:	40 88 74 d0 01 	movb	%sil, 1(%rax,%rdx,8)
   117c0:	89 ce 	movl	%ecx, %esi
   117c2:	c1 ee 04 	shrl	$4, %esi
   117c5:	89 f6 	movl	%esi, %esi
   117c7:	40 0f b6 fe 	movzbl	%sil, %edi
   117cb:	0f b6 74 d0 02 	movzbl	2(%rax,%rdx,8), %esi
   117d0:	83 e6 00 	andl	$0, %esi
   117d3:	09 fe 	orl	%edi, %esi
   117d5:	40 88 74 d0 02 	movb	%sil, 2(%rax,%rdx,8)
   117da:	89 ce 	movl	%ecx, %esi
   117dc:	c1 ee 0c 	shrl	$12, %esi
   117df:	89 f6 	movl	%esi, %esi
   117e1:	40 0f b6 fe 	movzbl	%sil, %edi
   117e5:	0f b6 74 d0 03 	movzbl	3(%rax,%rdx,8), %esi
   117ea:	83 e6 00 	andl	$0, %esi
   117ed:	09 fe 	orl	%edi, %esi
   117ef:	40 88 74 d0 03 	movb	%sil, 3(%rax,%rdx,8)
   117f4:	c1 e9 14 	shrl	$20, %ecx
   117f7:	89 c9 	movl	%ecx, %ecx
   117f9:	0f b6 f1 	movzbl	%cl, %esi
   117fc:	0f b6 4c d0 04 	movzbl	4(%rax,%rdx,8), %ecx
   11801:	83 e1 00 	andl	$0, %ecx
   11804:	09 f1 	orl	%esi, %ecx
   11806:	88 4c d0 04 	movb	%cl, 4(%rax,%rdx,8)
   1180a:	48 8b 45 e8 	movq	-24(%rbp), %rax
   1180e:	8b 55 e4 	movl	-28(%rbp), %edx
   11811:	0f b6 4c d0 01 	movzbl	1(%rax,%rdx,8), %ecx
   11816:	c0 e9 04 	shrb	$4, %cl
   11819:	0f b6 f1 	movzbl	%cl, %esi
   1181c:	0f b6 4c d0 02 	movzbl	2(%rax,%rdx,8), %ecx
   11821:	48 c1 e1 04 	shlq	$4, %rcx
   11825:	48 09 ce 	orq	%rcx, %rsi
   11828:	0f b6 4c d0 03 	movzbl	3(%rax,%rdx,8), %ecx
   1182d:	48 c1 e1 0c 	shlq	$12, %rcx
   11831:	48 09 f1 	orq	%rsi, %rcx
   11834:	0f b6 44 d0 04 	movzbl	4(%rax,%rdx,8), %eax
   11839:	48 c1 e0 14 	shlq	$20, %rax
   1183d:	48 09 c8 	orq	%rcx, %rax
   11840:	89 c0 	movl	%eax, %eax
   11842:	48 c1 e0 0c 	shlq	$12, %rax
   11846:	48 89 c7 	movq	%rax, %rdi
   11849:	b8 00 00 00 00 	movl	$0, %eax
   1184e:	e8 52 01 00 00 	callq	338 <__native_flush_tlb_single>
   11853:	90 	nop
   11854:	c9 	leave
   11855:	c3 	retq

getPhysicalAddress:
   11856:	55 	pushq	%rbp
   11857:	48 89 e5 	movq	%rsp, %rbp
   1185a:	48 89 7d b8 	movq	%rdi, -72(%rbp)
   1185e:	48 89 75 b0 	movq	%rsi, -80(%rbp)
   11862:	48 c1 6d b0 0c 	shrq	$12, -80(%rbp)
   11867:	48 8b 45 b0 	movq	-80(%rbp), %rax
   1186b:	25 ff 01 00 00 	andl	$511, %eax
   11870:	48 89 45 f8 	movq	%rax, -8(%rbp)
   11874:	48 c1 6d b0 09 	shrq	$9, -80(%rbp)
   11879:	48 8b 45 b0 	movq	-80(%rbp), %rax
   1187d:	25 ff 01 00 00 	andl	$511, %eax
   11882:	48 89 45 f0 	movq	%rax, -16(%rbp)
   11886:	48 c1 6d b0 09 	shrq	$9, -80(%rbp)
   1188b:	48 8b 45 b0 	movq	-80(%rbp), %rax
   1188f:	25 ff 01 00 00 	andl	$511, %eax
   11894:	48 89 45 e8 	movq	%rax, -24(%rbp)
   11898:	48 c1 6d b0 09 	shrq	$9, -80(%rbp)
   1189d:	48 8b 45 b0 	movq	-80(%rbp), %rax
   118a1:	25 ff 01 00 00 	andl	$511, %eax
   118a6:	48 89 45 e0 	movq	%rax, -32(%rbp)
   118aa:	48 8b 45 b8 	movq	-72(%rbp), %rax
   118ae:	48 8b 55 e0 	movq	-32(%rbp), %rdx
   118b2:	0f b6 4c d0 01 	movzbl	1(%rax,%rdx,8), %ecx
   118b7:	c0 e9 04 	shrb	$4, %cl
   118ba:	0f b6 f1 	movzbl	%cl, %esi
   118bd:	0f b6 4c d0 02 	movzbl	2(%rax,%rdx,8), %ecx
   118c2:	48 c1 e1 04 	shlq	$4, %rcx
   118c6:	48 09 ce 	orq	%rcx, %rsi
   118c9:	0f b6 4c d0 03 	movzbl	3(%rax,%rdx,8), %ecx
   118ce:	48 c1 e1 0c 	shlq	$12, %rcx
   118d2:	48 09 f1 	orq	%rsi, %rcx
   118d5:	0f b6 44 d0 04 	movzbl	4(%rax,%rdx,8), %eax
   118da:	48 c1 e0 14 	shlq	$20, %rax
   118de:	48 09 c8 	orq	%rcx, %rax
   118e1:	c1 e0 0c 	shll	$12, %eax
   118e4:	48 98 	cltq
   118e6:	48 89 45 d8 	movq	%rax, -40(%rbp)
   118ea:	48 8b 45 d8 	movq	-40(%rbp), %rax
   118ee:	48 8b 55 e8 	movq	-24(%rbp), %rdx
   118f2:	0f b6 4c d0 01 	movzbl	1(%rax,%rdx,8), %ecx
   118f7:	c0 e9 04 	shrb	$4, %cl
   118fa:	0f b6 f1 	movzbl	%cl, %esi
   118fd:	0f b6 4c d0 02 	movzbl	2(%rax,%rdx,8), %ecx
   11902:	48 c1 e1 04 	shlq	$4, %rcx
   11906:	48 09 ce 	orq	%rcx, %rsi
   11909:	0f b6 4c d0 03 	movzbl	3(%rax,%rdx,8), %ecx
   1190e:	48 c1 e1 0c 	shlq	$12, %rcx
   11912:	48 09 f1 	orq	%rsi, %rcx
   11915:	0f b6 44 d0 04 	movzbl	4(%rax,%rdx,8), %eax
   1191a:	48 c1 e0 14 	shlq	$20, %rax
   1191e:	48 09 c8 	orq	%rcx, %rax
   11921:	c1 e0 0c 	shll	$12, %eax
   11924:	48 98 	cltq
   11926:	48 89 45 d0 	movq	%rax, -48(%rbp)
   1192a:	48 8b 45 d0 	movq	-48(%rbp), %rax
   1192e:	48 8b 55 f0 	movq	-16(%rbp), %rdx
   11932:	0f b6 4c d0 01 	movzbl	1(%rax,%rdx,8), %ecx
   11937:	c0 e9 04 	shrb	$4, %cl
   1193a:	0f b6 f1 	movzbl	%cl, %esi
   1193d:	0f b6 4c d0 02 	movzbl	2(%rax,%rdx,8), %ecx
   11942:	48 c1 e1 04 	shlq	$4, %rcx
   11946:	48 09 ce 	orq	%rcx, %rsi
   11949:	0f b6 4c d0 03 	movzbl	3(%rax,%rdx,8), %ecx
   1194e:	48 c1 e1 0c 	shlq	$12, %rcx
   11952:	48 09 f1 	orq	%rsi, %rcx
   11955:	0f b6 44 d0 04 	movzbl	4(%rax,%rdx,8), %eax
   1195a:	48 c1 e0 14 	shlq	$20, %rax
   1195e:	48 09 c8 	orq	%rcx, %rax
   11961:	c1 e0 0c 	shll	$12, %eax
   11964:	48 98 	cltq
   11966:	48 89 45 c8 	movq	%rax, -56(%rbp)
   1196a:	48 8b 45 c8 	movq	-56(%rbp), %rax
   1196e:	48 8b 55 f8 	movq	-8(%rbp), %rdx
   11972:	0f b6 4c d0 01 	movzbl	1(%rax,%rdx,8), %ecx
   11977:	c0 e9 04 	shrb	$4, %cl
   1197a:	0f b6 f1 	movzbl	%cl, %esi
   1197d:	0f b6 4c d0 02 	movzbl	2(%rax,%rdx,8), %ecx
   11982:	48 c1 e1 04 	shlq	$4, %rcx
   11986:	48 09 ce 	orq	%rcx, %rsi
   11989:	0f b6 4c d0 03 	movzbl	3(%rax,%rdx,8), %ecx
   1198e:	48 c1 e1 0c 	shlq	$12, %rcx
   11992:	48 09 f1 	orq	%rsi, %rcx
   11995:	0f b6 44 d0 04 	movzbl	4(%rax,%rdx,8), %eax
   1199a:	48 c1 e0 14 	shlq	$20, %rax
   1199e:	48 09 c8 	orq	%rcx, %rax
   119a1:	89 c0 	movl	%eax, %eax
   119a3:	5d 	popq	%rbp
   119a4:	c3 	retq

__native_flush_tlb_single:
   119a5:	55 	pushq	%rbp
   119a6:	48 89 e5 	movq	%rsp, %rbp
   119a9:	89 7d fc 	movl	%edi, -4(%rbp)
   119ac:	8b 45 fc 	movl	-4(%rbp), %eax
   119af:	67 0f 01 38 	invlpg	(%eax)
   119b3:	90 	nop
   119b4:	5d 	popq	%rbp
   119b5:	c3 	retq

setAsCurrentPML4:
   119b6:	55 	pushq	%rbp
   119b7:	48 89 e5 	movq	%rsp, %rbp
   119ba:	48 89 7d f8 	movq	%rdi, -8(%rbp)
   119be:	48 8b 45 f8 	movq	-8(%rbp), %rax
   119c2:	48 89 05 7f 1a 00 00 	movq	%rax, 6783(%rip)
   119c9:	90 	nop
   119ca:	5d 	popq	%rbp
   119cb:	c3 	retq

getCurrentPML4:
   119cc:	55 	pushq	%rbp
   119cd:	48 89 e5 	movq	%rsp, %rbp
   119d0:	48 8b 05 71 1a 00 00 	movq	6769(%rip), %rax
   119d7:	5d 	popq	%rbp
   119d8:	c3 	retq

loadCurrentPML4:
   119d9:	55 	pushq	%rbp
   119da:	48 89 e5 	movq	%rsp, %rbp
   119dd:	48 89 7d f8 	movq	%rdi, -8(%rbp)
   119e1:	48 8b 45 f8 	movq	-8(%rbp), %rax
   119e5:	0f 22 d8 	movq	%rax, %cr3
   119e8:	90 	nop
   119e9:	5d 	popq	%rbp
   119ea:	c3 	retq

initHeap:
   119eb:	55 	pushq	%rbp
   119ec:	48 89 e5 	movq	%rsp, %rbp
   119ef:	53 	pushq	%rbx
   119f0:	48 83 ec 38 	subq	$56, %rsp
   119f4:	48 89 7d c8 	movq	%rdi, -56(%rbp)
   119f8:	48 89 75 c0 	movq	%rsi, -64(%rbp)
   119fc:	c7 45 ec 00 00 00 00 	movl	$0, -20(%rbp)
   11a03:	eb 39 	jmp	57 <initHeap+0x53>
   11a05:	8b 45 ec 	movl	-20(%rbp), %eax
   11a08:	c1 e0 0c 	shll	$12, %eax
   11a0b:	48 63 d0 	movslq	%eax, %rdx
   11a0e:	48 8b 45 c8 	movq	-56(%rbp), %rax
   11a12:	48 8d 1c 02 	leaq	(%rdx,%rax), %rbx
   11a16:	b8 00 00 00 00 	movl	$0, %eax
   11a1b:	e8 e7 f4 ff ff 	callq	-2841 <RequestPhysicalPage>
   11a20:	48 89 c6 	movq	%rax, %rsi
   11a23:	48 8b 05 1e 1a 00 00 	movq	6686(%rip), %rax
   11a2a:	b9 03 00 00 00 	movl	$3, %ecx
   11a2f:	48 89 da 	movq	%rbx, %rdx
   11a32:	48 89 c7 	movq	%rax, %rdi
   11a35:	e8 6c f8 ff ff 	callq	-1940 <mapPhysicalToVirtualAddr>
   11a3a:	83 45 ec 01 	addl	$1, -20(%rbp)
   11a3e:	8b 45 ec 	movl	-20(%rbp), %eax
   11a41:	48 98 	cltq
   11a43:	48 39 45 c0 	cmpq	%rax, -64(%rbp)
   11a47:	77 bc 	ja	-68 <initHeap+0x1a>
   11a49:	48 8b 45 c8 	movq	-56(%rbp), %rax
   11a4d:	48 89 45 e0 	movq	%rax, -32(%rbp)
   11a51:	48 8b 45 c0 	movq	-64(%rbp), %rax
   11a55:	48 c1 e0 0c 	shlq	$12, %rax
   11a59:	48 89 c2 	movq	%rax, %rdx
   11a5c:	48 8b 45 e0 	movq	-32(%rbp), %rax
   11a60:	48 89 50 10 	movq	%rdx, 16(%rax)
   11a64:	48 8b 45 c0 	movq	-64(%rbp), %rax
   11a68:	48 c1 e0 0c 	shlq	$12, %rax
   11a6c:	48 8d 50 f8 	leaq	-8(%rax), %rdx
   11a70:	48 8b 45 e0 	movq	-32(%rbp), %rax
   11a74:	48 89 50 08 	movq	%rdx, 8(%rax)
   11a78:	48 8b 45 c8 	movq	-56(%rbp), %rax
   11a7c:	48 83 c0 18 	addq	$24, %rax
   11a80:	48 89 45 d8 	movq	%rax, -40(%rbp)
   11a84:	48 8b 45 d8 	movq	-40(%rbp), %rax
   11a88:	c6 00 03 	movb	$3, (%rax)
   11a8b:	48 8b 45 d8 	movq	-40(%rbp), %rax
   11a8f:	c7 40 01 00 00 00 00 	movl	$0, 1(%rax)
   11a96:	48 8b 45 d8 	movq	-40(%rbp), %rax
   11a9a:	48 c7 40 05 00 00 00 00 	movq	$0, 5(%rax)
   11aa2:	48 8b 45 e0 	movq	-32(%rbp), %rax
   11aa6:	48 8b 55 d8 	movq	-40(%rbp), %rdx
   11aaa:	48 89 10 	movq	%rdx, (%rax)
   11aad:	48 8b 45 e0 	movq	-32(%rbp), %rax
   11ab1:	48 89 05 98 19 00 00 	movq	%rax, 6552(%rip)
   11ab8:	90 	nop
   11ab9:	48 8b 5d f8 	movq	-8(%rbp), %rbx
   11abd:	c9 	leave
   11abe:	c3 	retq

expandHeap:
   11abf:	55 	pushq	%rbp
   11ac0:	48 89 e5 	movq	%rsp, %rbp
   11ac3:	48 83 ec 20 	subq	$32, %rsp
   11ac7:	48 89 7d e8 	movq	%rdi, -24(%rbp)
   11acb:	89 75 e4 	movl	%esi, -28(%rbp)
   11ace:	48 8b 45 e8 	movq	-24(%rbp), %rax
   11ad2:	48 8b 08 	movq	(%rax), %rcx
   11ad5:	48 8b 45 e8 	movq	-24(%rbp), %rax
   11ad9:	48 8b 50 10 	movq	16(%rax), %rdx
   11add:	48 89 d0 	movq	%rdx, %rax
   11ae0:	48 01 c0 	addq	%rax, %rax
   11ae3:	48 01 d0 	addq	%rdx, %rax
   11ae6:	48 c1 e0 02 	shlq	$2, %rax
   11aea:	48 01 d0 	addq	%rdx, %rax
   11aed:	48 01 c8 	addq	%rcx, %rax
   11af0:	48 89 45 f8 	movq	%rax, -8(%rbp)
   11af4:	b8 00 00 00 00 	movl	$0, %eax
   11af9:	e8 09 f4 ff ff 	callq	-3063 <RequestPhysicalPage>
   11afe:	48 89 c6 	movq	%rax, %rsi
   11b01:	48 8b 05 40 19 00 00 	movq	6464(%rip), %rax
   11b08:	48 8b 55 f8 	movq	-8(%rbp), %rdx
   11b0c:	b9 03 00 00 00 	movl	$3, %ecx
   11b11:	48 89 c7 	movq	%rax, %rdi
   11b14:	e8 8d f7 ff ff 	callq	-2163 <mapPhysicalToVirtualAddr>
   11b19:	48 8b 45 e8 	movq	-24(%rbp), %rax
   11b1d:	48 8b 40 10 	movq	16(%rax), %rax
   11b21:	48 8d 90 00 10 00 00 	leaq	4096(%rax), %rdx
   11b28:	48 8b 45 e8 	movq	-24(%rbp), %rax
   11b2c:	48 89 50 10 	movq	%rdx, 16(%rax)
   11b30:	90 	nop
   11b31:	c9 	leave
   11b32:	c3 	retq

kmalloc:
   11b33:	55 	pushq	%rbp
   11b34:	48 89 e5 	movq	%rsp, %rbp
   11b37:	48 83 ec 40 	subq	$64, %rsp
   11b3b:	48 89 7d c8 	movq	%rdi, -56(%rbp)
   11b3f:	48 8b 05 0a 19 00 00 	movq	6410(%rip), %rax
   11b46:	48 85 c0 	testq	%rax, %rax
   11b49:	75 0a 	jne	10 <kmalloc+0x22>
   11b4b:	b8 00 00 00 00 	movl	$0, %eax
   11b50:	e9 d7 02 00 00 	jmp	727 <kmalloc+0x2f9>
   11b55:	48 8b 05 f4 18 00 00 	movq	6388(%rip), %rax
   11b5c:	48 8b 00 	movq	(%rax), %rax
   11b5f:	48 89 45 f8 	movq	%rax, -8(%rbp)
   11b63:	e9 b4 02 00 00 	jmp	692 <kmalloc+0x2e9>
   11b68:	48 8b 45 f8 	movq	-8(%rbp), %rax
   11b6c:	0f b6 00 	movzbl	(%rax), %eax
   11b6f:	0f b6 c0 	movzbl	%al, %eax
   11b72:	83 e0 01 	andl	$1, %eax
   11b75:	85 c0 	testl	%eax, %eax
   11b77:	0f 84 75 01 00 00 	je	373 <kmalloc+0x1bf>
   11b7d:	48 8b 45 f8 	movq	-8(%rbp), %rax
   11b81:	48 8b 40 05 	movq	5(%rax), %rax
   11b85:	48 85 c0 	testq	%rax, %rax
   11b88:	0f 85 7e 02 00 00 	jne	638 <kmalloc+0x2d9>
   11b8e:	48 8b 45 c8 	movq	-56(%rbp), %rax
   11b92:	48 83 c0 0d 	addq	$13, %rax
   11b96:	48 89 45 e0 	movq	%rax, -32(%rbp)
   11b9a:	48 8b 05 af 18 00 00 	movq	6319(%rip), %rax
   11ba1:	48 8b 40 08 	movq	8(%rax), %rax
   11ba5:	48 39 45 e0 	cmpq	%rax, -32(%rbp)
   11ba9:	0f 87 88 00 00 00 	ja	136 <kmalloc+0x104>
   11baf:	48 8b 05 9a 18 00 00 	movq	6298(%rip), %rax
   11bb6:	48 8b 50 08 	movq	8(%rax), %rdx
   11bba:	48 8b 05 8f 18 00 00 	movq	6287(%rip), %rax
   11bc1:	48 2b 55 e0 	subq	-32(%rbp), %rdx
   11bc5:	48 89 50 08 	movq	%rdx, 8(%rax)
   11bc9:	48 8b 45 f8 	movq	-8(%rbp), %rax
   11bcd:	8b 40 01 	movl	1(%rax), %eax
   11bd0:	89 c2 	movl	%eax, %edx
   11bd2:	48 8b 45 f8 	movq	-8(%rbp), %rax
   11bd6:	48 01 d0 	addq	%rdx, %rax
   11bd9:	48 83 c0 0d 	addq	$13, %rax
   11bdd:	48 89 45 d0 	movq	%rax, -48(%rbp)
   11be1:	48 8b 45 c8 	movq	-56(%rbp), %rax
   11be5:	89 c2 	movl	%eax, %edx
   11be7:	48 8b 45 d0 	movq	-48(%rbp), %rax
   11beb:	89 50 01 	movl	%edx, 1(%rax)
   11bee:	48 8b 45 d0 	movq	-48(%rbp), %rax
   11bf2:	0f b6 00 	movzbl	(%rax), %eax
   11bf5:	83 c8 01 	orl	$1, %eax
   11bf8:	89 c2 	movl	%eax, %edx
   11bfa:	48 8b 45 d0 	movq	-48(%rbp), %rax
   11bfe:	88 10 	movb	%dl, (%rax)
   11c00:	48 8b 45 d0 	movq	-48(%rbp), %rax
   11c04:	8b 40 01 	movl	1(%rax), %eax
   11c07:	89 c2 	movl	%eax, %edx
   11c09:	48 8b 45 d0 	movq	-48(%rbp), %rax
   11c0d:	48 83 c0 0d 	addq	$13, %rax
   11c11:	be 00 00 00 00 	movl	$0, %esi
   11c16:	48 89 c7 	movq	%rax, %rdi
   11c19:	e8 73 ec ff ff 	callq	-5005 <memset>
   11c1e:	48 8b 45 f8 	movq	-8(%rbp), %rax
   11c22:	48 8b 55 d0 	movq	-48(%rbp), %rdx
   11c26:	48 89 50 05 	movq	%rdx, 5(%rax)
   11c2a:	48 8b 45 d0 	movq	-48(%rbp), %rax
   11c2e:	48 83 c0 0d 	addq	$13, %rax
   11c32:	e9 f5 01 00 00 	jmp	501 <kmalloc+0x2f9>
   11c37:	c7 45 f4 00 00 00 00 	movl	$0, -12(%rbp)
   11c3e:	eb 18 	jmp	24 <kmalloc+0x125>
   11c40:	48 8b 05 09 18 00 00 	movq	6153(%rip), %rax
   11c47:	be 01 00 00 00 	movl	$1, %esi
   11c4c:	48 89 c7 	movq	%rax, %rdi
   11c4f:	e8 6b fe ff ff 	callq	-405 <expandHeap>
   11c54:	83 45 f4 01 	addl	$1, -12(%rbp)
   11c58:	8b 45 f4 	movl	-12(%rbp), %eax
   11c5b:	48 98 	cltq
   11c5d:	48 8b 55 e0 	movq	-32(%rbp), %rdx
   11c61:	48 c1 ea 0c 	shrq	$12, %rdx
   11c65:	48 39 d0 	cmpq	%rdx, %rax
   11c68:	72 d6 	jb	-42 <kmalloc+0x10d>
   11c6a:	48 8b 05 df 17 00 00 	movq	6111(%rip), %rax
   11c71:	48 8b 50 08 	movq	8(%rax), %rdx
   11c75:	48 8b 05 d4 17 00 00 	movq	6100(%rip), %rax
   11c7c:	48 2b 55 e0 	subq	-32(%rbp), %rdx
   11c80:	48 89 50 08 	movq	%rdx, 8(%rax)
   11c84:	48 8b 45 f8 	movq	-8(%rbp), %rax
   11c88:	8b 40 01 	movl	1(%rax), %eax
   11c8b:	89 c2 	movl	%eax, %edx
   11c8d:	48 8b 45 f8 	movq	-8(%rbp), %rax
   11c91:	48 01 d0 	addq	%rdx, %rax
   11c94:	48 83 c0 0d 	addq	$13, %rax
   11c98:	48 89 45 d8 	movq	%rax, -40(%rbp)
   11c9c:	48 8b 45 c8 	movq	-56(%rbp), %rax
   11ca0:	89 c2 	movl	%eax, %edx
   11ca2:	48 8b 45 d8 	movq	-40(%rbp), %rax
   11ca6:	89 50 01 	movl	%edx, 1(%rax)
   11ca9:	48 8b 45 d8 	movq	-40(%rbp), %rax
   11cad:	0f b6 00 	movzbl	(%rax), %eax
   11cb0:	83 c8 01 	orl	$1, %eax
   11cb3:	89 c2 	movl	%eax, %edx
   11cb5:	48 8b 45 d8 	movq	-40(%rbp), %rax
   11cb9:	88 10 	movb	%dl, (%rax)
   11cbb:	48 8b 45 d8 	movq	-40(%rbp), %rax
   11cbf:	8b 40 01 	movl	1(%rax), %eax
   11cc2:	89 c2 	movl	%eax, %edx
   11cc4:	48 8b 45 d8 	movq	-40(%rbp), %rax
   11cc8:	48 83 c0 0d 	addq	$13, %rax
   11ccc:	be 00 00 00 00 	movl	$0, %esi
   11cd1:	48 89 c7 	movq	%rax, %rdi
   11cd4:	e8 b8 eb ff ff 	callq	-5192 <memset>
   11cd9:	48 8b 45 f8 	movq	-8(%rbp), %rax
   11cdd:	48 8b 55 d8 	movq	-40(%rbp), %rdx
   11ce1:	48 89 50 05 	movq	%rdx, 5(%rax)
   11ce5:	48 8b 45 d8 	movq	-40(%rbp), %rax
   11ce9:	48 83 c0 0d 	addq	$13, %rax
   11ced:	e9 3a 01 00 00 	jmp	314 <kmalloc+0x2f9>
   11cf2:	48 8b 45 f8 	movq	-8(%rbp), %rax
   11cf6:	8b 40 01 	movl	1(%rax), %eax
   11cf9:	89 c0 	movl	%eax, %eax
   11cfb:	48 39 45 c8 	cmpq	%rax, -56(%rbp)
   11cff:	75 3d 	jne	61 <kmalloc+0x20b>
   11d01:	48 8b 45 f8 	movq	-8(%rbp), %rax
   11d05:	0f b6 00 	movzbl	(%rax), %eax
   11d08:	83 c8 01 	orl	$1, %eax
   11d0b:	89 c2 	movl	%eax, %edx
   11d0d:	48 8b 45 f8 	movq	-8(%rbp), %rax
   11d11:	88 10 	movb	%dl, (%rax)
   11d13:	48 8b 45 f8 	movq	-8(%rbp), %rax
   11d17:	8b 40 01 	movl	1(%rax), %eax
   11d1a:	89 c2 	movl	%eax, %edx
   11d1c:	48 8b 45 f8 	movq	-8(%rbp), %rax
   11d20:	48 83 c0 0d 	addq	$13, %rax
   11d24:	be 00 00 00 00 	movl	$0, %esi
   11d29:	48 89 c7 	movq	%rax, %rdi
   11d2c:	e8 60 eb ff ff 	callq	-5280 <memset>
   11d31:	48 8b 45 f8 	movq	-8(%rbp), %rax
   11d35:	48 83 c0 0d 	addq	$13, %rax
   11d39:	e9 ee 00 00 00 	jmp	238 <kmalloc+0x2f9>
   11d3e:	48 8b 45 f8 	movq	-8(%rbp), %rax
   11d42:	8b 40 01 	movl	1(%rax), %eax
   11d45:	89 c2 	movl	%eax, %edx
   11d47:	48 8b 45 c8 	movq	-56(%rbp), %rax
   11d4b:	48 83 c0 0e 	addq	$14, %rax
   11d4f:	48 39 c2 	cmpq	%rax, %rdx
   11d52:	0f 82 b7 00 00 00 	jb	183 <kmalloc+0x2dc>
   11d58:	48 8b 55 f8 	movq	-8(%rbp), %rdx
   11d5c:	48 8b 45 c8 	movq	-56(%rbp), %rax
   11d60:	48 01 d0 	addq	%rdx, %rax
   11d63:	48 83 c0 0d 	addq	$13, %rax
   11d67:	48 89 45 e8 	movq	%rax, -24(%rbp)
   11d6b:	48 8b 45 e8 	movq	-24(%rbp), %rax
   11d6f:	c6 00 00 	movb	$0, (%rax)
   11d72:	48 8b 45 f8 	movq	-8(%rbp), %rax
   11d76:	8b 40 01 	movl	1(%rax), %eax
   11d79:	48 8b 55 c8 	movq	-56(%rbp), %rdx
   11d7d:	29 d0 	subl	%edx, %eax
   11d7f:	8d 50 f3 	leal	-13(%rax), %edx
   11d82:	48 8b 45 e8 	movq	-24(%rbp), %rax
   11d86:	89 50 01 	movl	%edx, 1(%rax)
   11d89:	48 8b 45 f8 	movq	-8(%rbp), %rax
   11d8d:	48 8b 50 05 	movq	5(%rax), %rdx
   11d91:	48 8b 45 e8 	movq	-24(%rbp), %rax
   11d95:	48 89 50 05 	movq	%rdx, 5(%rax)
   11d99:	48 8b 45 f8 	movq	-8(%rbp), %rax
   11d9d:	48 8b 55 e8 	movq	-24(%rbp), %rdx
   11da1:	48 89 50 05 	movq	%rdx, 5(%rax)
   11da5:	48 8b 45 c8 	movq	-56(%rbp), %rax
   11da9:	89 c2 	movl	%eax, %edx
   11dab:	48 8b 45 f8 	movq	-8(%rbp), %rax
   11daf:	89 50 01 	movl	%edx, 1(%rax)
   11db2:	48 8b 45 f8 	movq	-8(%rbp), %rax
   11db6:	0f b6 00 	movzbl	(%rax), %eax
   11db9:	83 c8 01 	orl	$1, %eax
   11dbc:	89 c2 	movl	%eax, %edx
   11dbe:	48 8b 45 f8 	movq	-8(%rbp), %rax
   11dc2:	88 10 	movb	%dl, (%rax)
   11dc4:	48 8b 45 e8 	movq	-24(%rbp), %rax
   11dc8:	8b 40 01 	movl	1(%rax), %eax
   11dcb:	89 c2 	movl	%eax, %edx
   11dcd:	48 8b 45 e8 	movq	-24(%rbp), %rax
   11dd1:	48 83 c0 0d 	addq	$13, %rax
   11dd5:	be 00 00 00 00 	movl	$0, %esi
   11dda:	48 89 c7 	movq	%rax, %rdi
   11ddd:	e8 af ea ff ff 	callq	-5457 <memset>
   11de2:	48 8b 45 f8 	movq	-8(%rbp), %rax
   11de6:	8b 40 01 	movl	1(%rax), %eax
   11de9:	89 c2 	movl	%eax, %edx
   11deb:	48 8b 45 f8 	movq	-8(%rbp), %rax
   11def:	48 05 a9 00 00 00 	addq	$169, %rax
   11df5:	be 00 00 00 00 	movl	$0, %esi
   11dfa:	48 89 c7 	movq	%rax, %rdi
   11dfd:	e8 8f ea ff ff 	callq	-5489 <memset>
   11e02:	48 8b 45 e8 	movq	-24(%rbp), %rax
   11e06:	48 83 c0 0d 	addq	$13, %rax
   11e0a:	eb 20 	jmp	32 <kmalloc+0x2f9>
   11e0c:	90 	nop
   11e0d:	eb 01 	jmp	1 <kmalloc+0x2dd>
   11e0f:	90 	nop
   11e10:	48 8b 45 f8 	movq	-8(%rbp), %rax
   11e14:	48 8b 40 05 	movq	5(%rax), %rax
   11e18:	48 89 45 f8 	movq	%rax, -8(%rbp)
   11e1c:	48 83 7d f8 00 	cmpq	$0, -8(%rbp)
   11e21:	0f 85 41 fd ff ff 	jne	-703 <kmalloc+0x35>
   11e27:	b8 00 00 00 00 	movl	$0, %eax
   11e2c:	c9 	leave
   11e2d:	c3 	retq

kfree:
   11e2e:	55 	pushq	%rbp
   11e2f:	48 89 e5 	movq	%rsp, %rbp
   11e32:	48 83 ec 30 	subq	$48, %rsp
   11e36:	48 89 7d d8 	movq	%rdi, -40(%rbp)
   11e3a:	48 8b 05 0f 16 00 00 	movq	5647(%rip), %rax
   11e41:	48 85 c0 	testq	%rax, %rax
   11e44:	0f 84 d3 01 00 00 	je	467 <kfree+0x1ef>
   11e4a:	48 83 7d d8 00 	cmpq	$0, -40(%rbp)
   11e4f:	0f 84 c8 01 00 00 	je	456 <kfree+0x1ef>
   11e55:	c7 45 ec 01 00 00 00 	movl	$1, -20(%rbp)
   11e5c:	c7 45 e8 01 00 00 00 	movl	$1, -24(%rbp)
   11e63:	48 8b 05 e6 15 00 00 	movq	5606(%rip), %rax
   11e6a:	48 8b 00 	movq	(%rax), %rax
   11e6d:	48 89 45 f0 	movq	%rax, -16(%rbp)
   11e71:	e9 9a 01 00 00 	jmp	410 <kfree+0x1e2>
   11e76:	48 8b 45 f0 	movq	-16(%rbp), %rax
   11e7a:	0f b6 00 	movzbl	(%rax), %eax
   11e7d:	0f b6 c0 	movzbl	%al, %eax
   11e80:	83 e0 01 	andl	$1, %eax
   11e83:	85 c0 	testl	%eax, %eax
   11e85:	0f 84 78 01 00 00 	je	376 <kfree+0x1d5>
   11e8b:	48 8b 45 f0 	movq	-16(%rbp), %rax
   11e8f:	48 05 a9 00 00 00 	addq	$169, %rax
   11e95:	48 39 45 d8 	cmpq	%rax, -40(%rbp)
   11e99:	0f 85 64 01 00 00 	jne	356 <kfree+0x1d5>
   11e9f:	83 7d ec 00 	cmpl	$0, -20(%rbp)
   11ea3:	75 74 	jne	116 <kfree+0xeb>
   11ea5:	83 7d e8 00 	cmpl	$0, -24(%rbp)
   11ea9:	75 6e 	jne	110 <kfree+0xeb>
   11eab:	48 8b 45 f8 	movq	-8(%rbp), %rax
   11eaf:	8b 50 01 	movl	1(%rax), %edx
   11eb2:	48 8b 45 f0 	movq	-16(%rbp), %rax
   11eb6:	8b 48 01 	movl	1(%rax), %ecx
   11eb9:	48 8b 45 f0 	movq	-16(%rbp), %rax
   11ebd:	48 8b 40 05 	movq	5(%rax), %rax
   11ec1:	8b 40 01 	movl	1(%rax), %eax
   11ec4:	01 c8 	addl	%ecx, %eax
   11ec6:	01 d0 	addl	%edx, %eax
   11ec8:	8d 50 1a 	leal	26(%rax), %edx
   11ecb:	48 8b 45 f8 	movq	-8(%rbp), %rax
   11ecf:	89 50 01 	movl	%edx, 1(%rax)
   11ed2:	48 8b 45 f0 	movq	-16(%rbp), %rax
   11ed6:	48 8b 40 05 	movq	5(%rax), %rax
   11eda:	48 8b 50 05 	movq	5(%rax), %rdx
   11ede:	48 8b 45 f8 	movq	-8(%rbp), %rax
   11ee2:	48 89 50 05 	movq	%rdx, 5(%rax)
   11ee6:	48 8b 45 f0 	movq	-16(%rbp), %rax
   11eea:	8b 40 01 	movl	1(%rax), %eax
   11eed:	89 c2 	movl	%eax, %edx
   11eef:	48 8b 45 f0 	movq	-16(%rbp), %rax
   11ef3:	48 8b 40 05 	movq	5(%rax), %rax
   11ef7:	8b 40 01 	movl	1(%rax), %eax
   11efa:	89 c0 	movl	%eax, %eax
   11efc:	48 01 d0 	addq	%rdx, %rax
   11eff:	48 8d 50 1a 	leaq	26(%rax), %rdx
   11f03:	48 8b 45 f0 	movq	-16(%rbp), %rax
   11f07:	be 00 00 00 00 	movl	$0, %esi
   11f0c:	48 89 c7 	movq	%rax, %rdi
   11f0f:	e8 7d e9 ff ff 	callq	-5763 <memset>
   11f14:	e9 df 00 00 00 	jmp	223 <kfree+0x1ca>
   11f19:	83 7d ec 00 	cmpl	$0, -20(%rbp)
   11f1d:	75 4d 	jne	77 <kfree+0x13e>
   11f1f:	48 8b 45 f8 	movq	-8(%rbp), %rax
   11f23:	8b 50 01 	movl	1(%rax), %edx
   11f26:	48 8b 45 f0 	movq	-16(%rbp), %rax
   11f2a:	8b 40 01 	movl	1(%rax), %eax
   11f2d:	01 d0 	addl	%edx, %eax
   11f2f:	8d 50 0d 	leal	13(%rax), %edx
   11f32:	48 8b 45 f8 	movq	-8(%rbp), %rax
   11f36:	89 50 01 	movl	%edx, 1(%rax)
   11f39:	48 8b 45 f0 	movq	-16(%rbp), %rax
   11f3d:	48 8b 50 05 	movq	5(%rax), %rdx
   11f41:	48 8b 45 f8 	movq	-8(%rbp), %rax
   11f45:	48 89 50 05 	movq	%rdx, 5(%rax)
   11f49:	48 8b 45 f0 	movq	-16(%rbp), %rax
   11f4d:	8b 40 01 	movl	1(%rax), %eax
   11f50:	89 c0 	movl	%eax, %eax
   11f52:	48 8d 50 0d 	leaq	13(%rax), %rdx
   11f56:	48 8b 45 f0 	movq	-16(%rbp), %rax
   11f5a:	be 00 00 00 00 	movl	$0, %esi
   11f5f:	48 89 c7 	movq	%rax, %rdi
   11f62:	e8 2a e9 ff ff 	callq	-5846 <memset>
   11f67:	e9 8c 00 00 00 	jmp	140 <kfree+0x1ca>
   11f6c:	83 7d e8 00 	cmpl	$0, -24(%rbp)
   11f70:	75 5a 	jne	90 <kfree+0x19e>
   11f72:	48 8b 45 f0 	movq	-16(%rbp), %rax
   11f76:	8b 50 01 	movl	1(%rax), %edx
   11f79:	48 8b 45 f0 	movq	-16(%rbp), %rax
   11f7d:	48 8b 40 05 	movq	5(%rax), %rax
   11f81:	8b 40 01 	movl	1(%rax), %eax
   11f84:	01 d0 	addl	%edx, %eax
   11f86:	8d 50 0d 	leal	13(%rax), %edx
   11f89:	48 8b 45 f0 	movq	-16(%rbp), %rax
   11f8d:	89 50 01 	movl	%edx, 1(%rax)
   11f90:	48 8b 45 f0 	movq	-16(%rbp), %rax
   11f94:	48 8b 40 05 	movq	5(%rax), %rax
   11f98:	48 8b 50 05 	movq	5(%rax), %rdx
   11f9c:	48 8b 45 f0 	movq	-16(%rbp), %rax
   11fa0:	48 89 50 05 	movq	%rdx, 5(%rax)
   11fa4:	48 8b 45 f0 	movq	-16(%rbp), %rax
   11fa8:	48 8b 40 05 	movq	5(%rax), %rax
   11fac:	8b 40 01 	movl	1(%rax), %eax
   11faf:	89 c0 	movl	%eax, %eax
   11fb1:	48 8d 50 0d 	leaq	13(%rax), %rdx
   11fb5:	48 8b 45 f0 	movq	-16(%rbp), %rax
   11fb9:	48 8b 40 05 	movq	5(%rax), %rax
   11fbd:	be 00 00 00 00 	movl	$0, %esi
   11fc2:	48 89 c7 	movq	%rax, %rdi
   11fc5:	e8 c7 e8 ff ff 	callq	-5945 <memset>
   11fca:	eb 2c 	jmp	44 <kfree+0x1ca>
   11fcc:	48 8b 45 f0 	movq	-16(%rbp), %rax
   11fd0:	0f b6 00 	movzbl	(%rax), %eax
   11fd3:	83 e0 0e 	andl	$14, %eax
   11fd6:	89 c2 	movl	%eax, %edx
   11fd8:	48 8b 45 f0 	movq	-16(%rbp), %rax
   11fdc:	88 10 	movb	%dl, (%rax)
   11fde:	48 8b 45 f0 	movq	-16(%rbp), %rax
   11fe2:	8b 40 01 	movl	1(%rax), %eax
   11fe5:	89 c2 	movl	%eax, %edx
   11fe7:	48 8b 45 d8 	movq	-40(%rbp), %rax
   11feb:	be 00 00 00 00 	movl	$0, %esi
   11ff0:	48 89 c7 	movq	%rax, %rdi
   11ff3:	e8 99 e8 ff ff 	callq	-5991 <memset>
   11ff8:	90 	nop
   11ff9:	48 8b 45 f0 	movq	-16(%rbp), %rax
   11ffd:	48 89 45 f8 	movq	%rax, -8(%rbp)
   12001:	eb 01 	jmp	1 <kfree+0x1d6>
   12003:	90 	nop
   12004:	48 8b 45 f0 	movq	-16(%rbp), %rax
   12008:	48 8b 40 05 	movq	5(%rax), %rax
   1200c:	48 89 45 f0 	movq	%rax, -16(%rbp)
   12010:	48 83 7d f0 00 	cmpq	$0, -16(%rbp)
   12015:	0f 85 5b fe ff ff 	jne	-421 <kfree+0x48>
   1201b:	eb 01 	jmp	1 <kfree+0x1f0>
   1201d:	90 	nop
   1201e:	c9 	leave
   1201f:	c3 	retq

inb:
   12020:	55 	pushq	%rbp
   12021:	48 89 e5 	movq	%rsp, %rbp
   12024:	89 f8 	movl	%edi, %eax
   12026:	66 89 45 ec 	movw	%ax, -20(%rbp)
   1202a:	0f b7 45 ec 	movzwl	-20(%rbp), %eax
   1202e:	89 c2 	movl	%eax, %edx
   12030:	ec 	inb	%dx, %al
   12031:	88 45 ff 	movb	%al, -1(%rbp)
   12034:	0f b6 45 ff 	movzbl	-1(%rbp), %eax
   12038:	5d 	popq	%rbp
   12039:	c3 	retq

outb:
   1203a:	55 	pushq	%rbp
   1203b:	48 89 e5 	movq	%rsp, %rbp
   1203e:	89 f8 	movl	%edi, %eax
   12040:	89 f2 	movl	%esi, %edx
   12042:	66 89 45 fc 	movw	%ax, -4(%rbp)
   12046:	89 d0 	movl	%edx, %eax
   12048:	88 45 f8 	movb	%al, -8(%rbp)
   1204b:	0f b6 45 f8 	movzbl	-8(%rbp), %eax
   1204f:	0f b7 55 fc 	movzwl	-4(%rbp), %edx
   12053:	ee 	outb	%al, %dx
   12054:	90 	nop
   12055:	5d 	popq	%rbp
   12056:	c3 	retq

inw:
   12057:	55 	pushq	%rbp
   12058:	48 89 e5 	movq	%rsp, %rbp
   1205b:	89 f8 	movl	%edi, %eax
   1205d:	66 89 45 ec 	movw	%ax, -20(%rbp)
   12061:	0f b7 45 ec 	movzwl	-20(%rbp), %eax
   12065:	89 c2 	movl	%eax, %edx
   12067:	66 ed 	inw	%dx, %ax
   12069:	66 89 45 fe 	movw	%ax, -2(%rbp)
   1206d:	0f b7 45 fe 	movzwl	-2(%rbp), %eax
   12071:	5d 	popq	%rbp
   12072:	c3 	retq

outw:
   12073:	55 	pushq	%rbp
   12074:	48 89 e5 	movq	%rsp, %rbp
   12077:	89 fa 	movl	%edi, %edx
   12079:	89 f0 	movl	%esi, %eax
   1207b:	66 89 55 fc 	movw	%dx, -4(%rbp)
   1207f:	66 89 45 f8 	movw	%ax, -8(%rbp)
   12083:	0f b7 45 f8 	movzwl	-8(%rbp), %eax
   12087:	0f b7 55 fc 	movzwl	-4(%rbp), %edx
   1208b:	66 ef 	outw	%ax, %dx
   1208d:	90 	nop
   1208e:	5d 	popq	%rbp
   1208f:	c3 	retq

io_wait:
   12090:	55 	pushq	%rbp
   12091:	48 89 e5 	movq	%rsp, %rbp
   12094:	b8 00 00 00 00 	movl	$0, %eax
   12099:	e6 80 	outb	%al, $128
   1209b:	90 	nop
   1209c:	5d 	popq	%rbp
   1209d:	c3 	retq

idt_flush:
   1209e:	55 	pushq	%rbp
   1209f:	48 89 e5 	movq	%rsp, %rbp
   120a2:	48 89 7d f8 	movq	%rdi, -8(%rbp)
   120a6:	48 8b 45 f8 	movq	-8(%rbp), %rax
   120aa:	0f 01 18 	lidtq	(%rax)
   120ad:	90 	nop
   120ae:	5d 	popq	%rbp
   120af:	c3 	retq

createIdtGate:
   120b0:	55 	pushq	%rbp
   120b1:	48 89 e5 	movq	%rsp, %rbp
   120b4:	89 7d fc 	movl	%edi, -4(%rbp)
   120b7:	48 89 75 f0 	movq	%rsi, -16(%rbp)
   120bb:	89 c8 	movl	%ecx, %eax
   120bd:	88 55 f8 	movb	%dl, -8(%rbp)
   120c0:	88 45 ec 	movb	%al, -20(%rbp)
   120c3:	48 8b 15 2e 1f 00 00 	movq	7982(%rip), %rdx
   120ca:	8b 45 fc 	movl	-4(%rbp), %eax
   120cd:	48 98 	cltq
   120cf:	48 c1 e0 04 	shlq	$4, %rax
   120d3:	48 01 c2 	addq	%rax, %rdx
   120d6:	0f b6 45 ec 	movzbl	-20(%rbp), %eax
   120da:	88 42 05 	movb	%al, 5(%rdx)
   120dd:	48 8b 15 14 1f 00 00 	movq	7956(%rip), %rdx
   120e4:	8b 45 fc 	movl	-4(%rbp), %eax
   120e7:	48 98 	cltq
   120e9:	48 c1 e0 04 	shlq	$4, %rax
   120ed:	48 01 d0 	addq	%rdx, %rax
   120f0:	66 c7 00 00 00 	movw	$0, (%rax)
   120f5:	48 8b 45 f0 	movq	-16(%rbp), %rax
   120f9:	0f b7 c0 	movzwl	%ax, %eax
   120fc:	c1 f8 10 	sarl	$16, %eax
   120ff:	89 c2 	movl	%eax, %edx
   12101:	48 8b 0d f0 1e 00 00 	movq	7920(%rip), %rcx
   12108:	8b 45 fc 	movl	-4(%rbp), %eax
   1210b:	48 98 	cltq
   1210d:	48 c1 e0 04 	shlq	$4, %rax
   12111:	48 01 c8 	addq	%rcx, %rax
   12114:	66 89 50 06 	movw	%dx, 6(%rax)
   12118:	48 8b 45 f0 	movq	-16(%rbp), %rax
   1211c:	89 c2 	movl	%eax, %edx
   1211e:	b8 20 00 00 00 	movl	$32, %eax
   12123:	89 c1 	movl	%eax, %ecx
   12125:	d3 ea 	shrl	%cl, %edx
   12127:	48 8b 0d ca 1e 00 00 	movq	7882(%rip), %rcx
   1212e:	8b 45 fc 	movl	-4(%rbp), %eax
   12131:	48 98 	cltq
   12133:	48 c1 e0 04 	shlq	$4, %rax
   12137:	48 01 c8 	addq	%rcx, %rax
   1213a:	66 89 50 06 	movw	%dx, 6(%rax)
   1213e:	48 8b 15 b3 1e 00 00 	movq	7859(%rip), %rdx
   12145:	8b 45 fc 	movl	-4(%rbp), %eax
   12148:	48 98 	cltq
   1214a:	48 c1 e0 04 	shlq	$4, %rax
   1214e:	48 01 c2 	addq	%rax, %rdx
   12151:	0f b6 45 f8 	movzbl	-8(%rbp), %eax
   12155:	66 89 42 02 	movw	%ax, 2(%rdx)
   12159:	48 8b 15 98 1e 00 00 	movq	7832(%rip), %rdx
   12160:	8b 45 fc 	movl	-4(%rbp), %eax
   12163:	48 98 	cltq
   12165:	48 c1 e0 04 	shlq	$4, %rax
   12169:	48 01 d0 	addq	%rdx, %rax
   1216c:	c6 40 04 00 	movb	$0, 4(%rax)
   12170:	48 8b 15 81 1e 00 00 	movq	7809(%rip), %rdx
   12177:	8b 45 fc 	movl	-4(%rbp), %eax
   1217a:	48 98 	cltq
   1217c:	48 c1 e0 04 	shlq	$4, %rax
   12180:	48 01 d0 	addq	%rdx, %rax
   12183:	c7 40 0c 00 00 00 00 	movl	$0, 12(%rax)
   1218a:	90 	nop
   1218b:	5d 	popq	%rbp
   1218c:	c3 	retq

init_pic:
   1218d:	55 	pushq	%rbp
   1218e:	48 89 e5 	movq	%rsp, %rbp
   12191:	48 83 ec 10 	subq	$16, %rsp
   12195:	bf 21 00 00 00 	movl	$33, %edi
   1219a:	e8 81 fe ff ff 	callq	-383 <inb>
   1219f:	88 45 ff 	movb	%al, -1(%rbp)
   121a2:	b8 00 00 00 00 	movl	$0, %eax
   121a7:	e8 e4 fe ff ff 	callq	-284 <io_wait>
   121ac:	bf a1 00 00 00 	movl	$161, %edi
   121b1:	e8 6a fe ff ff 	callq	-406 <inb>
   121b6:	88 45 fe 	movb	%al, -2(%rbp)
   121b9:	b8 00 00 00 00 	movl	$0, %eax
   121be:	e8 cd fe ff ff 	callq	-307 <io_wait>
   121c3:	be 11 00 00 00 	movl	$17, %esi
   121c8:	bf 20 00 00 00 	movl	$32, %edi
   121cd:	e8 68 fe ff ff 	callq	-408 <outb>
   121d2:	b8 00 00 00 00 	movl	$0, %eax
   121d7:	e8 b4 fe ff ff 	callq	-332 <io_wait>
   121dc:	be 11 00 00 00 	movl	$17, %esi
   121e1:	bf a0 00 00 00 	movl	$160, %edi
   121e6:	e8 4f fe ff ff 	callq	-433 <outb>
   121eb:	b8 00 00 00 00 	movl	$0, %eax
   121f0:	e8 9b fe ff ff 	callq	-357 <io_wait>
   121f5:	be 20 00 00 00 	movl	$32, %esi
   121fa:	bf 21 00 00 00 	movl	$33, %edi
   121ff:	e8 36 fe ff ff 	callq	-458 <outb>
   12204:	b8 00 00 00 00 	movl	$0, %eax
   12209:	e8 82 fe ff ff 	callq	-382 <io_wait>
   1220e:	be 28 00 00 00 	movl	$40, %esi
   12213:	bf a1 00 00 00 	movl	$161, %edi
   12218:	e8 1d fe ff ff 	callq	-483 <outb>
   1221d:	b8 00 00 00 00 	movl	$0, %eax
   12222:	e8 69 fe ff ff 	callq	-407 <io_wait>
   12227:	be 04 00 00 00 	movl	$4, %esi
   1222c:	bf 21 00 00 00 	movl	$33, %edi
   12231:	e8 04 fe ff ff 	callq	-508 <outb>
   12236:	b8 00 00 00 00 	movl	$0, %eax
   1223b:	e8 50 fe ff ff 	callq	-432 <io_wait>
   12240:	be 02 00 00 00 	movl	$2, %esi
   12245:	bf a1 00 00 00 	movl	$161, %edi
   1224a:	e8 eb fd ff ff 	callq	-533 <outb>
   1224f:	b8 00 00 00 00 	movl	$0, %eax
   12254:	e8 37 fe ff ff 	callq	-457 <io_wait>
   12259:	be 01 00 00 00 	movl	$1, %esi
   1225e:	bf 21 00 00 00 	movl	$33, %edi
   12263:	e8 d2 fd ff ff 	callq	-558 <outb>
   12268:	b8 00 00 00 00 	movl	$0, %eax
   1226d:	e8 1e fe ff ff 	callq	-482 <io_wait>
   12272:	be 01 00 00 00 	movl	$1, %esi
   12277:	bf a1 00 00 00 	movl	$161, %edi
   1227c:	e8 b9 fd ff ff 	callq	-583 <outb>
   12281:	b8 00 00 00 00 	movl	$0, %eax
   12286:	e8 05 fe ff ff 	callq	-507 <io_wait>
   1228b:	0f b6 45 ff 	movzbl	-1(%rbp), %eax
   1228f:	89 c6 	movl	%eax, %esi
   12291:	bf 21 00 00 00 	movl	$33, %edi
   12296:	e8 9f fd ff ff 	callq	-609 <outb>
   1229b:	b8 00 00 00 00 	movl	$0, %eax
   122a0:	e8 eb fd ff ff 	callq	-533 <io_wait>
   122a5:	0f b6 45 fe 	movzbl	-2(%rbp), %eax
   122a9:	89 c6 	movl	%eax, %esi
   122ab:	bf a1 00 00 00 	movl	$161, %edi
   122b0:	e8 85 fd ff ff 	callq	-635 <outb>
   122b5:	90 	nop
   122b6:	c9 	leave
   122b7:	c3 	retq

initIDT:
   122b8:	55 	pushq	%rbp
   122b9:	48 89 e5 	movq	%rsp, %rbp
   122bc:	48 83 ec 10 	subq	$16, %rsp
   122c0:	b8 00 00 00 00 	movl	$0, %eax
   122c5:	e8 3d ec ff ff 	callq	-5059 <RequestPhysicalPage>
   122ca:	48 89 05 27 1d 00 00 	movq	%rax, 7463(%rip)
   122d1:	66 c7 05 86 11 00 00 ff 0f 	movw	$4095, 4486(%rip)
   122da:	48 8b 05 17 1d 00 00 	movq	7447(%rip), %rax
   122e1:	48 89 05 7a 11 00 00 	movq	%rax, 4474(%rip)
   122e8:	48 8b 05 09 1d 00 00 	movq	7433(%rip), %rax
   122ef:	ba 00 10 00 00 	movl	$4096, %edx
   122f4:	be 00 00 00 00 	movl	$0, %esi
   122f9:	48 89 c7 	movq	%rax, %rdi
   122fc:	e8 90 e5 ff ff 	callq	-6768 <memset>
   12301:	c7 45 fc 00 00 00 00 	movl	$0, -4(%rbp)
   12308:	eb 1d 	jmp	29 <initIDT+0x6f>
   1230a:	be 70 34 01 00 	movl	$78960, %esi
   1230f:	8b 45 fc 	movl	-4(%rbp), %eax
   12312:	b9 8e 00 00 00 	movl	$142, %ecx
   12317:	ba 08 00 00 00 	movl	$8, %edx
   1231c:	89 c7 	movl	%eax, %edi
   1231e:	e8 8d fd ff ff 	callq	-627 <createIdtGate>
   12323:	83 45 fc 01 	addl	$1, -4(%rbp)
   12327:	81 7d fc ff 00 00 00 	cmpl	$255, -4(%rbp)
   1232e:	7e da 	jle	-38 <initIDT+0x52>
   12330:	b8 70 34 01 00 	movl	$78960, %eax
   12335:	b9 8e 00 00 00 	movl	$142, %ecx
   1233a:	ba 08 00 00 00 	movl	$8, %edx
   1233f:	48 89 c6 	movq	%rax, %rsi
   12342:	bf 00 00 00 00 	movl	$0, %edi
   12347:	e8 64 fd ff ff 	callq	-668 <createIdtGate>
   1234c:	b8 c0 34 01 00 	movl	$79040, %eax
   12351:	b9 8e 00 00 00 	movl	$142, %ecx
   12356:	ba 08 00 00 00 	movl	$8, %edx
   1235b:	48 89 c6 	movq	%rax, %rsi
   1235e:	bf 01 00 00 00 	movl	$1, %edi
   12363:	e8 48 fd ff ff 	callq	-696 <createIdtGate>
   12368:	b8 10 35 01 00 	movl	$79120, %eax
   1236d:	b9 8e 00 00 00 	movl	$142, %ecx
   12372:	ba 08 00 00 00 	movl	$8, %edx
   12377:	48 89 c6 	movq	%rax, %rsi
   1237a:	bf 02 00 00 00 	movl	$2, %edi
   1237f:	e8 2c fd ff ff 	callq	-724 <createIdtGate>
   12384:	b8 60 35 01 00 	movl	$79200, %eax
   12389:	b9 8e 00 00 00 	movl	$142, %ecx
   1238e:	ba 08 00 00 00 	movl	$8, %edx
   12393:	48 89 c6 	movq	%rax, %rsi
   12396:	bf 03 00 00 00 	movl	$3, %edi
   1239b:	e8 10 fd ff ff 	callq	-752 <createIdtGate>
   123a0:	b8 b0 35 01 00 	movl	$79280, %eax
   123a5:	b9 8e 00 00 00 	movl	$142, %ecx
   123aa:	ba 08 00 00 00 	movl	$8, %edx
   123af:	48 89 c6 	movq	%rax, %rsi
   123b2:	bf 04 00 00 00 	movl	$4, %edi
   123b7:	e8 f4 fc ff ff 	callq	-780 <createIdtGate>
   123bc:	b8 00 36 01 00 	movl	$79360, %eax
   123c1:	b9 8e 00 00 00 	movl	$142, %ecx
   123c6:	ba 08 00 00 00 	movl	$8, %edx
   123cb:	48 89 c6 	movq	%rax, %rsi
   123ce:	bf 05 00 00 00 	movl	$5, %edi
   123d3:	e8 d8 fc ff ff 	callq	-808 <createIdtGate>
   123d8:	b8 50 36 01 00 	movl	$79440, %eax
   123dd:	b9 8e 00 00 00 	movl	$142, %ecx
   123e2:	ba 08 00 00 00 	movl	$8, %edx
   123e7:	48 89 c6 	movq	%rax, %rsi
   123ea:	bf 06 00 00 00 	movl	$6, %edi
   123ef:	e8 bc fc ff ff 	callq	-836 <createIdtGate>
   123f4:	b8 a0 36 01 00 	movl	$79520, %eax
   123f9:	b9 8e 00 00 00 	movl	$142, %ecx
   123fe:	ba 08 00 00 00 	movl	$8, %edx
   12403:	48 89 c6 	movq	%rax, %rsi
   12406:	bf 07 00 00 00 	movl	$7, %edi
   1240b:	e8 a0 fc ff ff 	callq	-864 <createIdtGate>
   12410:	b8 f0 36 01 00 	movl	$79600, %eax
   12415:	b9 8e 00 00 00 	movl	$142, %ecx
   1241a:	ba 08 00 00 00 	movl	$8, %edx
   1241f:	48 89 c6 	movq	%rax, %rsi
   12422:	bf 08 00 00 00 	movl	$8, %edi
   12427:	e8 84 fc ff ff 	callq	-892 <createIdtGate>
   1242c:	b8 40 37 01 00 	movl	$79680, %eax
   12431:	b9 8e 00 00 00 	movl	$142, %ecx
   12436:	ba 08 00 00 00 	movl	$8, %edx
   1243b:	48 89 c6 	movq	%rax, %rsi
   1243e:	bf 09 00 00 00 	movl	$9, %edi
   12443:	e8 68 fc ff ff 	callq	-920 <createIdtGate>
   12448:	b8 90 37 01 00 	movl	$79760, %eax
   1244d:	b9 8e 00 00 00 	movl	$142, %ecx
   12452:	ba 08 00 00 00 	movl	$8, %edx
   12457:	48 89 c6 	movq	%rax, %rsi
   1245a:	bf 0a 00 00 00 	movl	$10, %edi
   1245f:	e8 4c fc ff ff 	callq	-948 <createIdtGate>
   12464:	b8 e0 37 01 00 	movl	$79840, %eax
   12469:	b9 8e 00 00 00 	movl	$142, %ecx
   1246e:	ba 08 00 00 00 	movl	$8, %edx
   12473:	48 89 c6 	movq	%rax, %rsi
   12476:	bf 0b 00 00 00 	movl	$11, %edi
   1247b:	e8 30 fc ff ff 	callq	-976 <createIdtGate>
   12480:	b8 30 38 01 00 	movl	$79920, %eax
   12485:	b9 8e 00 00 00 	movl	$142, %ecx
   1248a:	ba 08 00 00 00 	movl	$8, %edx
   1248f:	48 89 c6 	movq	%rax, %rsi
   12492:	bf 0c 00 00 00 	movl	$12, %edi
   12497:	e8 14 fc ff ff 	callq	-1004 <createIdtGate>
   1249c:	b8 80 38 01 00 	movl	$80000, %eax
   124a1:	b9 8e 00 00 00 	movl	$142, %ecx
   124a6:	ba 08 00 00 00 	movl	$8, %edx
   124ab:	48 89 c6 	movq	%rax, %rsi
   124ae:	bf 0d 00 00 00 	movl	$13, %edi
   124b3:	e8 f8 fb ff ff 	callq	-1032 <createIdtGate>
   124b8:	b8 d0 38 01 00 	movl	$80080, %eax
   124bd:	b9 8e 00 00 00 	movl	$142, %ecx
   124c2:	ba 08 00 00 00 	movl	$8, %edx
   124c7:	48 89 c6 	movq	%rax, %rsi
   124ca:	bf 0e 00 00 00 	movl	$14, %edi
   124cf:	e8 dc fb ff ff 	callq	-1060 <createIdtGate>
   124d4:	b8 20 39 01 00 	movl	$80160, %eax
   124d9:	b9 8e 00 00 00 	movl	$142, %ecx
   124de:	ba 08 00 00 00 	movl	$8, %edx
   124e3:	48 89 c6 	movq	%rax, %rsi
   124e6:	bf 10 00 00 00 	movl	$16, %edi
   124eb:	e8 c0 fb ff ff 	callq	-1088 <createIdtGate>
   124f0:	b8 70 39 01 00 	movl	$80240, %eax
   124f5:	b9 8e 00 00 00 	movl	$142, %ecx
   124fa:	ba 08 00 00 00 	movl	$8, %edx
   124ff:	48 89 c6 	movq	%rax, %rsi
   12502:	bf 11 00 00 00 	movl	$17, %edi
   12507:	e8 a4 fb ff ff 	callq	-1116 <createIdtGate>
   1250c:	b8 c0 39 01 00 	movl	$80320, %eax
   12511:	b9 8e 00 00 00 	movl	$142, %ecx
   12516:	ba 08 00 00 00 	movl	$8, %edx
   1251b:	48 89 c6 	movq	%rax, %rsi
   1251e:	bf 12 00 00 00 	movl	$18, %edi
   12523:	e8 88 fb ff ff 	callq	-1144 <createIdtGate>
   12528:	b8 10 3a 01 00 	movl	$80400, %eax
   1252d:	b9 8e 00 00 00 	movl	$142, %ecx
   12532:	ba 08 00 00 00 	movl	$8, %edx
   12537:	48 89 c6 	movq	%rax, %rsi
   1253a:	bf 13 00 00 00 	movl	$19, %edi
   1253f:	e8 6c fb ff ff 	callq	-1172 <createIdtGate>
   12544:	b8 60 3a 01 00 	movl	$80480, %eax
   12549:	b9 8e 00 00 00 	movl	$142, %ecx
   1254e:	ba 08 00 00 00 	movl	$8, %edx
   12553:	48 89 c6 	movq	%rax, %rsi
   12556:	bf 14 00 00 00 	movl	$20, %edi
   1255b:	e8 50 fb ff ff 	callq	-1200 <createIdtGate>
   12560:	b8 b0 3a 01 00 	movl	$80560, %eax
   12565:	b9 8e 00 00 00 	movl	$142, %ecx
   1256a:	ba 08 00 00 00 	movl	$8, %edx
   1256f:	48 89 c6 	movq	%rax, %rsi
   12572:	bf 1e 00 00 00 	movl	$30, %edi
   12577:	e8 34 fb ff ff 	callq	-1228 <createIdtGate>
   1257c:	b8 00 3b 01 00 	movl	$80640, %eax
   12581:	b9 8e 00 00 00 	movl	$142, %ecx
   12586:	ba 08 00 00 00 	movl	$8, %edx
   1258b:	48 89 c6 	movq	%rax, %rsi
   1258e:	bf 20 00 00 00 	movl	$32, %edi
   12593:	e8 18 fb ff ff 	callq	-1256 <createIdtGate>
   12598:	b8 50 3b 01 00 	movl	$80720, %eax
   1259d:	b9 8e 00 00 00 	movl	$142, %ecx
   125a2:	ba 08 00 00 00 	movl	$8, %edx
   125a7:	48 89 c6 	movq	%rax, %rsi
   125aa:	bf 21 00 00 00 	movl	$33, %edi
   125af:	e8 fc fa ff ff 	callq	-1284 <createIdtGate>
   125b4:	b8 a0 3b 01 00 	movl	$80800, %eax
   125b9:	b9 8e 00 00 00 	movl	$142, %ecx
   125be:	ba 08 00 00 00 	movl	$8, %edx
   125c3:	48 89 c6 	movq	%rax, %rsi
   125c6:	bf 22 00 00 00 	movl	$34, %edi
   125cb:	e8 e0 fa ff ff 	callq	-1312 <createIdtGate>
   125d0:	b8 f0 3b 01 00 	movl	$80880, %eax
   125d5:	b9 8e 00 00 00 	movl	$142, %ecx
   125da:	ba 08 00 00 00 	movl	$8, %edx
   125df:	48 89 c6 	movq	%rax, %rsi
   125e2:	bf 23 00 00 00 	movl	$35, %edi
   125e7:	e8 c4 fa ff ff 	callq	-1340 <createIdtGate>
   125ec:	b8 40 3c 01 00 	movl	$80960, %eax
   125f1:	b9 8e 00 00 00 	movl	$142, %ecx
   125f6:	ba 08 00 00 00 	movl	$8, %edx
   125fb:	48 89 c6 	movq	%rax, %rsi
   125fe:	bf 24 00 00 00 	movl	$36, %edi
   12603:	e8 a8 fa ff ff 	callq	-1368 <createIdtGate>
   12608:	b8 90 3c 01 00 	movl	$81040, %eax
   1260d:	b9 8e 00 00 00 	movl	$142, %ecx
   12612:	ba 08 00 00 00 	movl	$8, %edx
   12617:	48 89 c6 	movq	%rax, %rsi
   1261a:	bf 25 00 00 00 	movl	$37, %edi
   1261f:	e8 8c fa ff ff 	callq	-1396 <createIdtGate>
   12624:	b8 e0 3c 01 00 	movl	$81120, %eax
   12629:	b9 8e 00 00 00 	movl	$142, %ecx
   1262e:	ba 08 00 00 00 	movl	$8, %edx
   12633:	48 89 c6 	movq	%rax, %rsi
   12636:	bf 26 00 00 00 	movl	$38, %edi
   1263b:	e8 70 fa ff ff 	callq	-1424 <createIdtGate>
   12640:	b8 30 3d 01 00 	movl	$81200, %eax
   12645:	b9 8e 00 00 00 	movl	$142, %ecx
   1264a:	ba 08 00 00 00 	movl	$8, %edx
   1264f:	48 89 c6 	movq	%rax, %rsi
   12652:	bf 27 00 00 00 	movl	$39, %edi
   12657:	e8 54 fa ff ff 	callq	-1452 <createIdtGate>
   1265c:	b8 80 3d 01 00 	movl	$81280, %eax
   12661:	b9 8e 00 00 00 	movl	$142, %ecx
   12666:	ba 08 00 00 00 	movl	$8, %edx
   1266b:	48 89 c6 	movq	%rax, %rsi
   1266e:	bf 28 00 00 00 	movl	$40, %edi
   12673:	e8 38 fa ff ff 	callq	-1480 <createIdtGate>
   12678:	b8 d0 3d 01 00 	movl	$81360, %eax
   1267d:	b9 8e 00 00 00 	movl	$142, %ecx
   12682:	ba 08 00 00 00 	movl	$8, %edx
   12687:	48 89 c6 	movq	%rax, %rsi
   1268a:	bf 29 00 00 00 	movl	$41, %edi
   1268f:	e8 1c fa ff ff 	callq	-1508 <createIdtGate>
   12694:	b8 20 3e 01 00 	movl	$81440, %eax
   12699:	b9 8e 00 00 00 	movl	$142, %ecx
   1269e:	ba 08 00 00 00 	movl	$8, %edx
   126a3:	48 89 c6 	movq	%rax, %rsi
   126a6:	bf 2a 00 00 00 	movl	$42, %edi
   126ab:	e8 00 fa ff ff 	callq	-1536 <createIdtGate>
   126b0:	b8 70 3e 01 00 	movl	$81520, %eax
   126b5:	b9 8e 00 00 00 	movl	$142, %ecx
   126ba:	ba 08 00 00 00 	movl	$8, %edx
   126bf:	48 89 c6 	movq	%rax, %rsi
   126c2:	bf 2b 00 00 00 	movl	$43, %edi
   126c7:	e8 e4 f9 ff ff 	callq	-1564 <createIdtGate>
   126cc:	b8 c0 3e 01 00 	movl	$81600, %eax
   126d1:	b9 8e 00 00 00 	movl	$142, %ecx
   126d6:	ba 08 00 00 00 	movl	$8, %edx
   126db:	48 89 c6 	movq	%rax, %rsi
   126de:	bf 2c 00 00 00 	movl	$44, %edi
   126e3:	e8 c8 f9 ff ff 	callq	-1592 <createIdtGate>
   126e8:	b8 10 3f 01 00 	movl	$81680, %eax
   126ed:	b9 8e 00 00 00 	movl	$142, %ecx
   126f2:	ba 08 00 00 00 	movl	$8, %edx
   126f7:	48 89 c6 	movq	%rax, %rsi
   126fa:	bf 2d 00 00 00 	movl	$45, %edi
   126ff:	e8 ac f9 ff ff 	callq	-1620 <createIdtGate>
   12704:	b8 60 3f 01 00 	movl	$81760, %eax
   12709:	b9 8e 00 00 00 	movl	$142, %ecx
   1270e:	ba 08 00 00 00 	movl	$8, %edx
   12713:	48 89 c6 	movq	%rax, %rsi
   12716:	bf 2e 00 00 00 	movl	$46, %edi
   1271b:	e8 90 f9 ff ff 	callq	-1648 <createIdtGate>
   12720:	b8 b0 3f 01 00 	movl	$81840, %eax
   12725:	b9 8e 00 00 00 	movl	$142, %ecx
   1272a:	ba 08 00 00 00 	movl	$8, %edx
   1272f:	48 89 c6 	movq	%rax, %rsi
   12732:	bf 2f 00 00 00 	movl	$47, %edi
   12737:	e8 74 f9 ff ff 	callq	-1676 <createIdtGate>
   1273c:	b8 00 00 00 00 	movl	$0, %eax
   12741:	e8 47 fa ff ff 	callq	-1465 <init_pic>
   12746:	bf 60 34 01 00 	movl	$78944, %edi
   1274b:	e8 4e f9 ff ff 	callq	-1714 <idt_flush>
   12750:	be 00 00 00 00 	movl	$0, %esi
   12755:	bf 21 00 00 00 	movl	$33, %edi
   1275a:	e8 db f8 ff ff 	callq	-1829 <outb>
   1275f:	be 00 00 00 00 	movl	$0, %esi
   12764:	bf a1 00 00 00 	movl	$161, %edi
   12769:	e8 cc f8 ff ff 	callq	-1844 <outb>
   1276e:	fb 	sti
   1276f:	90 	nop
   12770:	c9 	leave
   12771:	c3 	retq

isr0_handler:
   12772:	55 	pushq	%rbp
   12773:	48 89 e5 	movq	%rsp, %rbp
   12776:	48 89 7d f8 	movq	%rdi, -8(%rbp)
   1277a:	eb fe 	jmp	-2 <isr0_handler+0x8>

isr1_handler:
   1277c:	55 	pushq	%rbp
   1277d:	48 89 e5 	movq	%rsp, %rbp
   12780:	48 89 7d f8 	movq	%rdi, -8(%rbp)
   12784:	eb fe 	jmp	-2 <isr1_handler+0x8>

isr2_handler:
   12786:	55 	pushq	%rbp
   12787:	48 89 e5 	movq	%rsp, %rbp
   1278a:	48 89 7d f8 	movq	%rdi, -8(%rbp)
   1278e:	eb fe 	jmp	-2 <isr2_handler+0x8>

isr3_handler:
   12790:	55 	pushq	%rbp
   12791:	48 89 e5 	movq	%rsp, %rbp
   12794:	48 89 7d f8 	movq	%rdi, -8(%rbp)
   12798:	eb fe 	jmp	-2 <isr3_handler+0x8>

isr4_handler:
   1279a:	55 	pushq	%rbp
   1279b:	48 89 e5 	movq	%rsp, %rbp
   1279e:	48 89 7d f8 	movq	%rdi, -8(%rbp)
   127a2:	eb fe 	jmp	-2 <isr4_handler+0x8>

isr5_handler:
   127a4:	55 	pushq	%rbp
   127a5:	48 89 e5 	movq	%rsp, %rbp
   127a8:	48 89 7d f8 	movq	%rdi, -8(%rbp)
   127ac:	eb fe 	jmp	-2 <isr5_handler+0x8>

isr6_handler:
   127ae:	55 	pushq	%rbp
   127af:	48 89 e5 	movq	%rsp, %rbp
   127b2:	48 89 7d f8 	movq	%rdi, -8(%rbp)
   127b6:	eb fe 	jmp	-2 <isr6_handler+0x8>

isr7_handler:
   127b8:	55 	pushq	%rbp
   127b9:	48 89 e5 	movq	%rsp, %rbp
   127bc:	48 89 7d f8 	movq	%rdi, -8(%rbp)
   127c0:	eb fe 	jmp	-2 <isr7_handler+0x8>

isr8_handler:
   127c2:	55 	pushq	%rbp
   127c3:	48 89 e5 	movq	%rsp, %rbp
   127c6:	48 89 7d f8 	movq	%rdi, -8(%rbp)
   127ca:	eb fe 	jmp	-2 <isr8_handler+0x8>

isr9_handler:
   127cc:	55 	pushq	%rbp
   127cd:	48 89 e5 	movq	%rsp, %rbp
   127d0:	48 89 7d f8 	movq	%rdi, -8(%rbp)
   127d4:	eb fe 	jmp	-2 <isr9_handler+0x8>

isr10_handler:
   127d6:	55 	pushq	%rbp
   127d7:	48 89 e5 	movq	%rsp, %rbp
   127da:	48 89 7d f8 	movq	%rdi, -8(%rbp)
   127de:	eb fe 	jmp	-2 <isr10_handler+0x8>

isr11_handler:
   127e0:	55 	pushq	%rbp
   127e1:	48 89 e5 	movq	%rsp, %rbp
   127e4:	48 89 7d f8 	movq	%rdi, -8(%rbp)
   127e8:	eb fe 	jmp	-2 <isr11_handler+0x8>

isr12_handler:
   127ea:	55 	pushq	%rbp
   127eb:	48 89 e5 	movq	%rsp, %rbp
   127ee:	48 89 7d f8 	movq	%rdi, -8(%rbp)
   127f2:	eb fe 	jmp	-2 <isr12_handler+0x8>

isr13_handler:
   127f4:	55 	pushq	%rbp
   127f5:	48 89 e5 	movq	%rsp, %rbp
   127f8:	48 89 7d f8 	movq	%rdi, -8(%rbp)
   127fc:	eb fe 	jmp	-2 <isr13_handler+0x8>

isr14_handler:
   127fe:	55 	pushq	%rbp
   127ff:	48 89 e5 	movq	%rsp, %rbp
   12802:	48 89 7d f8 	movq	%rdi, -8(%rbp)
   12806:	eb fe 	jmp	-2 <isr14_handler+0x8>

isr16_handler:
   12808:	55 	pushq	%rbp
   12809:	48 89 e5 	movq	%rsp, %rbp
   1280c:	48 89 7d f8 	movq	%rdi, -8(%rbp)
   12810:	eb fe 	jmp	-2 <isr16_handler+0x8>

isr17_handler:
   12812:	55 	pushq	%rbp
   12813:	48 89 e5 	movq	%rsp, %rbp
   12816:	48 89 7d f8 	movq	%rdi, -8(%rbp)
   1281a:	eb fe 	jmp	-2 <isr17_handler+0x8>

isr18_handler:
   1281c:	55 	pushq	%rbp
   1281d:	48 89 e5 	movq	%rsp, %rbp
   12820:	48 89 7d f8 	movq	%rdi, -8(%rbp)
   12824:	eb fe 	jmp	-2 <isr18_handler+0x8>

isr19_handler:
   12826:	55 	pushq	%rbp
   12827:	48 89 e5 	movq	%rsp, %rbp
   1282a:	48 89 7d f8 	movq	%rdi, -8(%rbp)
   1282e:	eb fe 	jmp	-2 <isr19_handler+0x8>

isr20_handler:
   12830:	55 	pushq	%rbp
   12831:	48 89 e5 	movq	%rsp, %rbp
   12834:	48 89 7d f8 	movq	%rdi, -8(%rbp)
   12838:	eb fe 	jmp	-2 <isr20_handler+0x8>

isr30_handler:
   1283a:	55 	pushq	%rbp
   1283b:	48 89 e5 	movq	%rsp, %rbp
   1283e:	48 89 7d f8 	movq	%rdi, -8(%rbp)
   12842:	eb fe 	jmp	-2 <isr30_handler+0x8>

putpixel:
   12844:	55 	pushq	%rbp
   12845:	48 89 e5 	movq	%rsp, %rbp
   12848:	48 89 7d e8 	movq	%rdi, -24(%rbp)
   1284c:	48 89 75 e0 	movq	%rsi, -32(%rbp)
   12850:	89 55 dc 	movl	%edx, -36(%rbp)
   12853:	8b 05 74 0b 00 00 	movl	2932(%rip), %eax
   12859:	89 c0 	movl	%eax, %eax
   1285b:	48 89 45 f8 	movq	%rax, -8(%rbp)
   1285f:	0f b7 05 5c 0b 00 00 	movzwl	2908(%rip), %eax
   12866:	0f b7 c0 	movzwl	%ax, %eax
   12869:	48 0f af 45 e0 	imulq	-32(%rbp), %rax
   1286e:	48 89 c2 	movq	%rax, %rdx
   12871:	48 8b 45 e8 	movq	-24(%rbp), %rax
   12875:	48 01 c2 	addq	%rax, %rdx
   12878:	0f b6 05 47 0b 00 00 	movzbl	2887(%rip), %eax
   1287f:	c0 e8 03 	shrb	$3, %al
   12882:	0f b6 c0 	movzbl	%al, %eax
   12885:	48 0f af c2 	imulq	%rdx, %rax
   12889:	48 89 45 f0 	movq	%rax, -16(%rbp)
   1288d:	8b 45 dc 	movl	-36(%rbp), %eax
   12890:	c1 e8 10 	shrl	$16, %eax
   12893:	89 c2 	movl	%eax, %edx
   12895:	48 8b 45 f0 	movq	-16(%rbp), %rax
   12899:	48 8d 48 02 	leaq	2(%rax), %rcx
   1289d:	48 8b 45 f8 	movq	-8(%rbp), %rax
   128a1:	48 01 c8 	addq	%rcx, %rax
   128a4:	88 10 	movb	%dl, (%rax)
   128a6:	8b 45 dc 	movl	-36(%rbp), %eax
   128a9:	c1 e8 08 	shrl	$8, %eax
   128ac:	89 c2 	movl	%eax, %edx
   128ae:	48 8b 45 f0 	movq	-16(%rbp), %rax
   128b2:	48 8d 48 01 	leaq	1(%rax), %rcx
   128b6:	48 8b 45 f8 	movq	-8(%rbp), %rax
   128ba:	48 01 c8 	addq	%rcx, %rax
   128bd:	88 10 	movb	%dl, (%rax)
   128bf:	48 8b 55 f8 	movq	-8(%rbp), %rdx
   128c3:	48 8b 45 f0 	movq	-16(%rbp), %rax
   128c7:	48 01 d0 	addq	%rdx, %rax
   128ca:	8b 55 dc 	movl	-36(%rbp), %edx
   128cd:	88 10 	movb	%dl, (%rax)
   128cf:	90 	nop
   128d0:	5d 	popq	%rbp
   128d1:	c3 	retq

getpixel:
   128d2:	55 	pushq	%rbp
   128d3:	48 89 e5 	movq	%rsp, %rbp
   128d6:	89 7d dc 	movl	%edi, -36(%rbp)
   128d9:	89 75 d8 	movl	%esi, -40(%rbp)
   128dc:	8b 05 eb 0a 00 00 	movl	2795(%rip), %eax
   128e2:	89 c0 	movl	%eax, %eax
   128e4:	48 89 45 f8 	movq	%rax, -8(%rbp)
   128e8:	8b 45 d8 	movl	-40(%rbp), %eax
   128eb:	69 d0 80 07 00 00 	imull	$1920, %eax, %edx
   128f1:	8b 45 dc 	movl	-36(%rbp), %eax
   128f4:	01 d0 	addl	%edx, %eax
   128f6:	c1 e0 02 	shll	$2, %eax
   128f9:	48 98 	cltq
   128fb:	48 89 45 f0 	movq	%rax, -16(%rbp)
   128ff:	48 8b 55 f8 	movq	-8(%rbp), %rdx
   12903:	48 8b 45 f0 	movq	-16(%rbp), %rax
   12907:	48 01 d0 	addq	%rdx, %rax
   1290a:	0f b6 00 	movzbl	(%rax), %eax
   1290d:	0f b6 d0 	movzbl	%al, %edx
   12910:	48 8b 4d f8 	movq	-8(%rbp), %rcx
   12914:	48 8b 45 f0 	movq	-16(%rbp), %rax
   12918:	48 01 c8 	addq	%rcx, %rax
   1291b:	0f b6 00 	movzbl	(%rax), %eax
   1291e:	0f b6 c0 	movzbl	%al, %eax
   12921:	c1 e0 08 	shll	$8, %eax
   12924:	8d 0c 02 	leal	(%rdx,%rax), %ecx
   12927:	48 8b 55 f8 	movq	-8(%rbp), %rdx
   1292b:	48 8b 45 f0 	movq	-16(%rbp), %rax
   1292f:	48 01 d0 	addq	%rdx, %rax
   12932:	0f b6 00 	movzbl	(%rax), %eax
   12935:	0f b6 c0 	movzbl	%al, %eax
   12938:	c1 e0 10 	shll	$16, %eax
   1293b:	01 c8 	addl	%ecx, %eax
   1293d:	89 45 ec 	movl	%eax, -20(%rbp)
   12940:	8b 45 ec 	movl	-20(%rbp), %eax
   12943:	5d 	popq	%rbp
   12944:	c3 	retq

drawLine:
   12945:	55 	pushq	%rbp
   12946:	48 89 e5 	movq	%rsp, %rbp
   12949:	53 	pushq	%rbx
   1294a:	48 83 ec 48 	subq	$72, %rsp
   1294e:	89 7d cc 	movl	%edi, -52(%rbp)
   12951:	89 75 c8 	movl	%esi, -56(%rbp)
   12954:	89 55 c4 	movl	%edx, -60(%rbp)
   12957:	89 4d c0 	movl	%ecx, -64(%rbp)
   1295a:	44 89 45 bc 	movl	%r8d, -68(%rbp)
   1295e:	8b 45 c0 	movl	-64(%rbp), %eax
   12961:	2b 45 c8 	subl	-56(%rbp), %eax
   12964:	89 c7 	movl	%eax, %edi
   12966:	b8 00 00 00 00 	movl	$0, %eax
   1296b:	e8 a1 d8 ff ff 	callq	-10079 <abs>
   12970:	89 c3 	movl	%eax, %ebx
   12972:	8b 45 c4 	movl	-60(%rbp), %eax
   12975:	2b 45 cc 	subl	-52(%rbp), %eax
   12978:	89 c7 	movl	%eax, %edi
   1297a:	b8 00 00 00 00 	movl	$0, %eax
   1297f:	e8 8d d8 ff ff 	callq	-10099 <abs>
   12984:	39 c3 	cmpl	%eax, %ebx
   12986:	0f 9f c0 	setg	%al
   12989:	0f b6 c0 	movzbl	%al, %eax
   1298c:	89 45 e4 	movl	%eax, -28(%rbp)
   1298f:	83 7d e4 00 	cmpl	$0, -28(%rbp)
   12993:	74 24 	je	36 <drawLine+0x74>
   12995:	8b 45 cc 	movl	-52(%rbp), %eax
   12998:	89 45 e0 	movl	%eax, -32(%rbp)
   1299b:	8b 45 c8 	movl	-56(%rbp), %eax
   1299e:	89 45 cc 	movl	%eax, -52(%rbp)
   129a1:	8b 45 e0 	movl	-32(%rbp), %eax
   129a4:	89 45 c8 	movl	%eax, -56(%rbp)
   129a7:	8b 45 c4 	movl	-60(%rbp), %eax
   129aa:	89 45 e0 	movl	%eax, -32(%rbp)
   129ad:	8b 45 c0 	movl	-64(%rbp), %eax
   129b0:	89 45 c4 	movl	%eax, -60(%rbp)
   129b3:	8b 45 e0 	movl	-32(%rbp), %eax
   129b6:	89 45 c0 	movl	%eax, -64(%rbp)
   129b9:	8b 45 cc 	movl	-52(%rbp), %eax
   129bc:	3b 45 c4 	cmpl	-60(%rbp), %eax
   129bf:	7e 24 	jle	36 <drawLine+0xa0>
   129c1:	8b 45 cc 	movl	-52(%rbp), %eax
   129c4:	89 45 dc 	movl	%eax, -36(%rbp)
   129c7:	8b 45 c4 	movl	-60(%rbp), %eax
   129ca:	89 45 cc 	movl	%eax, -52(%rbp)
   129cd:	8b 45 dc 	movl	-36(%rbp), %eax
   129d0:	89 45 c4 	movl	%eax, -60(%rbp)
   129d3:	8b 45 c8 	movl	-56(%rbp), %eax
   129d6:	89 45 dc 	movl	%eax, -36(%rbp)
   129d9:	8b 45 c0 	movl	-64(%rbp), %eax
   129dc:	89 45 c8 	movl	%eax, -56(%rbp)
   129df:	8b 45 dc 	movl	-36(%rbp), %eax
   129e2:	89 45 c0 	movl	%eax, -64(%rbp)
   129e5:	8b 45 c4 	movl	-60(%rbp), %eax
   129e8:	2b 45 cc 	subl	-52(%rbp), %eax
   129eb:	89 45 d8 	movl	%eax, -40(%rbp)
   129ee:	8b 45 c0 	movl	-64(%rbp), %eax
   129f1:	2b 45 c8 	subl	-56(%rbp), %eax
   129f4:	89 c7 	movl	%eax, %edi
   129f6:	b8 00 00 00 00 	movl	$0, %eax
   129fb:	e8 11 d8 ff ff 	callq	-10223 <abs>
   12a00:	89 45 d4 	movl	%eax, -44(%rbp)
   12a03:	8b 45 d8 	movl	-40(%rbp), %eax
   12a06:	89 c2 	movl	%eax, %edx
   12a08:	c1 ea 1f 	shrl	$31, %edx
   12a0b:	01 d0 	addl	%edx, %eax
   12a0d:	d1 f8 	sarl	%eax
   12a0f:	89 45 ec 	movl	%eax, -20(%rbp)
   12a12:	8b 45 c8 	movl	-56(%rbp), %eax
   12a15:	3b 45 c0 	cmpl	-64(%rbp), %eax
   12a18:	7d 09 	jge	9 <drawLine+0xde>
   12a1a:	c7 45 e8 01 00 00 00 	movl	$1, -24(%rbp)
   12a21:	eb 5f 	jmp	95 <drawLine+0x13d>
   12a23:	c7 45 e8 ff ff ff ff 	movl	$4294967295, -24(%rbp)
   12a2a:	eb 56 	jmp	86 <drawLine+0x13d>
   12a2c:	83 7d e4 00 	cmpl	$0, -28(%rbp)
   12a30:	74 1b 	je	27 <drawLine+0x108>
   12a32:	8b 45 cc 	movl	-52(%rbp), %eax
   12a35:	48 63 c8 	movslq	%eax, %rcx
   12a38:	8b 45 c8 	movl	-56(%rbp), %eax
   12a3b:	48 98 	cltq
   12a3d:	8b 55 bc 	movl	-68(%rbp), %edx
   12a40:	48 89 ce 	movq	%rcx, %rsi
   12a43:	48 89 c7 	movq	%rax, %rdi
   12a46:	e8 f9 fd ff ff 	callq	-519 <putpixel>
   12a4b:	eb 19 	jmp	25 <drawLine+0x121>
   12a4d:	8b 45 c8 	movl	-56(%rbp), %eax
   12a50:	48 63 c8 	movslq	%eax, %rcx
   12a53:	8b 45 cc 	movl	-52(%rbp), %eax
   12a56:	48 98 	cltq
   12a58:	8b 55 bc 	movl	-68(%rbp), %edx
   12a5b:	48 89 ce 	movq	%rcx, %rsi
   12a5e:	48 89 c7 	movq	%rax, %rdi
   12a61:	e8 de fd ff ff 	callq	-546 <putpixel>
   12a66:	8b 45 d4 	movl	-44(%rbp), %eax
   12a69:	29 45 ec 	subl	%eax, -20(%rbp)
   12a6c:	83 7d ec 00 	cmpl	$0, -20(%rbp)
   12a70:	79 0c 	jns	12 <drawLine+0x139>
   12a72:	8b 45 e8 	movl	-24(%rbp), %eax
   12a75:	01 45 c8 	addl	%eax, -56(%rbp)
   12a78:	8b 45 d8 	movl	-40(%rbp), %eax
   12a7b:	01 45 ec 	addl	%eax, -20(%rbp)
   12a7e:	83 45 cc 01 	addl	$1, -52(%rbp)
   12a82:	8b 45 cc 	movl	-52(%rbp), %eax
   12a85:	3b 45 c4 	cmpl	-60(%rbp), %eax
   12a88:	7e a2 	jle	-94 <drawLine+0xe7>
   12a8a:	90 	nop
   12a8b:	90 	nop
   12a8c:	48 8b 5d f8 	movq	-8(%rbp), %rbx
   12a90:	c9 	leave
   12a91:	c3 	retq

drawVLine:
   12a92:	55 	pushq	%rbp
   12a93:	48 89 e5 	movq	%rsp, %rbp
   12a96:	89 7d dc 	movl	%edi, -36(%rbp)
   12a99:	89 75 d8 	movl	%esi, -40(%rbp)
   12a9c:	89 55 d4 	movl	%edx, -44(%rbp)
   12a9f:	89 4d d0 	movl	%ecx, -48(%rbp)
   12aa2:	8b 05 25 09 00 00 	movl	2341(%rip), %eax
   12aa8:	89 c0 	movl	%eax, %eax
   12aaa:	48 89 45 f0 	movq	%rax, -16(%rbp)
   12aae:	8b 45 d8 	movl	-40(%rbp), %eax
   12ab1:	69 d0 80 07 00 00 	imull	$1920, %eax, %edx
   12ab7:	8b 45 dc 	movl	-36(%rbp), %eax
   12aba:	01 d0 	addl	%edx, %eax
   12abc:	c1 e0 02 	shll	$2, %eax
   12abf:	48 98 	cltq
   12ac1:	48 89 45 e8 	movq	%rax, -24(%rbp)
   12ac5:	c7 45 fc 00 00 00 00 	movl	$0, -4(%rbp)
   12acc:	eb 77 	jmp	119 <drawVLine+0xb3>
   12ace:	8b 45 d0 	movl	-48(%rbp), %eax
   12ad1:	c1 f8 10 	sarl	$16, %eax
   12ad4:	89 c1 	movl	%eax, %ecx
   12ad6:	8b 45 fc 	movl	-4(%rbp), %eax
   12ad9:	69 c0 00 1e 00 00 	imull	$7680, %eax, %eax
   12adf:	48 63 d0 	movslq	%eax, %rdx
   12ae2:	48 8b 45 e8 	movq	-24(%rbp), %rax
   12ae6:	48 01 d0 	addq	%rdx, %rax
   12ae9:	48 8d 50 02 	leaq	2(%rax), %rdx
   12aed:	48 8b 45 f0 	movq	-16(%rbp), %rax
   12af1:	48 01 d0 	addq	%rdx, %rax
   12af4:	89 ca 	movl	%ecx, %edx
   12af6:	88 10 	movb	%dl, (%rax)
   12af8:	8b 45 d0 	movl	-48(%rbp), %eax
   12afb:	c1 f8 08 	sarl	$8, %eax
   12afe:	89 c1 	movl	%eax, %ecx
   12b00:	8b 45 fc 	movl	-4(%rbp), %eax
   12b03:	69 c0 00 1e 00 00 	imull	$7680, %eax, %eax
   12b09:	48 63 d0 	movslq	%eax, %rdx
   12b0c:	48 8b 45 e8 	movq	-24(%rbp), %rax
   12b10:	48 01 d0 	addq	%rdx, %rax
   12b13:	48 8d 50 01 	leaq	1(%rax), %rdx
   12b17:	48 8b 45 f0 	movq	-16(%rbp), %rax
   12b1b:	48 01 d0 	addq	%rdx, %rax
   12b1e:	89 ca 	movl	%ecx, %edx
   12b20:	88 10 	movb	%dl, (%rax)
   12b22:	8b 45 fc 	movl	-4(%rbp), %eax
   12b25:	69 c0 00 1e 00 00 	imull	$7680, %eax, %eax
   12b2b:	48 63 d0 	movslq	%eax, %rdx
   12b2e:	48 8b 45 e8 	movq	-24(%rbp), %rax
   12b32:	48 01 c2 	addq	%rax, %rdx
   12b35:	48 8b 45 f0 	movq	-16(%rbp), %rax
   12b39:	48 01 d0 	addq	%rdx, %rax
   12b3c:	8b 55 d0 	movl	-48(%rbp), %edx
   12b3f:	88 10 	movb	%dl, (%rax)
   12b41:	83 45 fc 01 	addl	$1, -4(%rbp)
   12b45:	8b 45 fc 	movl	-4(%rbp), %eax
   12b48:	3b 45 d4 	cmpl	-44(%rbp), %eax
   12b4b:	7c 81 	jl	-127 <drawVLine+0x3c>
   12b4d:	90 	nop
   12b4e:	90 	nop
   12b4f:	5d 	popq	%rbp
   12b50:	c3 	retq

drawHLine:
   12b51:	55 	pushq	%rbp
   12b52:	48 89 e5 	movq	%rsp, %rbp
   12b55:	89 7d dc 	movl	%edi, -36(%rbp)
   12b58:	89 75 d8 	movl	%esi, -40(%rbp)
   12b5b:	89 55 d4 	movl	%edx, -44(%rbp)
   12b5e:	89 4d d0 	movl	%ecx, -48(%rbp)
   12b61:	8b 05 66 08 00 00 	movl	2150(%rip), %eax
   12b67:	89 c0 	movl	%eax, %eax
   12b69:	48 89 45 f0 	movq	%rax, -16(%rbp)
   12b6d:	8b 45 d8 	movl	-40(%rbp), %eax
   12b70:	69 d0 80 07 00 00 	imull	$1920, %eax, %edx
   12b76:	8b 45 dc 	movl	-36(%rbp), %eax
   12b79:	01 d0 	addl	%edx, %eax
   12b7b:	c1 e0 02 	shll	$2, %eax
   12b7e:	48 98 	cltq
   12b80:	48 89 45 e8 	movq	%rax, -24(%rbp)
   12b84:	c7 45 fc 00 00 00 00 	movl	$0, -4(%rbp)
   12b8b:	eb 6e 	jmp	110 <drawHLine+0xaa>
   12b8d:	8b 45 d0 	movl	-48(%rbp), %eax
   12b90:	c1 f8 10 	sarl	$16, %eax
   12b93:	89 c1 	movl	%eax, %ecx
   12b95:	8b 45 fc 	movl	-4(%rbp), %eax
   12b98:	c1 e0 02 	shll	$2, %eax
   12b9b:	48 63 d0 	movslq	%eax, %rdx
   12b9e:	48 8b 45 e8 	movq	-24(%rbp), %rax
   12ba2:	48 01 d0 	addq	%rdx, %rax
   12ba5:	48 8d 50 02 	leaq	2(%rax), %rdx
   12ba9:	48 8b 45 f0 	movq	-16(%rbp), %rax
   12bad:	48 01 d0 	addq	%rdx, %rax
   12bb0:	89 ca 	movl	%ecx, %edx
   12bb2:	88 10 	movb	%dl, (%rax)
   12bb4:	8b 45 d0 	movl	-48(%rbp), %eax
   12bb7:	c1 f8 08 	sarl	$8, %eax
   12bba:	89 c1 	movl	%eax, %ecx
   12bbc:	8b 45 fc 	movl	-4(%rbp), %eax
   12bbf:	c1 e0 02 	shll	$2, %eax
   12bc2:	48 63 d0 	movslq	%eax, %rdx
   12bc5:	48 8b 45 e8 	movq	-24(%rbp), %rax
   12bc9:	48 01 d0 	addq	%rdx, %rax
   12bcc:	48 8d 50 01 	leaq	1(%rax), %rdx
   12bd0:	48 8b 45 f0 	movq	-16(%rbp), %rax
   12bd4:	48 01 d0 	addq	%rdx, %rax
   12bd7:	89 ca 	movl	%ecx, %edx
   12bd9:	88 10 	movb	%dl, (%rax)
   12bdb:	8b 45 fc 	movl	-4(%rbp), %eax
   12bde:	c1 e0 02 	shll	$2, %eax
   12be1:	48 63 d0 	movslq	%eax, %rdx
   12be4:	48 8b 45 e8 	movq	-24(%rbp), %rax
   12be8:	48 01 c2 	addq	%rax, %rdx
   12beb:	48 8b 45 f0 	movq	-16(%rbp), %rax
   12bef:	48 01 d0 	addq	%rdx, %rax
   12bf2:	8b 55 d0 	movl	-48(%rbp), %edx
   12bf5:	88 10 	movb	%dl, (%rax)
   12bf7:	83 45 fc 01 	addl	$1, -4(%rbp)
   12bfb:	8b 45 fc 	movl	-4(%rbp), %eax
   12bfe:	3b 45 d4 	cmpl	-44(%rbp), %eax
   12c01:	7c 8a 	jl	-118 <drawHLine+0x3c>
   12c03:	90 	nop
   12c04:	90 	nop
   12c05:	5d 	popq	%rbp
   12c06:	c3 	retq

drawRect:
   12c07:	55 	pushq	%rbp
   12c08:	48 89 e5 	movq	%rsp, %rbp
   12c0b:	48 83 ec 18 	subq	$24, %rsp
   12c0f:	89 7d fc 	movl	%edi, -4(%rbp)
   12c12:	89 75 f8 	movl	%esi, -8(%rbp)
   12c15:	89 55 f4 	movl	%edx, -12(%rbp)
   12c18:	89 4d f0 	movl	%ecx, -16(%rbp)
   12c1b:	44 89 45 ec 	movl	%r8d, -20(%rbp)
   12c1f:	8b 4d ec 	movl	-20(%rbp), %ecx
   12c22:	8b 55 f0 	movl	-16(%rbp), %edx
   12c25:	8b 75 f8 	movl	-8(%rbp), %esi
   12c28:	8b 45 fc 	movl	-4(%rbp), %eax
   12c2b:	89 c7 	movl	%eax, %edi
   12c2d:	e8 1f ff ff ff 	callq	-225 <drawHLine>
   12c32:	8b 4d ec 	movl	-20(%rbp), %ecx
   12c35:	8b 55 f4 	movl	-12(%rbp), %edx
   12c38:	8b 75 f8 	movl	-8(%rbp), %esi
   12c3b:	8b 45 fc 	movl	-4(%rbp), %eax
   12c3e:	89 c7 	movl	%eax, %edi
   12c40:	e8 4d fe ff ff 	callq	-435 <drawVLine>
   12c45:	8b 55 f8 	movl	-8(%rbp), %edx
   12c48:	8b 45 f4 	movl	-12(%rbp), %eax
   12c4b:	8d 34 02 	leal	(%rdx,%rax), %esi
   12c4e:	8b 4d ec 	movl	-20(%rbp), %ecx
   12c51:	8b 55 f0 	movl	-16(%rbp), %edx
   12c54:	8b 45 fc 	movl	-4(%rbp), %eax
   12c57:	89 c7 	movl	%eax, %edi
   12c59:	e8 f3 fe ff ff 	callq	-269 <drawHLine>
   12c5e:	8b 55 fc 	movl	-4(%rbp), %edx
   12c61:	8b 45 f0 	movl	-16(%rbp), %eax
   12c64:	8d 3c 02 	leal	(%rdx,%rax), %edi
   12c67:	8b 4d ec 	movl	-20(%rbp), %ecx
   12c6a:	8b 55 f4 	movl	-12(%rbp), %edx
   12c6d:	8b 45 f8 	movl	-8(%rbp), %eax
   12c70:	89 c6 	movl	%eax, %esi
   12c72:	e8 1b fe ff ff 	callq	-485 <drawVLine>
   12c77:	90 	nop
   12c78:	c9 	leave
   12c79:	c3 	retq

fillRect:
   12c7a:	55 	pushq	%rbp
   12c7b:	48 89 e5 	movq	%rsp, %rbp
   12c7e:	89 7d dc 	movl	%edi, -36(%rbp)
   12c81:	89 75 d8 	movl	%esi, -40(%rbp)
   12c84:	89 55 d4 	movl	%edx, -44(%rbp)
   12c87:	89 4d d0 	movl	%ecx, -48(%rbp)
   12c8a:	44 89 45 cc 	movl	%r8d, -52(%rbp)
   12c8e:	8b 05 39 07 00 00 	movl	1849(%rip), %eax
   12c94:	89 c0 	movl	%eax, %eax
   12c96:	48 89 45 e8 	movq	%rax, -24(%rbp)
   12c9a:	8b 45 d8 	movl	-40(%rbp), %eax
   12c9d:	69 d0 80 07 00 00 	imull	$1920, %eax, %edx
   12ca3:	8b 45 dc 	movl	-36(%rbp), %eax
   12ca6:	01 d0 	addl	%edx, %eax
   12ca8:	c1 e0 02 	shll	$2, %eax
   12cab:	48 98 	cltq
   12cad:	48 89 45 f8 	movq	%rax, -8(%rbp)
   12cb1:	c7 45 f4 00 00 00 00 	movl	$0, -12(%rbp)
   12cb8:	c7 45 f0 00 00 00 00 	movl	$0, -16(%rbp)
   12cbf:	c7 45 f4 00 00 00 00 	movl	$0, -12(%rbp)
   12cc6:	e9 8b 00 00 00 	jmp	139 <fillRect+0xdc>
   12ccb:	c7 45 f0 00 00 00 00 	movl	$0, -16(%rbp)
   12cd2:	eb 6e 	jmp	110 <fillRect+0xc8>
   12cd4:	8b 45 cc 	movl	-52(%rbp), %eax
   12cd7:	c1 e8 10 	shrl	$16, %eax
   12cda:	89 c1 	movl	%eax, %ecx
   12cdc:	8b 45 f0 	movl	-16(%rbp), %eax
   12cdf:	c1 e0 02 	shll	$2, %eax
   12ce2:	48 63 d0 	movslq	%eax, %rdx
   12ce5:	48 8b 45 f8 	movq	-8(%rbp), %rax
   12ce9:	48 01 d0 	addq	%rdx, %rax
   12cec:	48 8d 50 02 	leaq	2(%rax), %rdx
   12cf0:	48 8b 45 e8 	movq	-24(%rbp), %rax
   12cf4:	48 01 d0 	addq	%rdx, %rax
   12cf7:	89 ca 	movl	%ecx, %edx
   12cf9:	88 10 	movb	%dl, (%rax)
   12cfb:	8b 45 cc 	movl	-52(%rbp), %eax
   12cfe:	c1 e8 08 	shrl	$8, %eax
   12d01:	89 c1 	movl	%eax, %ecx
   12d03:	8b 45 f0 	movl	-16(%rbp), %eax
   12d06:	c1 e0 02 	shll	$2, %eax
   12d09:	48 63 d0 	movslq	%eax, %rdx
   12d0c:	48 8b 45 f8 	movq	-8(%rbp), %rax
   12d10:	48 01 d0 	addq	%rdx, %rax
   12d13:	48 8d 50 01 	leaq	1(%rax), %rdx
   12d17:	48 8b 45 e8 	movq	-24(%rbp), %rax
   12d1b:	48 01 d0 	addq	%rdx, %rax
   12d1e:	89 ca 	movl	%ecx, %edx
   12d20:	88 10 	movb	%dl, (%rax)
   12d22:	8b 45 f0 	movl	-16(%rbp), %eax
   12d25:	c1 e0 02 	shll	$2, %eax
   12d28:	48 63 d0 	movslq	%eax, %rdx
   12d2b:	48 8b 45 f8 	movq	-8(%rbp), %rax
   12d2f:	48 01 c2 	addq	%rax, %rdx
   12d32:	48 8b 45 e8 	movq	-24(%rbp), %rax
   12d36:	48 01 d0 	addq	%rdx, %rax
   12d39:	8b 55 cc 	movl	-52(%rbp), %edx
   12d3c:	88 10 	movb	%dl, (%rax)
   12d3e:	83 45 f0 01 	addl	$1, -16(%rbp)
   12d42:	8b 45 f0 	movl	-16(%rbp), %eax
   12d45:	3b 45 d0 	cmpl	-48(%rbp), %eax
   12d48:	7c 8a 	jl	-118 <fillRect+0x5a>
   12d4a:	48 81 45 f8 00 1e 00 00 	addq	$7680, -8(%rbp)
   12d52:	83 45 f4 01 	addl	$1, -12(%rbp)
   12d56:	8b 45 f4 	movl	-12(%rbp), %eax
   12d59:	3b 45 d4 	cmpl	-44(%rbp), %eax
   12d5c:	0f 8c 69 ff ff ff 	jl	-151 <fillRect+0x51>
   12d62:	90 	nop
   12d63:	90 	nop
   12d64:	5d 	popq	%rbp
   12d65:	c3 	retq

drawTriangle:
   12d66:	55 	pushq	%rbp
   12d67:	48 89 e5 	movq	%rsp, %rbp
   12d6a:	48 83 ec 20 	subq	$32, %rsp
   12d6e:	89 7d fc 	movl	%edi, -4(%rbp)
   12d71:	89 75 f8 	movl	%esi, -8(%rbp)
   12d74:	89 55 f4 	movl	%edx, -12(%rbp)
   12d77:	89 4d f0 	movl	%ecx, -16(%rbp)
   12d7a:	44 89 45 ec 	movl	%r8d, -20(%rbp)
   12d7e:	44 89 4d e8 	movl	%r9d, -24(%rbp)
   12d82:	8b 7d 10 	movl	16(%rbp), %edi
   12d85:	8b 4d f0 	movl	-16(%rbp), %ecx
   12d88:	8b 55 f4 	movl	-12(%rbp), %edx
   12d8b:	8b 75 f8 	movl	-8(%rbp), %esi
   12d8e:	8b 45 fc 	movl	-4(%rbp), %eax
   12d91:	41 89 f8 	movl	%edi, %r8d
   12d94:	89 c7 	movl	%eax, %edi
   12d96:	e8 aa fb ff ff 	callq	-1110 <drawLine>
   12d9b:	8b 7d 10 	movl	16(%rbp), %edi
   12d9e:	8b 4d e8 	movl	-24(%rbp), %ecx
   12da1:	8b 55 ec 	movl	-20(%rbp), %edx
   12da4:	8b 75 f0 	movl	-16(%rbp), %esi
   12da7:	8b 45 f4 	movl	-12(%rbp), %eax
   12daa:	41 89 f8 	movl	%edi, %r8d
   12dad:	89 c7 	movl	%eax, %edi
   12daf:	e8 91 fb ff ff 	callq	-1135 <drawLine>
   12db4:	8b 7d 10 	movl	16(%rbp), %edi
   12db7:	8b 4d e8 	movl	-24(%rbp), %ecx
   12dba:	8b 55 ec 	movl	-20(%rbp), %edx
   12dbd:	8b 75 f8 	movl	-8(%rbp), %esi
   12dc0:	8b 45 fc 	movl	-4(%rbp), %eax
   12dc3:	41 89 f8 	movl	%edi, %r8d
   12dc6:	89 c7 	movl	%eax, %edi
   12dc8:	e8 78 fb ff ff 	callq	-1160 <drawLine>
   12dcd:	90 	nop
   12dce:	c9 	leave
   12dcf:	c3 	retq

fillTriangle:
   12dd0:	55 	pushq	%rbp
   12dd1:	48 89 e5 	movq	%rsp, %rbp
   12dd4:	48 83 ec 68 	subq	$104, %rsp
   12dd8:	89 7d ac 	movl	%edi, -84(%rbp)
   12ddb:	89 75 a8 	movl	%esi, -88(%rbp)
   12dde:	89 55 a4 	movl	%edx, -92(%rbp)
   12de1:	89 4d a0 	movl	%ecx, -96(%rbp)
   12de4:	44 89 45 9c 	movl	%r8d, -100(%rbp)
   12de8:	44 89 4d 98 	movl	%r9d, -104(%rbp)
   12dec:	8b 45 a8 	movl	-88(%rbp), %eax
   12def:	3b 45 a0 	cmpl	-96(%rbp), %eax
   12df2:	7e 24 	jle	36 <fillTriangle+0x48>
   12df4:	8b 45 a8 	movl	-88(%rbp), %eax
   12df7:	89 45 e4 	movl	%eax, -28(%rbp)
   12dfa:	8b 45 a0 	movl	-96(%rbp), %eax
   12dfd:	89 45 a8 	movl	%eax, -88(%rbp)
   12e00:	8b 45 e4 	movl	-28(%rbp), %eax
   12e03:	89 45 a0 	movl	%eax, -96(%rbp)
   12e06:	8b 45 ac 	movl	-84(%rbp), %eax
   12e09:	89 45 e4 	movl	%eax, -28(%rbp)
   12e0c:	8b 45 a4 	movl	-92(%rbp), %eax
   12e0f:	89 45 ac 	movl	%eax, -84(%rbp)
   12e12:	8b 45 e4 	movl	-28(%rbp), %eax
   12e15:	89 45 a4 	movl	%eax, -92(%rbp)
   12e18:	8b 45 a0 	movl	-96(%rbp), %eax
   12e1b:	3b 45 98 	cmpl	-104(%rbp), %eax
   12e1e:	7e 24 	jle	36 <fillTriangle+0x74>
   12e20:	8b 45 a0 	movl	-96(%rbp), %eax
   12e23:	89 45 e0 	movl	%eax, -32(%rbp)
   12e26:	8b 45 98 	movl	-104(%rbp), %eax
   12e29:	89 45 a4 	movl	%eax, -92(%rbp)
   12e2c:	8b 45 e0 	movl	-32(%rbp), %eax
   12e2f:	89 45 98 	movl	%eax, -104(%rbp)
   12e32:	8b 45 a4 	movl	-92(%rbp), %eax
   12e35:	89 45 e0 	movl	%eax, -32(%rbp)
   12e38:	8b 45 9c 	movl	-100(%rbp), %eax
   12e3b:	89 45 a4 	movl	%eax, -92(%rbp)
   12e3e:	8b 45 e0 	movl	-32(%rbp), %eax
   12e41:	89 45 9c 	movl	%eax, -100(%rbp)
   12e44:	8b 45 a8 	movl	-88(%rbp), %eax
   12e47:	3b 45 a0 	cmpl	-96(%rbp), %eax
   12e4a:	7e 24 	jle	36 <fillTriangle+0xa0>
   12e4c:	8b 45 a8 	movl	-88(%rbp), %eax
   12e4f:	89 45 dc 	movl	%eax, -36(%rbp)
   12e52:	8b 45 a0 	movl	-96(%rbp), %eax
   12e55:	89 45 a8 	movl	%eax, -88(%rbp)
   12e58:	8b 45 dc 	movl	-36(%rbp), %eax
   12e5b:	89 45 a0 	movl	%eax, -96(%rbp)
   12e5e:	8b 45 ac 	movl	-84(%rbp), %eax
   12e61:	89 45 dc 	movl	%eax, -36(%rbp)
   12e64:	8b 45 a4 	movl	-92(%rbp), %eax
   12e67:	89 45 ac 	movl	%eax, -84(%rbp)
   12e6a:	8b 45 dc 	movl	-36(%rbp), %eax
   12e6d:	89 45 a4 	movl	%eax, -92(%rbp)
   12e70:	8b 45 a8 	movl	-88(%rbp), %eax
   12e73:	3b 45 98 	cmpl	-104(%rbp), %eax
   12e76:	75 6a 	jne	106 <fillTriangle+0x112>
   12e78:	8b 45 ac 	movl	-84(%rbp), %eax
   12e7b:	89 45 f8 	movl	%eax, -8(%rbp)
   12e7e:	8b 45 f8 	movl	-8(%rbp), %eax
   12e81:	89 45 fc 	movl	%eax, -4(%rbp)
   12e84:	8b 45 a4 	movl	-92(%rbp), %eax
   12e87:	3b 45 fc 	cmpl	-4(%rbp), %eax
   12e8a:	7d 08 	jge	8 <fillTriangle+0xc4>
   12e8c:	8b 45 a4 	movl	-92(%rbp), %eax
   12e8f:	89 45 fc 	movl	%eax, -4(%rbp)
   12e92:	eb 0e 	jmp	14 <fillTriangle+0xd2>
   12e94:	8b 45 a4 	movl	-92(%rbp), %eax
   12e97:	3b 45 f8 	cmpl	-8(%rbp), %eax
   12e9a:	7e 06 	jle	6 <fillTriangle+0xd2>
   12e9c:	8b 45 a4 	movl	-92(%rbp), %eax
   12e9f:	89 45 f8 	movl	%eax, -8(%rbp)
   12ea2:	8b 45 9c 	movl	-100(%rbp), %eax
   12ea5:	3b 45 fc 	cmpl	-4(%rbp), %eax
   12ea8:	7d 08 	jge	8 <fillTriangle+0xe2>
   12eaa:	8b 45 9c 	movl	-100(%rbp), %eax
   12ead:	89 45 fc 	movl	%eax, -4(%rbp)
   12eb0:	eb 0e 	jmp	14 <fillTriangle+0xf0>
   12eb2:	8b 45 9c 	movl	-100(%rbp), %eax
   12eb5:	3b 45 f8 	cmpl	-8(%rbp), %eax
   12eb8:	7e 06 	jle	6 <fillTriangle+0xf0>
   12eba:	8b 45 9c 	movl	-100(%rbp), %eax
   12ebd:	89 45 f8 	movl	%eax, -8(%rbp)
   12ec0:	8b 55 10 	movl	16(%rbp), %edx
   12ec3:	8b 45 f8 	movl	-8(%rbp), %eax
   12ec6:	2b 45 fc 	subl	-4(%rbp), %eax
   12ec9:	8d 78 01 	leal	1(%rax), %edi
   12ecc:	8b 75 a8 	movl	-88(%rbp), %esi
   12ecf:	8b 45 fc 	movl	-4(%rbp), %eax
   12ed2:	89 d1 	movl	%edx, %ecx
   12ed4:	89 fa 	movl	%edi, %edx
   12ed6:	89 c7 	movl	%eax, %edi
   12ed8:	e8 74 fc ff ff 	callq	-908 <drawHLine>
   12edd:	e9 67 01 00 00 	jmp	359 <fillTriangle+0x279>
   12ee2:	8b 45 a4 	movl	-92(%rbp), %eax
   12ee5:	2b 45 ac 	subl	-84(%rbp), %eax
   12ee8:	89 45 d8 	movl	%eax, -40(%rbp)
   12eeb:	8b 45 a0 	movl	-96(%rbp), %eax
   12eee:	2b 45 a8 	subl	-88(%rbp), %eax
   12ef1:	89 45 d4 	movl	%eax, -44(%rbp)
   12ef4:	8b 45 9c 	movl	-100(%rbp), %eax
   12ef7:	2b 45 ac 	subl	-84(%rbp), %eax
   12efa:	89 45 d0 	movl	%eax, -48(%rbp)
   12efd:	8b 45 98 	movl	-104(%rbp), %eax
   12f00:	2b 45 a8 	subl	-88(%rbp), %eax
   12f03:	89 45 cc 	movl	%eax, -52(%rbp)
   12f06:	8b 45 9c 	movl	-100(%rbp), %eax
   12f09:	2b 45 a4 	subl	-92(%rbp), %eax
   12f0c:	89 45 c8 	movl	%eax, -56(%rbp)
   12f0f:	8b 45 98 	movl	-104(%rbp), %eax
   12f12:	2b 45 a0 	subl	-96(%rbp), %eax
   12f15:	89 45 c4 	movl	%eax, -60(%rbp)
   12f18:	c7 45 ec 00 00 00 00 	movl	$0, -20(%rbp)
   12f1f:	c7 45 e8 00 00 00 00 	movl	$0, -24(%rbp)
   12f26:	8b 45 a0 	movl	-96(%rbp), %eax
   12f29:	3b 45 98 	cmpl	-104(%rbp), %eax
   12f2c:	75 08 	jne	8 <fillTriangle+0x166>
   12f2e:	8b 45 a0 	movl	-96(%rbp), %eax
   12f31:	89 45 f0 	movl	%eax, -16(%rbp)
   12f34:	eb 09 	jmp	9 <fillTriangle+0x16f>
   12f36:	8b 45 a0 	movl	-96(%rbp), %eax
   12f39:	83 e8 01 	subl	$1, %eax
   12f3c:	89 45 f0 	movl	%eax, -16(%rbp)
   12f3f:	8b 45 a8 	movl	-88(%rbp), %eax
   12f42:	89 45 f4 	movl	%eax, -12(%rbp)
   12f45:	eb 69 	jmp	105 <fillTriangle+0x1e0>
   12f47:	8b 45 ec 	movl	-20(%rbp), %eax
   12f4a:	99 	cltd
   12f4b:	f7 7d d4 	idivl	-44(%rbp)
   12f4e:	89 c2 	movl	%eax, %edx
   12f50:	8b 45 ac 	movl	-84(%rbp), %eax
   12f53:	01 d0 	addl	%edx, %eax
   12f55:	89 45 fc 	movl	%eax, -4(%rbp)
   12f58:	8b 45 e8 	movl	-24(%rbp), %eax
   12f5b:	99 	cltd
   12f5c:	f7 7d cc 	idivl	-52(%rbp)
   12f5f:	89 c2 	movl	%eax, %edx
   12f61:	8b 45 ac 	movl	-84(%rbp), %eax
   12f64:	01 d0 	addl	%edx, %eax
   12f66:	89 45 f8 	movl	%eax, -8(%rbp)
   12f69:	8b 45 d8 	movl	-40(%rbp), %eax
   12f6c:	01 45 ec 	addl	%eax, -20(%rbp)
   12f6f:	8b 45 d0 	movl	-48(%rbp), %eax
   12f72:	01 45 e8 	addl	%eax, -24(%rbp)
   12f75:	8b 45 fc 	movl	-4(%rbp), %eax
   12f78:	3b 45 f8 	cmpl	-8(%rbp), %eax
   12f7b:	7e 12 	jle	18 <fillTriangle+0x1bf>
   12f7d:	8b 45 fc 	movl	-4(%rbp), %eax
   12f80:	89 45 bc 	movl	%eax, -68(%rbp)
   12f83:	8b 45 f8 	movl	-8(%rbp), %eax
   12f86:	89 45 fc 	movl	%eax, -4(%rbp)
   12f89:	8b 45 bc 	movl	-68(%rbp), %eax
   12f8c:	89 45 f8 	movl	%eax, -8(%rbp)
   12f8f:	8b 55 10 	movl	16(%rbp), %edx
   12f92:	8b 45 f8 	movl	-8(%rbp), %eax
   12f95:	2b 45 fc 	subl	-4(%rbp), %eax
   12f98:	8d 78 01 	leal	1(%rax), %edi
   12f9b:	8b 75 f4 	movl	-12(%rbp), %esi
   12f9e:	8b 45 fc 	movl	-4(%rbp), %eax
   12fa1:	89 d1 	movl	%edx, %ecx
   12fa3:	89 fa 	movl	%edi, %edx
   12fa5:	89 c7 	movl	%eax, %edi
   12fa7:	e8 a5 fb ff ff 	callq	-1115 <drawHLine>
   12fac:	83 45 f4 01 	addl	$1, -12(%rbp)
   12fb0:	8b 45 f4 	movl	-12(%rbp), %eax
   12fb3:	3b 45 f0 	cmpl	-16(%rbp), %eax
   12fb6:	7e 8f 	jle	-113 <fillTriangle+0x177>
   12fb8:	8b 45 f4 	movl	-12(%rbp), %eax
   12fbb:	2b 45 a0 	subl	-96(%rbp), %eax
   12fbe:	8b 55 c8 	movl	-56(%rbp), %edx
   12fc1:	0f af c2 	imull	%edx, %eax
   12fc4:	89 45 ec 	movl	%eax, -20(%rbp)
   12fc7:	8b 45 f4 	movl	-12(%rbp), %eax
   12fca:	2b 45 a8 	subl	-88(%rbp), %eax
   12fcd:	8b 55 d0 	movl	-48(%rbp), %edx
   12fd0:	0f af c2 	imull	%edx, %eax
   12fd3:	89 45 e8 	movl	%eax, -24(%rbp)
   12fd6:	eb 69 	jmp	105 <fillTriangle+0x271>
   12fd8:	8b 45 ec 	movl	-20(%rbp), %eax
   12fdb:	99 	cltd
   12fdc:	f7 7d c4 	idivl	-60(%rbp)
   12fdf:	89 c2 	movl	%eax, %edx
   12fe1:	8b 45 a4 	movl	-92(%rbp), %eax
   12fe4:	01 d0 	addl	%edx, %eax
   12fe6:	89 45 fc 	movl	%eax, -4(%rbp)
   12fe9:	8b 45 e8 	movl	-24(%rbp), %eax
   12fec:	99 	cltd
   12fed:	f7 7d cc 	idivl	-52(%rbp)
   12ff0:	89 c2 	movl	%eax, %edx
   12ff2:	8b 45 ac 	movl	-84(%rbp), %eax
   12ff5:	01 d0 	addl	%edx, %eax
   12ff7:	89 45 f8 	movl	%eax, -8(%rbp)
   12ffa:	8b 45 c8 	movl	-56(%rbp), %eax
   12ffd:	01 45 ec 	addl	%eax, -20(%rbp)
   13000:	8b 45 d0 	movl	-48(%rbp), %eax
   13003:	01 45 e8 	addl	%eax, -24(%rbp)
   13006:	8b 45 fc 	movl	-4(%rbp), %eax
   13009:	3b 45 f8 	cmpl	-8(%rbp), %eax
   1300c:	7e 12 	jle	18 <fillTriangle+0x250>
   1300e:	8b 45 fc 	movl	-4(%rbp), %eax
   13011:	89 45 c0 	movl	%eax, -64(%rbp)
   13014:	8b 45 f8 	movl	-8(%rbp), %eax
   13017:	89 45 fc 	movl	%eax, -4(%rbp)
   1301a:	8b 45 c0 	movl	-64(%rbp), %eax
   1301d:	89 45 f8 	movl	%eax, -8(%rbp)
   13020:	8b 55 10 	movl	16(%rbp), %edx
   13023:	8b 45 f8 	movl	-8(%rbp), %eax
   13026:	2b 45 fc 	subl	-4(%rbp), %eax
   13029:	8d 78 01 	leal	1(%rax), %edi
   1302c:	8b 75 f4 	movl	-12(%rbp), %esi
   1302f:	8b 45 fc 	movl	-4(%rbp), %eax
   13032:	89 d1 	movl	%edx, %ecx
   13034:	89 fa 	movl	%edi, %edx
   13036:	89 c7 	movl	%eax, %edi
   13038:	e8 14 fb ff ff 	callq	-1260 <drawHLine>
   1303d:	83 45 f4 01 	addl	$1, -12(%rbp)
   13041:	8b 45 f4 	movl	-12(%rbp), %eax
   13044:	3b 45 98 	cmpl	-104(%rbp), %eax
   13047:	7e 8f 	jle	-113 <fillTriangle+0x208>
   13049:	c9 	leave
   1304a:	c3 	retq

drawCircle:
   1304b:	55 	pushq	%rbp
   1304c:	48 89 e5 	movq	%rsp, %rbp
   1304f:	48 83 ec 30 	subq	$48, %rsp
   13053:	89 7d dc 	movl	%edi, -36(%rbp)
   13056:	89 75 d8 	movl	%esi, -40(%rbp)
   13059:	89 55 d4 	movl	%edx, -44(%rbp)
   1305c:	89 4d d0 	movl	%ecx, -48(%rbp)
   1305f:	b8 01 00 00 00 	movl	$1, %eax
   13064:	2b 45 d4 	subl	-44(%rbp), %eax
   13067:	89 45 fc 	movl	%eax, -4(%rbp)
   1306a:	c7 45 f8 01 00 00 00 	movl	$1, -8(%rbp)
   13071:	8b 55 d4 	movl	-44(%rbp), %edx
   13074:	b8 00 00 00 00 	movl	$0, %eax
   13079:	29 d0 	subl	%edx, %eax
   1307b:	01 c0 	addl	%eax, %eax
   1307d:	89 45 f4 	movl	%eax, -12(%rbp)
   13080:	c7 45 f0 00 00 00 00 	movl	$0, -16(%rbp)
   13087:	8b 45 d4 	movl	-44(%rbp), %eax
   1308a:	89 45 ec 	movl	%eax, -20(%rbp)
   1308d:	8b 55 d8 	movl	-40(%rbp), %edx
   13090:	8b 45 d4 	movl	-44(%rbp), %eax
   13093:	01 d0 	addl	%edx, %eax
   13095:	48 63 c8 	movslq	%eax, %rcx
   13098:	8b 45 dc 	movl	-36(%rbp), %eax
   1309b:	48 98 	cltq
   1309d:	8b 55 d0 	movl	-48(%rbp), %edx
   130a0:	48 89 ce 	movq	%rcx, %rsi
   130a3:	48 89 c7 	movq	%rax, %rdi
   130a6:	e8 99 f7 ff ff 	callq	-2151 <putpixel>
   130ab:	8b 45 d8 	movl	-40(%rbp), %eax
   130ae:	2b 45 d4 	subl	-44(%rbp), %eax
   130b1:	48 63 c8 	movslq	%eax, %rcx
   130b4:	8b 45 dc 	movl	-36(%rbp), %eax
   130b7:	48 98 	cltq
   130b9:	8b 55 d0 	movl	-48(%rbp), %edx
   130bc:	48 89 ce 	movq	%rcx, %rsi
   130bf:	48 89 c7 	movq	%rax, %rdi
   130c2:	e8 7d f7 ff ff 	callq	-2179 <putpixel>
   130c7:	8b 45 d8 	movl	-40(%rbp), %eax
   130ca:	48 63 c8 	movslq	%eax, %rcx
   130cd:	8b 55 dc 	movl	-36(%rbp), %edx
   130d0:	8b 45 d4 	movl	-44(%rbp), %eax
   130d3:	01 d0 	addl	%edx, %eax
   130d5:	48 98 	cltq
   130d7:	8b 55 d0 	movl	-48(%rbp), %edx
   130da:	48 89 ce 	movq	%rcx, %rsi
   130dd:	48 89 c7 	movq	%rax, %rdi
   130e0:	e8 5f f7 ff ff 	callq	-2209 <putpixel>
   130e5:	8b 45 d8 	movl	-40(%rbp), %eax
   130e8:	48 63 c8 	movslq	%eax, %rcx
   130eb:	8b 45 dc 	movl	-36(%rbp), %eax
   130ee:	2b 45 d4 	subl	-44(%rbp), %eax
   130f1:	48 98 	cltq
   130f3:	8b 55 d0 	movl	-48(%rbp), %edx
   130f6:	48 89 ce 	movq	%rcx, %rsi
   130f9:	48 89 c7 	movq	%rax, %rdi
   130fc:	e8 43 f7 ff ff 	callq	-2237 <putpixel>
   13101:	e9 2a 01 00 00 	jmp	298 <drawCircle+0x1e5>
   13106:	83 7d fc 00 	cmpl	$0, -4(%rbp)
   1310a:	78 0e 	js	14 <drawCircle+0xcf>
   1310c:	83 6d ec 01 	subl	$1, -20(%rbp)
   13110:	83 45 f4 02 	addl	$2, -12(%rbp)
   13114:	8b 45 f4 	movl	-12(%rbp), %eax
   13117:	01 45 fc 	addl	%eax, -4(%rbp)
   1311a:	83 45 f0 01 	addl	$1, -16(%rbp)
   1311e:	83 45 f8 02 	addl	$2, -8(%rbp)
   13122:	8b 45 f8 	movl	-8(%rbp), %eax
   13125:	01 45 fc 	addl	%eax, -4(%rbp)
   13128:	8b 55 d8 	movl	-40(%rbp), %edx
   1312b:	8b 45 ec 	movl	-20(%rbp), %eax
   1312e:	01 d0 	addl	%edx, %eax
   13130:	48 63 c8 	movslq	%eax, %rcx
   13133:	8b 55 dc 	movl	-36(%rbp), %edx
   13136:	8b 45 f0 	movl	-16(%rbp), %eax
   13139:	01 d0 	addl	%edx, %eax
   1313b:	48 98 	cltq
   1313d:	8b 55 d0 	movl	-48(%rbp), %edx
   13140:	48 89 ce 	movq	%rcx, %rsi
   13143:	48 89 c7 	movq	%rax, %rdi
   13146:	e8 f9 f6 ff ff 	callq	-2311 <putpixel>
   1314b:	8b 55 d8 	movl	-40(%rbp), %edx
   1314e:	8b 45 ec 	movl	-20(%rbp), %eax
   13151:	01 d0 	addl	%edx, %eax
   13153:	48 63 c8 	movslq	%eax, %rcx
   13156:	8b 45 dc 	movl	-36(%rbp), %eax
   13159:	2b 45 f0 	subl	-16(%rbp), %eax
   1315c:	48 98 	cltq
   1315e:	8b 55 d0 	movl	-48(%rbp), %edx
   13161:	48 89 ce 	movq	%rcx, %rsi
   13164:	48 89 c7 	movq	%rax, %rdi
   13167:	e8 d8 f6 ff ff 	callq	-2344 <putpixel>
   1316c:	8b 45 d8 	movl	-40(%rbp), %eax
   1316f:	2b 45 ec 	subl	-20(%rbp), %eax
   13172:	48 63 c8 	movslq	%eax, %rcx
   13175:	8b 55 dc 	movl	-36(%rbp), %edx
   13178:	8b 45 f0 	movl	-16(%rbp), %eax
   1317b:	01 d0 	addl	%edx, %eax
   1317d:	48 98 	cltq
   1317f:	8b 55 d0 	movl	-48(%rbp), %edx
   13182:	48 89 ce 	movq	%rcx, %rsi
   13185:	48 89 c7 	movq	%rax, %rdi
   13188:	e8 b7 f6 ff ff 	callq	-2377 <putpixel>
   1318d:	8b 45 d8 	movl	-40(%rbp), %eax
   13190:	2b 45 ec 	subl	-20(%rbp), %eax
   13193:	48 63 c8 	movslq	%eax, %rcx
   13196:	8b 45 dc 	movl	-36(%rbp), %eax
   13199:	2b 45 f0 	subl	-16(%rbp), %eax
   1319c:	48 98 	cltq
   1319e:	8b 55 d0 	movl	-48(%rbp), %edx
   131a1:	48 89 ce 	movq	%rcx, %rsi
   131a4:	48 89 c7 	movq	%rax, %rdi
   131a7:	e8 98 f6 ff ff 	callq	-2408 <putpixel>
   131ac:	8b 55 d8 	movl	-40(%rbp), %edx
   131af:	8b 45 f0 	movl	-16(%rbp), %eax
   131b2:	01 d0 	addl	%edx, %eax
   131b4:	48 63 c8 	movslq	%eax, %rcx
   131b7:	8b 55 dc 	movl	-36(%rbp), %edx
   131ba:	8b 45 ec 	movl	-20(%rbp), %eax
   131bd:	01 d0 	addl	%edx, %eax
   131bf:	48 98 	cltq
   131c1:	8b 55 d0 	movl	-48(%rbp), %edx
   131c4:	48 89 ce 	movq	%rcx, %rsi
   131c7:	48 89 c7 	movq	%rax, %rdi
   131ca:	e8 75 f6 ff ff 	callq	-2443 <putpixel>
   131cf:	8b 55 d8 	movl	-40(%rbp), %edx
   131d2:	8b 45 f0 	movl	-16(%rbp), %eax
   131d5:	01 d0 	addl	%edx, %eax
   131d7:	48 63 c8 	movslq	%eax, %rcx
   131da:	8b 45 dc 	movl	-36(%rbp), %eax
   131dd:	2b 45 ec 	subl	-20(%rbp), %eax
   131e0:	48 98 	cltq
   131e2:	8b 55 d0 	movl	-48(%rbp), %edx
   131e5:	48 89 ce 	movq	%rcx, %rsi
   131e8:	48 89 c7 	movq	%rax, %rdi
   131eb:	e8 54 f6 ff ff 	callq	-2476 <putpixel>
   131f0:	8b 45 d8 	movl	-40(%rbp), %eax
   131f3:	2b 45 f0 	subl	-16(%rbp), %eax
   131f6:	48 63 c8 	movslq	%eax, %rcx
   131f9:	8b 55 dc 	movl	-36(%rbp), %edx
   131fc:	8b 45 ec 	movl	-20(%rbp), %eax
   131ff:	01 d0 	addl	%edx, %eax
   13201:	48 98 	cltq
   13203:	8b 55 d0 	movl	-48(%rbp), %edx
   13206:	48 89 ce 	movq	%rcx, %rsi
   13209:	48 89 c7 	movq	%rax, %rdi
   1320c:	e8 33 f6 ff ff 	callq	-2509 <putpixel>
   13211:	8b 45 d8 	movl	-40(%rbp), %eax
   13214:	2b 45 f0 	subl	-16(%rbp), %eax
   13217:	48 63 c8 	movslq	%eax, %rcx
   1321a:	8b 45 dc 	movl	-36(%rbp), %eax
   1321d:	2b 45 ec 	subl	-20(%rbp), %eax
   13220:	48 98 	cltq
   13222:	8b 55 d0 	movl	-48(%rbp), %edx
   13225:	48 89 ce 	movq	%rcx, %rsi
   13228:	48 89 c7 	movq	%rax, %rdi
   1322b:	e8 14 f6 ff ff 	callq	-2540 <putpixel>
   13230:	8b 45 f0 	movl	-16(%rbp), %eax
   13233:	3b 45 ec 	cmpl	-20(%rbp), %eax
   13236:	0f 8c ca fe ff ff 	jl	-310 <drawCircle+0xbb>
   1323c:	90 	nop
   1323d:	90 	nop
   1323e:	c9 	leave
   1323f:	c3 	retq

fillCircle:
   13240:	55 	pushq	%rbp
   13241:	48 89 e5 	movq	%rsp, %rbp
   13244:	48 83 ec 30 	subq	$48, %rsp
   13248:	89 7d dc 	movl	%edi, -36(%rbp)
   1324b:	89 75 d8 	movl	%esi, -40(%rbp)
   1324e:	89 55 d4 	movl	%edx, -44(%rbp)
   13251:	89 4d d0 	movl	%ecx, -48(%rbp)
   13254:	c7 45 e8 03 00 00 00 	movl	$3, -24(%rbp)
   1325b:	c7 45 e4 00 00 00 00 	movl	$0, -28(%rbp)
   13262:	8b 55 d0 	movl	-48(%rbp), %edx
   13265:	8b 45 d4 	movl	-44(%rbp), %eax
   13268:	01 c0 	addl	%eax, %eax
   1326a:	8d 78 01 	leal	1(%rax), %edi
   1326d:	8b 45 d8 	movl	-40(%rbp), %eax
   13270:	2b 45 d4 	subl	-44(%rbp), %eax
   13273:	89 c6 	movl	%eax, %esi
   13275:	8b 45 dc 	movl	-36(%rbp), %eax
   13278:	89 d1 	movl	%edx, %ecx
   1327a:	89 fa 	movl	%edi, %edx
   1327c:	89 c7 	movl	%eax, %edi
   1327e:	e8 0f f8 ff ff 	callq	-2033 <drawVLine>
   13283:	b8 01 00 00 00 	movl	$1, %eax
   13288:	2b 45 d4 	subl	-44(%rbp), %eax
   1328b:	89 45 fc 	movl	%eax, -4(%rbp)
   1328e:	c7 45 f8 01 00 00 00 	movl	$1, -8(%rbp)
   13295:	8b 55 d4 	movl	-44(%rbp), %edx
   13298:	b8 00 00 00 00 	movl	$0, %eax
   1329d:	29 d0 	subl	%edx, %eax
   1329f:	01 c0 	addl	%eax, %eax
   132a1:	89 45 f4 	movl	%eax, -12(%rbp)
   132a4:	c7 45 f0 00 00 00 00 	movl	$0, -16(%rbp)
   132ab:	8b 45 d4 	movl	-44(%rbp), %eax
   132ae:	89 45 ec 	movl	%eax, -20(%rbp)
   132b1:	e9 de 00 00 00 	jmp	222 <fillCircle+0x154>
   132b6:	83 7d fc 00 	cmpl	$0, -4(%rbp)
   132ba:	78 0e 	js	14 <fillCircle+0x8a>
   132bc:	83 6d ec 01 	subl	$1, -20(%rbp)
   132c0:	83 45 f4 02 	addl	$2, -12(%rbp)
   132c4:	8b 45 f4 	movl	-12(%rbp), %eax
   132c7:	01 45 fc 	addl	%eax, -4(%rbp)
   132ca:	83 45 f0 01 	addl	$1, -16(%rbp)
   132ce:	83 45 f8 02 	addl	$2, -8(%rbp)
   132d2:	8b 45 f8 	movl	-8(%rbp), %eax
   132d5:	01 45 fc 	addl	%eax, -4(%rbp)
   132d8:	8b 45 e8 	movl	-24(%rbp), %eax
   132db:	83 e0 01 	andl	$1, %eax
   132de:	85 c0 	testl	%eax, %eax
   132e0:	74 54 	je	84 <fillCircle+0xf6>
   132e2:	8b 55 d0 	movl	-48(%rbp), %edx
   132e5:	8b 45 ec 	movl	-20(%rbp), %eax
   132e8:	01 c0 	addl	%eax, %eax
   132ea:	8d 48 01 	leal	1(%rax), %ecx
   132ed:	8b 45 e4 	movl	-28(%rbp), %eax
   132f0:	8d 34 01 	leal	(%rcx,%rax), %esi
   132f3:	8b 45 d8 	movl	-40(%rbp), %eax
   132f6:	2b 45 ec 	subl	-20(%rbp), %eax
   132f9:	8b 7d dc 	movl	-36(%rbp), %edi
   132fc:	8b 4d f0 	movl	-16(%rbp), %ecx
   132ff:	01 cf 	addl	%ecx, %edi
   13301:	89 d1 	movl	%edx, %ecx
   13303:	89 f2 	movl	%esi, %edx
   13305:	89 c6 	movl	%eax, %esi
   13307:	e8 86 f7 ff ff 	callq	-2170 <drawVLine>
   1330c:	8b 55 d0 	movl	-48(%rbp), %edx
   1330f:	8b 45 f0 	movl	-16(%rbp), %eax
   13312:	01 c0 	addl	%eax, %eax
   13314:	8d 48 01 	leal	1(%rax), %ecx
   13317:	8b 45 e4 	movl	-28(%rbp), %eax
   1331a:	8d 34 01 	leal	(%rcx,%rax), %esi
   1331d:	8b 45 d8 	movl	-40(%rbp), %eax
   13320:	2b 45 f0 	subl	-16(%rbp), %eax
   13323:	8b 7d dc 	movl	-36(%rbp), %edi
   13326:	8b 4d ec 	movl	-20(%rbp), %ecx
   13329:	01 cf 	addl	%ecx, %edi
   1332b:	89 d1 	movl	%edx, %ecx
   1332d:	89 f2 	movl	%esi, %edx
   1332f:	89 c6 	movl	%eax, %esi
   13331:	e8 5c f7 ff ff 	callq	-2212 <drawVLine>
   13336:	8b 45 e8 	movl	-24(%rbp), %eax
   13339:	83 e0 02 	andl	$2, %eax
   1333c:	85 c0 	testl	%eax, %eax
   1333e:	74 54 	je	84 <fillCircle+0x154>
   13340:	8b 55 d0 	movl	-48(%rbp), %edx
   13343:	8b 45 ec 	movl	-20(%rbp), %eax
   13346:	01 c0 	addl	%eax, %eax
   13348:	8d 48 01 	leal	1(%rax), %ecx
   1334b:	8b 45 e4 	movl	-28(%rbp), %eax
   1334e:	8d 3c 01 	leal	(%rcx,%rax), %edi
   13351:	8b 45 d8 	movl	-40(%rbp), %eax
   13354:	2b 45 ec 	subl	-20(%rbp), %eax
   13357:	89 c6 	movl	%eax, %esi
   13359:	8b 45 dc 	movl	-36(%rbp), %eax
   1335c:	2b 45 f0 	subl	-16(%rbp), %eax
   1335f:	89 d1 	movl	%edx, %ecx
   13361:	89 fa 	movl	%edi, %edx
   13363:	89 c7 	movl	%eax, %edi
   13365:	e8 28 f7 ff ff 	callq	-2264 <drawVLine>
   1336a:	8b 55 d0 	movl	-48(%rbp), %edx
   1336d:	8b 45 f0 	movl	-16(%rbp), %eax
   13370:	01 c0 	addl	%eax, %eax
   13372:	8d 48 01 	leal	1(%rax), %ecx
   13375:	8b 45 e4 	movl	-28(%rbp), %eax
   13378:	8d 3c 01 	leal	(%rcx,%rax), %edi
   1337b:	8b 45 d8 	movl	-40(%rbp), %eax
   1337e:	2b 45 f0 	subl	-16(%rbp), %eax
   13381:	89 c6 	movl	%eax, %esi
   13383:	8b 45 dc 	movl	-36(%rbp), %eax
   13386:	2b 45 ec 	subl	-20(%rbp), %eax
   13389:	89 d1 	movl	%edx, %ecx
   1338b:	89 fa 	movl	%edi, %edx
   1338d:	89 c7 	movl	%eax, %edi
   1338f:	e8 fe f6 ff ff 	callq	-2306 <drawVLine>
   13394:	8b 45 f0 	movl	-16(%rbp), %eax
   13397:	3b 45 ec 	cmpl	-20(%rbp), %eax
   1339a:	0f 8c 16 ff ff ff 	jl	-234 <fillCircle+0x76>
   133a0:	90 	nop
   133a1:	90 	nop
   133a2:	c9 	leave
   133a3:	c3 	retq
   133a4:	0f 1f 40 00 	nopl	(%rax)
   133a8:	00 00 	addb	%al, (%rax)
   133aa:	00 00 	addb	%al, (%rax)
   133ac:	00 00 	addb	%al, (%rax)
   133ae:	f0 	lock
   133af:	3f  <unknown>

_bss_start:
   133b0:	66 2e 0f 1f 84 00 00 00 00 00 	nopw	%cs:(%rax,%rax)
   133ba:	66 0f 1f 44 00 00 	nopw	(%rax,%rax)

kernelInfo:
   133c0:	00 00 	addb	%al, (%rax)
   133c2:	00 00 	addb	%al, (%rax)
   133c4:	00 00 	addb	%al, (%rax)
   133c6:	00 00 	addb	%al, (%rax)
   133c8:	00 00 	addb	%al, (%rax)
   133ca:	00 00 	addb	%al, (%rax)
   133cc:	00 00 	addb	%al, (%rax)
   133ce:	00 00 	addb	%al, (%rax)
   133d0:	00 00 	addb	%al, (%rax)
   133d2:	00 00 	addb	%al, (%rax)
   133d4:	00 00 	addb	%al, (%rax)
   133d6:	00 00 	addb	%al, (%rax)
   133d8:	00 00 	addb	%al, (%rax)
   133da:	00 00 	addb	%al, (%rax)
   133dc:	00 00 	addb	%al, (%rax)
   133de:	00 00 	addb	%al, (%rax)
   133e0:	00 90 00 00 66 2e 	addb	%dl, 778436608(%rax)

memoryMapFirstEntry:
   133e2:	00 00 	addb	%al, (%rax)
   133e4:	66 2e 0f 1f 84 00 00 00 00 00 	nopw	%cs:(%rax,%rax)
   133ee:	66 90 	nop

physicalPageBitmap:
   133f0:	00 00 	addb	%al, (%rax)
   133f2:	00 00 	addb	%al, (%rax)
   133f4:	00 00 	addb	%al, (%rax)
   133f6:	00 00 	addb	%al, (%rax)
   133f8:	00 00 	addb	%al, (%rax)
   133fa:	00 00 	addb	%al, (%rax)
   133fc:	00 00 	addb	%al, (%rax)
   133fe:	00 00 	addb	%al, (%rax)

isPhysicalPageFrameAllocationInitialized:
   13400:	00 00 	addb	%al, (%rax)
   13402:	00 00 	addb	%al, (%rax)
   13404:	66 2e 0f 1f 84 00 00 00 00 00 	nopw	%cs:(%rax,%rax)
   1340e:	66 2e 0f 1f 84 00 00 00 00 00 	nopw	%cs:(%rax,%rax)
   13418:	0f 1f 84 00 00 00 00 00 	nopl	(%rax,%rax)

gdtentries:
   13420:	00 00 	addb	%al, (%rax)
   13422:	00 00 	addb	%al, (%rax)
   13424:	00 00 	addb	%al, (%rax)
   13426:	00 00 	addb	%al, (%rax)
   13428:	00 00 	addb	%al, (%rax)
   1342a:	00 00 	addb	%al, (%rax)
   1342c:	00 00 	addb	%al, (%rax)
   1342e:	00 00 	addb	%al, (%rax)
   13430:	00 00 	addb	%al, (%rax)
   13432:	00 00 	addb	%al, (%rax)
   13434:	00 00 	addb	%al, (%rax)
   13436:	00 00 	addb	%al, (%rax)
   13438:	00 00 	addb	%al, (%rax)
   1343a:	00 00 	addb	%al, (%rax)
   1343c:	00 00 	addb	%al, (%rax)
   1343e:	00 00 	addb	%al, (%rax)
   13440:	00 00 	addb	%al, (%rax)
   13442:	00 00 	addb	%al, (%rax)
   13444:	00 00 	addb	%al, (%rax)
   13446:	00 00 	addb	%al, (%rax)

currentPML4:
   13448:	00 00 	addb	%al, (%rax)
   1344a:	00 00 	addb	%al, (%rax)
   1344c:	00 00 	addb	%al, (%rax)
   1344e:	00 00 	addb	%al, (%rax)

currentHeap:
   13450:	00 00 	addb	%al, (%rax)
   13452:	00 00 	addb	%al, (%rax)
   13454:	00 00 	addb	%al, (%rax)
   13456:	00 00 	addb	%al, (%rax)
   13458:	0f 1f 84 00 00 00 00 00 	nopl	(%rax,%rax)

currentIDT:
   13460:	00 00 	addb	%al, (%rax)
   13462:	00 00 	addb	%al, (%rax)
   13464:	00 00 	addb	%al, (%rax)
   13466:	00 00 	addb	%al, (%rax)
   13468:	00 00 	addb	%al, (%rax)
   1346a:	00 00 	addb	%al, (%rax)
   1346c:	00 00 	addb	%al, (%rax)
   1346e:	00 00 	addb	%al, (%rax)

isr0:
   13470:	00 00 	addb	%al, (%rax)
   13472:	00 00 	addb	%al, (%rax)
   13474:	00 00 	addb	%al, (%rax)
   13476:	00 00 	addb	%al, (%rax)
   13478:	00 00 	addb	%al, (%rax)
   1347a:	00 00 	addb	%al, (%rax)
   1347c:	00 00 	addb	%al, (%rax)
   1347e:	00 00 	addb	%al, (%rax)
   13480:	00 00 	addb	%al, (%rax)
   13482:	00 00 	addb	%al, (%rax)
   13484:	00 00 	addb	%al, (%rax)
   13486:	00 00 	addb	%al, (%rax)
   13488:	00 00 	addb	%al, (%rax)
   1348a:	00 00 	addb	%al, (%rax)
   1348c:	00 00 	addb	%al, (%rax)
   1348e:	00 00 	addb	%al, (%rax)
   13490:	00 00 	addb	%al, (%rax)
   13492:	00 00 	addb	%al, (%rax)
   13494:	00 00 	addb	%al, (%rax)
   13496:	00 00 	addb	%al, (%rax)
   13498:	00 00 	addb	%al, (%rax)
   1349a:	00 00 	addb	%al, (%rax)
   1349c:	00 00 	addb	%al, (%rax)
   1349e:	00 00 	addb	%al, (%rax)
   134a0:	00 00 	addb	%al, (%rax)
   134a2:	00 00 	addb	%al, (%rax)
   134a4:	00 00 	addb	%al, (%rax)
   134a6:	00 00 	addb	%al, (%rax)
   134a8:	00 00 	addb	%al, (%rax)
   134aa:	00 00 	addb	%al, (%rax)
   134ac:	00 00 	addb	%al, (%rax)
   134ae:	00 00 	addb	%al, (%rax)
   134b0:	00 00 	addb	%al, (%rax)
   134b2:	00 00 	addb	%al, (%rax)
   134b4:	00 00 	addb	%al, (%rax)
   134b6:	00 00 	addb	%al, (%rax)
   134b8:	00 00 	addb	%al, (%rax)
   134ba:	00 00 	addb	%al, (%rax)
   134bc:	00 00 	addb	%al, (%rax)
   134be:	00 00 	addb	%al, (%rax)

isr1:
   134c0:	00 00 	addb	%al, (%rax)
   134c2:	00 00 	addb	%al, (%rax)
   134c4:	00 00 	addb	%al, (%rax)
   134c6:	00 00 	addb	%al, (%rax)
   134c8:	00 00 	addb	%al, (%rax)
   134ca:	00 00 	addb	%al, (%rax)
   134cc:	00 00 	addb	%al, (%rax)
   134ce:	00 00 	addb	%al, (%rax)
   134d0:	00 00 	addb	%al, (%rax)
   134d2:	00 00 	addb	%al, (%rax)
   134d4:	00 00 	addb	%al, (%rax)
   134d6:	00 00 	addb	%al, (%rax)
   134d8:	00 00 	addb	%al, (%rax)
   134da:	00 00 	addb	%al, (%rax)
   134dc:	00 00 	addb	%al, (%rax)
   134de:	00 00 	addb	%al, (%rax)
   134e0:	00 00 	addb	%al, (%rax)
   134e2:	00 00 	addb	%al, (%rax)
   134e4:	00 00 	addb	%al, (%rax)
   134e6:	00 00 	addb	%al, (%rax)
   134e8:	00 00 	addb	%al, (%rax)
   134ea:	00 00 	addb	%al, (%rax)
   134ec:	00 00 	addb	%al, (%rax)
   134ee:	00 00 	addb	%al, (%rax)
   134f0:	00 00 	addb	%al, (%rax)
   134f2:	00 00 	addb	%al, (%rax)
   134f4:	00 00 	addb	%al, (%rax)
   134f6:	00 00 	addb	%al, (%rax)
   134f8:	00 00 	addb	%al, (%rax)
   134fa:	00 00 	addb	%al, (%rax)
   134fc:	00 00 	addb	%al, (%rax)
   134fe:	00 00 	addb	%al, (%rax)
   13500:	00 00 	addb	%al, (%rax)
   13502:	00 00 	addb	%al, (%rax)
   13504:	00 00 	addb	%al, (%rax)
   13506:	00 00 	addb	%al, (%rax)
   13508:	00 00 	addb	%al, (%rax)
   1350a:	00 00 	addb	%al, (%rax)
   1350c:	00 00 	addb	%al, (%rax)
   1350e:	00 00 	addb	%al, (%rax)

isr2:
   13510:	00 00 	addb	%al, (%rax)
   13512:	00 00 	addb	%al, (%rax)
   13514:	00 00 	addb	%al, (%rax)
   13516:	00 00 	addb	%al, (%rax)
   13518:	00 00 	addb	%al, (%rax)
   1351a:	00 00 	addb	%al, (%rax)
   1351c:	00 00 	addb	%al, (%rax)
   1351e:	00 00 	addb	%al, (%rax)
   13520:	00 00 	addb	%al, (%rax)
   13522:	00 00 	addb	%al, (%rax)
   13524:	00 00 	addb	%al, (%rax)
   13526:	00 00 	addb	%al, (%rax)
   13528:	00 00 	addb	%al, (%rax)
   1352a:	00 00 	addb	%al, (%rax)
   1352c:	00 00 	addb	%al, (%rax)
   1352e:	00 00 	addb	%al, (%rax)
   13530:	00 00 	addb	%al, (%rax)
   13532:	00 00 	addb	%al, (%rax)
   13534:	00 00 	addb	%al, (%rax)
   13536:	00 00 	addb	%al, (%rax)
   13538:	00 00 	addb	%al, (%rax)
   1353a:	00 00 	addb	%al, (%rax)
   1353c:	00 00 	addb	%al, (%rax)
   1353e:	00 00 	addb	%al, (%rax)
   13540:	00 00 	addb	%al, (%rax)
   13542:	00 00 	addb	%al, (%rax)
   13544:	00 00 	addb	%al, (%rax)
   13546:	00 00 	addb	%al, (%rax)
   13548:	00 00 	addb	%al, (%rax)
   1354a:	00 00 	addb	%al, (%rax)
   1354c:	00 00 	addb	%al, (%rax)
   1354e:	00 00 	addb	%al, (%rax)
   13550:	00 00 	addb	%al, (%rax)
   13552:	00 00 	addb	%al, (%rax)
   13554:	00 00 	addb	%al, (%rax)
   13556:	00 00 	addb	%al, (%rax)
   13558:	00 00 	addb	%al, (%rax)
   1355a:	00 00 	addb	%al, (%rax)
   1355c:	00 00 	addb	%al, (%rax)
   1355e:	00 00 	addb	%al, (%rax)

isr3:
   13560:	00 00 	addb	%al, (%rax)
   13562:	00 00 	addb	%al, (%rax)
   13564:	00 00 	addb	%al, (%rax)
   13566:	00 00 	addb	%al, (%rax)
   13568:	00 00 	addb	%al, (%rax)
   1356a:	00 00 	addb	%al, (%rax)
   1356c:	00 00 	addb	%al, (%rax)
   1356e:	00 00 	addb	%al, (%rax)
   13570:	00 00 	addb	%al, (%rax)
   13572:	00 00 	addb	%al, (%rax)
   13574:	00 00 	addb	%al, (%rax)
   13576:	00 00 	addb	%al, (%rax)
   13578:	00 00 	addb	%al, (%rax)
   1357a:	00 00 	addb	%al, (%rax)
   1357c:	00 00 	addb	%al, (%rax)
   1357e:	00 00 	addb	%al, (%rax)
   13580:	00 00 	addb	%al, (%rax)
   13582:	00 00 	addb	%al, (%rax)
   13584:	00 00 	addb	%al, (%rax)
   13586:	00 00 	addb	%al, (%rax)
   13588:	00 00 	addb	%al, (%rax)
   1358a:	00 00 	addb	%al, (%rax)
   1358c:	00 00 	addb	%al, (%rax)
   1358e:	00 00 	addb	%al, (%rax)
   13590:	00 00 	addb	%al, (%rax)
   13592:	00 00 	addb	%al, (%rax)
   13594:	00 00 	addb	%al, (%rax)
   13596:	00 00 	addb	%al, (%rax)
   13598:	00 00 	addb	%al, (%rax)
   1359a:	00 00 	addb	%al, (%rax)
   1359c:	00 00 	addb	%al, (%rax)
   1359e:	00 00 	addb	%al, (%rax)
   135a0:	00 00 	addb	%al, (%rax)
   135a2:	00 00 	addb	%al, (%rax)
   135a4:	00 00 	addb	%al, (%rax)
   135a6:	00 00 	addb	%al, (%rax)
   135a8:	00 00 	addb	%al, (%rax)
   135aa:	00 00 	addb	%al, (%rax)
   135ac:	00 00 	addb	%al, (%rax)
   135ae:	00 00 	addb	%al, (%rax)

isr4:
   135b0:	00 00 	addb	%al, (%rax)
   135b2:	00 00 	addb	%al, (%rax)
   135b4:	00 00 	addb	%al, (%rax)
   135b6:	00 00 	addb	%al, (%rax)
   135b8:	00 00 	addb	%al, (%rax)
   135ba:	00 00 	addb	%al, (%rax)
   135bc:	00 00 	addb	%al, (%rax)
   135be:	00 00 	addb	%al, (%rax)
   135c0:	00 00 	addb	%al, (%rax)
   135c2:	00 00 	addb	%al, (%rax)
   135c4:	00 00 	addb	%al, (%rax)
   135c6:	00 00 	addb	%al, (%rax)
   135c8:	00 00 	addb	%al, (%rax)
   135ca:	00 00 	addb	%al, (%rax)
   135cc:	00 00 	addb	%al, (%rax)
   135ce:	00 00 	addb	%al, (%rax)
   135d0:	00 00 	addb	%al, (%rax)
   135d2:	00 00 	addb	%al, (%rax)
   135d4:	00 00 	addb	%al, (%rax)
   135d6:	00 00 	addb	%al, (%rax)
   135d8:	00 00 	addb	%al, (%rax)
   135da:	00 00 	addb	%al, (%rax)
   135dc:	00 00 	addb	%al, (%rax)
   135de:	00 00 	addb	%al, (%rax)
   135e0:	00 00 	addb	%al, (%rax)
   135e2:	00 00 	addb	%al, (%rax)
   135e4:	00 00 	addb	%al, (%rax)
   135e6:	00 00 	addb	%al, (%rax)
   135e8:	00 00 	addb	%al, (%rax)
   135ea:	00 00 	addb	%al, (%rax)
   135ec:	00 00 	addb	%al, (%rax)
   135ee:	00 00 	addb	%al, (%rax)
   135f0:	00 00 	addb	%al, (%rax)
   135f2:	00 00 	addb	%al, (%rax)
   135f4:	00 00 	addb	%al, (%rax)
   135f6:	00 00 	addb	%al, (%rax)
   135f8:	00 00 	addb	%al, (%rax)
   135fa:	00 00 	addb	%al, (%rax)
   135fc:	00 00 	addb	%al, (%rax)
   135fe:	00 00 	addb	%al, (%rax)

isr5:
   13600:	00 00 	addb	%al, (%rax)
   13602:	00 00 	addb	%al, (%rax)
   13604:	00 00 	addb	%al, (%rax)
   13606:	00 00 	addb	%al, (%rax)
   13608:	00 00 	addb	%al, (%rax)
   1360a:	00 00 	addb	%al, (%rax)
   1360c:	00 00 	addb	%al, (%rax)
   1360e:	00 00 	addb	%al, (%rax)
   13610:	00 00 	addb	%al, (%rax)
   13612:	00 00 	addb	%al, (%rax)
   13614:	00 00 	addb	%al, (%rax)
   13616:	00 00 	addb	%al, (%rax)
   13618:	00 00 	addb	%al, (%rax)
   1361a:	00 00 	addb	%al, (%rax)
   1361c:	00 00 	addb	%al, (%rax)
   1361e:	00 00 	addb	%al, (%rax)
   13620:	00 00 	addb	%al, (%rax)
   13622:	00 00 	addb	%al, (%rax)
   13624:	00 00 	addb	%al, (%rax)
   13626:	00 00 	addb	%al, (%rax)
   13628:	00 00 	addb	%al, (%rax)
   1362a:	00 00 	addb	%al, (%rax)
   1362c:	00 00 	addb	%al, (%rax)
   1362e:	00 00 	addb	%al, (%rax)
   13630:	00 00 	addb	%al, (%rax)
   13632:	00 00 	addb	%al, (%rax)
   13634:	00 00 	addb	%al, (%rax)
   13636:	00 00 	addb	%al, (%rax)
   13638:	00 00 	addb	%al, (%rax)
   1363a:	00 00 	addb	%al, (%rax)
   1363c:	00 00 	addb	%al, (%rax)
   1363e:	00 00 	addb	%al, (%rax)
   13640:	00 00 	addb	%al, (%rax)
   13642:	00 00 	addb	%al, (%rax)
   13644:	00 00 	addb	%al, (%rax)
   13646:	00 00 	addb	%al, (%rax)
   13648:	00 00 	addb	%al, (%rax)
   1364a:	00 00 	addb	%al, (%rax)
   1364c:	00 00 	addb	%al, (%rax)
   1364e:	00 00 	addb	%al, (%rax)

isr6:
   13650:	00 00 	addb	%al, (%rax)
   13652:	00 00 	addb	%al, (%rax)
   13654:	00 00 	addb	%al, (%rax)
   13656:	00 00 	addb	%al, (%rax)
   13658:	00 00 	addb	%al, (%rax)
   1365a:	00 00 	addb	%al, (%rax)
   1365c:	00 00 	addb	%al, (%rax)
   1365e:	00 00 	addb	%al, (%rax)
   13660:	00 00 	addb	%al, (%rax)
   13662:	00 00 	addb	%al, (%rax)
   13664:	00 00 	addb	%al, (%rax)
   13666:	00 00 	addb	%al, (%rax)
   13668:	00 00 	addb	%al, (%rax)
   1366a:	00 00 	addb	%al, (%rax)
   1366c:	00 00 	addb	%al, (%rax)
   1366e:	00 00 	addb	%al, (%rax)
   13670:	00 00 	addb	%al, (%rax)
   13672:	00 00 	addb	%al, (%rax)
   13674:	00 00 	addb	%al, (%rax)
   13676:	00 00 	addb	%al, (%rax)
   13678:	00 00 	addb	%al, (%rax)
   1367a:	00 00 	addb	%al, (%rax)
   1367c:	00 00 	addb	%al, (%rax)
   1367e:	00 00 	addb	%al, (%rax)
   13680:	00 00 	addb	%al, (%rax)
   13682:	00 00 	addb	%al, (%rax)
   13684:	00 00 	addb	%al, (%rax)
   13686:	00 00 	addb	%al, (%rax)
   13688:	00 00 	addb	%al, (%rax)
   1368a:	00 00 	addb	%al, (%rax)
   1368c:	00 00 	addb	%al, (%rax)
   1368e:	00 00 	addb	%al, (%rax)
   13690:	00 00 	addb	%al, (%rax)
   13692:	00 00 	addb	%al, (%rax)
   13694:	00 00 	addb	%al, (%rax)
   13696:	00 00 	addb	%al, (%rax)
   13698:	00 00 	addb	%al, (%rax)
   1369a:	00 00 	addb	%al, (%rax)
   1369c:	00 00 	addb	%al, (%rax)
   1369e:	00 00 	addb	%al, (%rax)

isr7:
   136a0:	00 00 	addb	%al, (%rax)
   136a2:	00 00 	addb	%al, (%rax)
   136a4:	00 00 	addb	%al, (%rax)
   136a6:	00 00 	addb	%al, (%rax)
   136a8:	00 00 	addb	%al, (%rax)
   136aa:	00 00 	addb	%al, (%rax)
   136ac:	00 00 	addb	%al, (%rax)
   136ae:	00 00 	addb	%al, (%rax)
   136b0:	00 00 	addb	%al, (%rax)
   136b2:	00 00 	addb	%al, (%rax)
   136b4:	00 00 	addb	%al, (%rax)
   136b6:	00 00 	addb	%al, (%rax)
   136b8:	00 00 	addb	%al, (%rax)
   136ba:	00 00 	addb	%al, (%rax)
   136bc:	00 00 	addb	%al, (%rax)
   136be:	00 00 	addb	%al, (%rax)
   136c0:	00 00 	addb	%al, (%rax)
   136c2:	00 00 	addb	%al, (%rax)
   136c4:	00 00 	addb	%al, (%rax)
   136c6:	00 00 	addb	%al, (%rax)
   136c8:	00 00 	addb	%al, (%rax)
   136ca:	00 00 	addb	%al, (%rax)
   136cc:	00 00 	addb	%al, (%rax)
   136ce:	00 00 	addb	%al, (%rax)
   136d0:	00 00 	addb	%al, (%rax)
   136d2:	00 00 	addb	%al, (%rax)
   136d4:	00 00 	addb	%al, (%rax)
   136d6:	00 00 	addb	%al, (%rax)
   136d8:	00 00 	addb	%al, (%rax)
   136da:	00 00 	addb	%al, (%rax)
   136dc:	00 00 	addb	%al, (%rax)
   136de:	00 00 	addb	%al, (%rax)
   136e0:	00 00 	addb	%al, (%rax)
   136e2:	00 00 	addb	%al, (%rax)
   136e4:	00 00 	addb	%al, (%rax)
   136e6:	00 00 	addb	%al, (%rax)
   136e8:	00 00 	addb	%al, (%rax)
   136ea:	00 00 	addb	%al, (%rax)
   136ec:	00 00 	addb	%al, (%rax)
   136ee:	00 00 	addb	%al, (%rax)

isr8:
   136f0:	00 00 	addb	%al, (%rax)
   136f2:	00 00 	addb	%al, (%rax)
   136f4:	00 00 	addb	%al, (%rax)
   136f6:	00 00 	addb	%al, (%rax)
   136f8:	00 00 	addb	%al, (%rax)
   136fa:	00 00 	addb	%al, (%rax)
   136fc:	00 00 	addb	%al, (%rax)
   136fe:	00 00 	addb	%al, (%rax)
   13700:	00 00 	addb	%al, (%rax)
   13702:	00 00 	addb	%al, (%rax)
   13704:	00 00 	addb	%al, (%rax)
   13706:	00 00 	addb	%al, (%rax)
   13708:	00 00 	addb	%al, (%rax)
   1370a:	00 00 	addb	%al, (%rax)
   1370c:	00 00 	addb	%al, (%rax)
   1370e:	00 00 	addb	%al, (%rax)
   13710:	00 00 	addb	%al, (%rax)
   13712:	00 00 	addb	%al, (%rax)
   13714:	00 00 	addb	%al, (%rax)
   13716:	00 00 	addb	%al, (%rax)
   13718:	00 00 	addb	%al, (%rax)
   1371a:	00 00 	addb	%al, (%rax)
   1371c:	00 00 	addb	%al, (%rax)
   1371e:	00 00 	addb	%al, (%rax)
   13720:	00 00 	addb	%al, (%rax)
   13722:	00 00 	addb	%al, (%rax)
   13724:	00 00 	addb	%al, (%rax)
   13726:	00 00 	addb	%al, (%rax)
   13728:	00 00 	addb	%al, (%rax)
   1372a:	00 00 	addb	%al, (%rax)
   1372c:	00 00 	addb	%al, (%rax)
   1372e:	00 00 	addb	%al, (%rax)
   13730:	00 00 	addb	%al, (%rax)
   13732:	00 00 	addb	%al, (%rax)
   13734:	00 00 	addb	%al, (%rax)
   13736:	00 00 	addb	%al, (%rax)
   13738:	00 00 	addb	%al, (%rax)
   1373a:	00 00 	addb	%al, (%rax)
   1373c:	00 00 	addb	%al, (%rax)
   1373e:	00 00 	addb	%al, (%rax)

isr9:
   13740:	00 00 	addb	%al, (%rax)
   13742:	00 00 	addb	%al, (%rax)
   13744:	00 00 	addb	%al, (%rax)
   13746:	00 00 	addb	%al, (%rax)
   13748:	00 00 	addb	%al, (%rax)
   1374a:	00 00 	addb	%al, (%rax)
   1374c:	00 00 	addb	%al, (%rax)
   1374e:	00 00 	addb	%al, (%rax)
   13750:	00 00 	addb	%al, (%rax)
   13752:	00 00 	addb	%al, (%rax)
   13754:	00 00 	addb	%al, (%rax)
   13756:	00 00 	addb	%al, (%rax)
   13758:	00 00 	addb	%al, (%rax)
   1375a:	00 00 	addb	%al, (%rax)
   1375c:	00 00 	addb	%al, (%rax)
   1375e:	00 00 	addb	%al, (%rax)
   13760:	00 00 	addb	%al, (%rax)
   13762:	00 00 	addb	%al, (%rax)
   13764:	00 00 	addb	%al, (%rax)
   13766:	00 00 	addb	%al, (%rax)
   13768:	00 00 	addb	%al, (%rax)
   1376a:	00 00 	addb	%al, (%rax)
   1376c:	00 00 	addb	%al, (%rax)
   1376e:	00 00 	addb	%al, (%rax)
   13770:	00 00 	addb	%al, (%rax)
   13772:	00 00 	addb	%al, (%rax)
   13774:	00 00 	addb	%al, (%rax)
   13776:	00 00 	addb	%al, (%rax)
   13778:	00 00 	addb	%al, (%rax)
   1377a:	00 00 	addb	%al, (%rax)
   1377c:	00 00 	addb	%al, (%rax)
   1377e:	00 00 	addb	%al, (%rax)
   13780:	00 00 	addb	%al, (%rax)
   13782:	00 00 	addb	%al, (%rax)
   13784:	00 00 	addb	%al, (%rax)
   13786:	00 00 	addb	%al, (%rax)
   13788:	00 00 	addb	%al, (%rax)
   1378a:	00 00 	addb	%al, (%rax)
   1378c:	00 00 	addb	%al, (%rax)
   1378e:	00 00 	addb	%al, (%rax)

isr10:
   13790:	00 00 	addb	%al, (%rax)
   13792:	00 00 	addb	%al, (%rax)
   13794:	00 00 	addb	%al, (%rax)
   13796:	00 00 	addb	%al, (%rax)
   13798:	00 00 	addb	%al, (%rax)
   1379a:	00 00 	addb	%al, (%rax)
   1379c:	00 00 	addb	%al, (%rax)
   1379e:	00 00 	addb	%al, (%rax)
   137a0:	00 00 	addb	%al, (%rax)
   137a2:	00 00 	addb	%al, (%rax)
   137a4:	00 00 	addb	%al, (%rax)
   137a6:	00 00 	addb	%al, (%rax)
   137a8:	00 00 	addb	%al, (%rax)
   137aa:	00 00 	addb	%al, (%rax)
   137ac:	00 00 	addb	%al, (%rax)
   137ae:	00 00 	addb	%al, (%rax)
   137b0:	00 00 	addb	%al, (%rax)
   137b2:	00 00 	addb	%al, (%rax)
   137b4:	00 00 	addb	%al, (%rax)
   137b6:	00 00 	addb	%al, (%rax)
   137b8:	00 00 	addb	%al, (%rax)
   137ba:	00 00 	addb	%al, (%rax)
   137bc:	00 00 	addb	%al, (%rax)
   137be:	00 00 	addb	%al, (%rax)
   137c0:	00 00 	addb	%al, (%rax)
   137c2:	00 00 	addb	%al, (%rax)
   137c4:	00 00 	addb	%al, (%rax)
   137c6:	00 00 	addb	%al, (%rax)
   137c8:	00 00 	addb	%al, (%rax)
   137ca:	00 00 	addb	%al, (%rax)
   137cc:	00 00 	addb	%al, (%rax)
   137ce:	00 00 	addb	%al, (%rax)
   137d0:	00 00 	addb	%al, (%rax)
   137d2:	00 00 	addb	%al, (%rax)
   137d4:	00 00 	addb	%al, (%rax)
   137d6:	00 00 	addb	%al, (%rax)
   137d8:	00 00 	addb	%al, (%rax)
   137da:	00 00 	addb	%al, (%rax)
   137dc:	00 00 	addb	%al, (%rax)
   137de:	00 00 	addb	%al, (%rax)

isr11:
   137e0:	00 00 	addb	%al, (%rax)
   137e2:	00 00 	addb	%al, (%rax)
   137e4:	00 00 	addb	%al, (%rax)
   137e6:	00 00 	addb	%al, (%rax)
   137e8:	00 00 	addb	%al, (%rax)
   137ea:	00 00 	addb	%al, (%rax)
   137ec:	00 00 	addb	%al, (%rax)
   137ee:	00 00 	addb	%al, (%rax)
   137f0:	00 00 	addb	%al, (%rax)
   137f2:	00 00 	addb	%al, (%rax)
   137f4:	00 00 	addb	%al, (%rax)
   137f6:	00 00 	addb	%al, (%rax)
   137f8:	00 00 	addb	%al, (%rax)
   137fa:	00 00 	addb	%al, (%rax)
   137fc:	00 00 	addb	%al, (%rax)
   137fe:	00 00 	addb	%al, (%rax)
   13800:	00 00 	addb	%al, (%rax)
   13802:	00 00 	addb	%al, (%rax)
   13804:	00 00 	addb	%al, (%rax)
   13806:	00 00 	addb	%al, (%rax)
   13808:	00 00 	addb	%al, (%rax)
   1380a:	00 00 	addb	%al, (%rax)
   1380c:	00 00 	addb	%al, (%rax)
   1380e:	00 00 	addb	%al, (%rax)
   13810:	00 00 	addb	%al, (%rax)
   13812:	00 00 	addb	%al, (%rax)
   13814:	00 00 	addb	%al, (%rax)
   13816:	00 00 	addb	%al, (%rax)
   13818:	00 00 	addb	%al, (%rax)
   1381a:	00 00 	addb	%al, (%rax)
   1381c:	00 00 	addb	%al, (%rax)
   1381e:	00 00 	addb	%al, (%rax)
   13820:	00 00 	addb	%al, (%rax)
   13822:	00 00 	addb	%al, (%rax)
   13824:	00 00 	addb	%al, (%rax)
   13826:	00 00 	addb	%al, (%rax)
   13828:	00 00 	addb	%al, (%rax)
   1382a:	00 00 	addb	%al, (%rax)
   1382c:	00 00 	addb	%al, (%rax)
   1382e:	00 00 	addb	%al, (%rax)

isr12:
   13830:	00 00 	addb	%al, (%rax)
   13832:	00 00 	addb	%al, (%rax)
   13834:	00 00 	addb	%al, (%rax)
   13836:	00 00 	addb	%al, (%rax)
   13838:	00 00 	addb	%al, (%rax)
   1383a:	00 00 	addb	%al, (%rax)
   1383c:	00 00 	addb	%al, (%rax)
   1383e:	00 00 	addb	%al, (%rax)
   13840:	00 00 	addb	%al, (%rax)
   13842:	00 00 	addb	%al, (%rax)
   13844:	00 00 	addb	%al, (%rax)
   13846:	00 00 	addb	%al, (%rax)
   13848:	00 00 	addb	%al, (%rax)
   1384a:	00 00 	addb	%al, (%rax)
   1384c:	00 00 	addb	%al, (%rax)
   1384e:	00 00 	addb	%al, (%rax)
   13850:	00 00 	addb	%al, (%rax)
   13852:	00 00 	addb	%al, (%rax)
   13854:	00 00 	addb	%al, (%rax)
   13856:	00 00 	addb	%al, (%rax)
   13858:	00 00 	addb	%al, (%rax)
   1385a:	00 00 	addb	%al, (%rax)
   1385c:	00 00 	addb	%al, (%rax)
   1385e:	00 00 	addb	%al, (%rax)
   13860:	00 00 	addb	%al, (%rax)
   13862:	00 00 	addb	%al, (%rax)
   13864:	00 00 	addb	%al, (%rax)
   13866:	00 00 	addb	%al, (%rax)
   13868:	00 00 	addb	%al, (%rax)
   1386a:	00 00 	addb	%al, (%rax)
   1386c:	00 00 	addb	%al, (%rax)
   1386e:	00 00 	addb	%al, (%rax)
   13870:	00 00 	addb	%al, (%rax)
   13872:	00 00 	addb	%al, (%rax)
   13874:	00 00 	addb	%al, (%rax)
   13876:	00 00 	addb	%al, (%rax)
   13878:	00 00 	addb	%al, (%rax)
   1387a:	00 00 	addb	%al, (%rax)
   1387c:	00 00 	addb	%al, (%rax)
   1387e:	00 00 	addb	%al, (%rax)

isr13:
   13880:	00 00 	addb	%al, (%rax)
   13882:	00 00 	addb	%al, (%rax)
   13884:	00 00 	addb	%al, (%rax)
   13886:	00 00 	addb	%al, (%rax)
   13888:	00 00 	addb	%al, (%rax)
   1388a:	00 00 	addb	%al, (%rax)
   1388c:	00 00 	addb	%al, (%rax)
   1388e:	00 00 	addb	%al, (%rax)
   13890:	00 00 	addb	%al, (%rax)
   13892:	00 00 	addb	%al, (%rax)
   13894:	00 00 	addb	%al, (%rax)
   13896:	00 00 	addb	%al, (%rax)
   13898:	00 00 	addb	%al, (%rax)
   1389a:	00 00 	addb	%al, (%rax)
   1389c:	00 00 	addb	%al, (%rax)
   1389e:	00 00 	addb	%al, (%rax)
   138a0:	00 00 	addb	%al, (%rax)
   138a2:	00 00 	addb	%al, (%rax)
   138a4:	00 00 	addb	%al, (%rax)
   138a6:	00 00 	addb	%al, (%rax)
   138a8:	00 00 	addb	%al, (%rax)
   138aa:	00 00 	addb	%al, (%rax)
   138ac:	00 00 	addb	%al, (%rax)
   138ae:	00 00 	addb	%al, (%rax)
   138b0:	00 00 	addb	%al, (%rax)
   138b2:	00 00 	addb	%al, (%rax)
   138b4:	00 00 	addb	%al, (%rax)
   138b6:	00 00 	addb	%al, (%rax)
   138b8:	00 00 	addb	%al, (%rax)
   138ba:	00 00 	addb	%al, (%rax)
   138bc:	00 00 	addb	%al, (%rax)
   138be:	00 00 	addb	%al, (%rax)
   138c0:	00 00 	addb	%al, (%rax)
   138c2:	00 00 	addb	%al, (%rax)
   138c4:	00 00 	addb	%al, (%rax)
   138c6:	00 00 	addb	%al, (%rax)
   138c8:	00 00 	addb	%al, (%rax)
   138ca:	00 00 	addb	%al, (%rax)
   138cc:	00 00 	addb	%al, (%rax)
   138ce:	00 00 	addb	%al, (%rax)

isr14:
   138d0:	00 00 	addb	%al, (%rax)
   138d2:	00 00 	addb	%al, (%rax)
   138d4:	00 00 	addb	%al, (%rax)
   138d6:	00 00 	addb	%al, (%rax)
   138d8:	00 00 	addb	%al, (%rax)
   138da:	00 00 	addb	%al, (%rax)
   138dc:	00 00 	addb	%al, (%rax)
   138de:	00 00 	addb	%al, (%rax)
   138e0:	00 00 	addb	%al, (%rax)
   138e2:	00 00 	addb	%al, (%rax)
   138e4:	00 00 	addb	%al, (%rax)
   138e6:	00 00 	addb	%al, (%rax)
   138e8:	00 00 	addb	%al, (%rax)
   138ea:	00 00 	addb	%al, (%rax)
   138ec:	00 00 	addb	%al, (%rax)
   138ee:	00 00 	addb	%al, (%rax)
   138f0:	00 00 	addb	%al, (%rax)
   138f2:	00 00 	addb	%al, (%rax)
   138f4:	00 00 	addb	%al, (%rax)
   138f6:	00 00 	addb	%al, (%rax)
   138f8:	00 00 	addb	%al, (%rax)
   138fa:	00 00 	addb	%al, (%rax)
   138fc:	00 00 	addb	%al, (%rax)
   138fe:	00 00 	addb	%al, (%rax)
   13900:	00 00 	addb	%al, (%rax)
   13902:	00 00 	addb	%al, (%rax)
   13904:	00 00 	addb	%al, (%rax)
   13906:	00 00 	addb	%al, (%rax)
   13908:	00 00 	addb	%al, (%rax)
   1390a:	00 00 	addb	%al, (%rax)
   1390c:	00 00 	addb	%al, (%rax)
   1390e:	00 00 	addb	%al, (%rax)
   13910:	00 00 	addb	%al, (%rax)
   13912:	00 00 	addb	%al, (%rax)
   13914:	00 00 	addb	%al, (%rax)
   13916:	00 00 	addb	%al, (%rax)
   13918:	00 00 	addb	%al, (%rax)
   1391a:	00 00 	addb	%al, (%rax)
   1391c:	00 00 	addb	%al, (%rax)
   1391e:	00 00 	addb	%al, (%rax)

isr16:
   13920:	00 00 	addb	%al, (%rax)
   13922:	00 00 	addb	%al, (%rax)
   13924:	00 00 	addb	%al, (%rax)
   13926:	00 00 	addb	%al, (%rax)
   13928:	00 00 	addb	%al, (%rax)
   1392a:	00 00 	addb	%al, (%rax)
   1392c:	00 00 	addb	%al, (%rax)
   1392e:	00 00 	addb	%al, (%rax)
   13930:	00 00 	addb	%al, (%rax)
   13932:	00 00 	addb	%al, (%rax)
   13934:	00 00 	addb	%al, (%rax)
   13936:	00 00 	addb	%al, (%rax)
   13938:	00 00 	addb	%al, (%rax)
   1393a:	00 00 	addb	%al, (%rax)
   1393c:	00 00 	addb	%al, (%rax)
   1393e:	00 00 	addb	%al, (%rax)
   13940:	00 00 	addb	%al, (%rax)
   13942:	00 00 	addb	%al, (%rax)
   13944:	00 00 	addb	%al, (%rax)
   13946:	00 00 	addb	%al, (%rax)
   13948:	00 00 	addb	%al, (%rax)
   1394a:	00 00 	addb	%al, (%rax)
   1394c:	00 00 	addb	%al, (%rax)
   1394e:	00 00 	addb	%al, (%rax)
   13950:	00 00 	addb	%al, (%rax)
   13952:	00 00 	addb	%al, (%rax)
   13954:	00 00 	addb	%al, (%rax)
   13956:	00 00 	addb	%al, (%rax)
   13958:	00 00 	addb	%al, (%rax)
   1395a:	00 00 	addb	%al, (%rax)
   1395c:	00 00 	addb	%al, (%rax)
   1395e:	00 00 	addb	%al, (%rax)
   13960:	00 00 	addb	%al, (%rax)
   13962:	00 00 	addb	%al, (%rax)
   13964:	00 00 	addb	%al, (%rax)
   13966:	00 00 	addb	%al, (%rax)
   13968:	00 00 	addb	%al, (%rax)
   1396a:	00 00 	addb	%al, (%rax)
   1396c:	00 00 	addb	%al, (%rax)
   1396e:	00 00 	addb	%al, (%rax)

isr17:
   13970:	00 00 	addb	%al, (%rax)
   13972:	00 00 	addb	%al, (%rax)
   13974:	00 00 	addb	%al, (%rax)
   13976:	00 00 	addb	%al, (%rax)
   13978:	00 00 	addb	%al, (%rax)
   1397a:	00 00 	addb	%al, (%rax)
   1397c:	00 00 	addb	%al, (%rax)
   1397e:	00 00 	addb	%al, (%rax)
   13980:	00 00 	addb	%al, (%rax)
   13982:	00 00 	addb	%al, (%rax)
   13984:	00 00 	addb	%al, (%rax)
   13986:	00 00 	addb	%al, (%rax)
   13988:	00 00 	addb	%al, (%rax)
   1398a:	00 00 	addb	%al, (%rax)
   1398c:	00 00 	addb	%al, (%rax)
   1398e:	00 00 	addb	%al, (%rax)
   13990:	00 00 	addb	%al, (%rax)
   13992:	00 00 	addb	%al, (%rax)
   13994:	00 00 	addb	%al, (%rax)
   13996:	00 00 	addb	%al, (%rax)
   13998:	00 00 	addb	%al, (%rax)
   1399a:	00 00 	addb	%al, (%rax)
   1399c:	00 00 	addb	%al, (%rax)
   1399e:	00 00 	addb	%al, (%rax)
   139a0:	00 00 	addb	%al, (%rax)
   139a2:	00 00 	addb	%al, (%rax)
   139a4:	00 00 	addb	%al, (%rax)
   139a6:	00 00 	addb	%al, (%rax)
   139a8:	00 00 	addb	%al, (%rax)
   139aa:	00 00 	addb	%al, (%rax)
   139ac:	00 00 	addb	%al, (%rax)
   139ae:	00 00 	addb	%al, (%rax)
   139b0:	00 00 	addb	%al, (%rax)
   139b2:	00 00 	addb	%al, (%rax)
   139b4:	00 00 	addb	%al, (%rax)
   139b6:	00 00 	addb	%al, (%rax)
   139b8:	00 00 	addb	%al, (%rax)
   139ba:	00 00 	addb	%al, (%rax)
   139bc:	00 00 	addb	%al, (%rax)
   139be:	00 00 	addb	%al, (%rax)

isr18:
   139c0:	00 00 	addb	%al, (%rax)
   139c2:	00 00 	addb	%al, (%rax)
   139c4:	00 00 	addb	%al, (%rax)
   139c6:	00 00 	addb	%al, (%rax)
   139c8:	00 00 	addb	%al, (%rax)
   139ca:	00 00 	addb	%al, (%rax)
   139cc:	00 00 	addb	%al, (%rax)
   139ce:	00 00 	addb	%al, (%rax)
   139d0:	00 00 	addb	%al, (%rax)
   139d2:	00 00 	addb	%al, (%rax)
   139d4:	00 00 	addb	%al, (%rax)
   139d6:	00 00 	addb	%al, (%rax)
   139d8:	00 00 	addb	%al, (%rax)
   139da:	00 00 	addb	%al, (%rax)
   139dc:	00 00 	addb	%al, (%rax)
   139de:	00 00 	addb	%al, (%rax)
   139e0:	00 00 	addb	%al, (%rax)
   139e2:	00 00 	addb	%al, (%rax)
   139e4:	00 00 	addb	%al, (%rax)
   139e6:	00 00 	addb	%al, (%rax)
   139e8:	00 00 	addb	%al, (%rax)
   139ea:	00 00 	addb	%al, (%rax)
   139ec:	00 00 	addb	%al, (%rax)
   139ee:	00 00 	addb	%al, (%rax)
   139f0:	00 00 	addb	%al, (%rax)
   139f2:	00 00 	addb	%al, (%rax)
   139f4:	00 00 	addb	%al, (%rax)
   139f6:	00 00 	addb	%al, (%rax)
   139f8:	00 00 	addb	%al, (%rax)
   139fa:	00 00 	addb	%al, (%rax)
   139fc:	00 00 	addb	%al, (%rax)
   139fe:	00 00 	addb	%al, (%rax)
   13a00:	00 00 	addb	%al, (%rax)
   13a02:	00 00 	addb	%al, (%rax)
   13a04:	00 00 	addb	%al, (%rax)
   13a06:	00 00 	addb	%al, (%rax)
   13a08:	00 00 	addb	%al, (%rax)
   13a0a:	00 00 	addb	%al, (%rax)
   13a0c:	00 00 	addb	%al, (%rax)
   13a0e:	00 00 	addb	%al, (%rax)

isr19:
   13a10:	00 00 	addb	%al, (%rax)
   13a12:	00 00 	addb	%al, (%rax)
   13a14:	00 00 	addb	%al, (%rax)
   13a16:	00 00 	addb	%al, (%rax)
   13a18:	00 00 	addb	%al, (%rax)
   13a1a:	00 00 	addb	%al, (%rax)
   13a1c:	00 00 	addb	%al, (%rax)
   13a1e:	00 00 	addb	%al, (%rax)
   13a20:	00 00 	addb	%al, (%rax)
   13a22:	00 00 	addb	%al, (%rax)
   13a24:	00 00 	addb	%al, (%rax)
   13a26:	00 00 	addb	%al, (%rax)
   13a28:	00 00 	addb	%al, (%rax)
   13a2a:	00 00 	addb	%al, (%rax)
   13a2c:	00 00 	addb	%al, (%rax)
   13a2e:	00 00 	addb	%al, (%rax)
   13a30:	00 00 	addb	%al, (%rax)
   13a32:	00 00 	addb	%al, (%rax)
   13a34:	00 00 	addb	%al, (%rax)
   13a36:	00 00 	addb	%al, (%rax)
   13a38:	00 00 	addb	%al, (%rax)
   13a3a:	00 00 	addb	%al, (%rax)
   13a3c:	00 00 	addb	%al, (%rax)
   13a3e:	00 00 	addb	%al, (%rax)
   13a40:	00 00 	addb	%al, (%rax)
   13a42:	00 00 	addb	%al, (%rax)
   13a44:	00 00 	addb	%al, (%rax)
   13a46:	00 00 	addb	%al, (%rax)
   13a48:	00 00 	addb	%al, (%rax)
   13a4a:	00 00 	addb	%al, (%rax)
   13a4c:	00 00 	addb	%al, (%rax)
   13a4e:	00 00 	addb	%al, (%rax)
   13a50:	00 00 	addb	%al, (%rax)
   13a52:	00 00 	addb	%al, (%rax)
   13a54:	00 00 	addb	%al, (%rax)
   13a56:	00 00 	addb	%al, (%rax)
   13a58:	00 00 	addb	%al, (%rax)
   13a5a:	00 00 	addb	%al, (%rax)
   13a5c:	00 00 	addb	%al, (%rax)
   13a5e:	00 00 	addb	%al, (%rax)

isr20:
   13a60:	00 00 	addb	%al, (%rax)
   13a62:	00 00 	addb	%al, (%rax)
   13a64:	00 00 	addb	%al, (%rax)
   13a66:	00 00 	addb	%al, (%rax)
   13a68:	00 00 	addb	%al, (%rax)
   13a6a:	00 00 	addb	%al, (%rax)
   13a6c:	00 00 	addb	%al, (%rax)
   13a6e:	00 00 	addb	%al, (%rax)
   13a70:	00 00 	addb	%al, (%rax)
   13a72:	00 00 	addb	%al, (%rax)
   13a74:	00 00 	addb	%al, (%rax)
   13a76:	00 00 	addb	%al, (%rax)
   13a78:	00 00 	addb	%al, (%rax)
   13a7a:	00 00 	addb	%al, (%rax)
   13a7c:	00 00 	addb	%al, (%rax)
   13a7e:	00 00 	addb	%al, (%rax)
   13a80:	00 00 	addb	%al, (%rax)
   13a82:	00 00 	addb	%al, (%rax)
   13a84:	00 00 	addb	%al, (%rax)
   13a86:	00 00 	addb	%al, (%rax)
   13a88:	00 00 	addb	%al, (%rax)
   13a8a:	00 00 	addb	%al, (%rax)
   13a8c:	00 00 	addb	%al, (%rax)
   13a8e:	00 00 	addb	%al, (%rax)
   13a90:	00 00 	addb	%al, (%rax)
   13a92:	00 00 	addb	%al, (%rax)
   13a94:	00 00 	addb	%al, (%rax)
   13a96:	00 00 	addb	%al, (%rax)
   13a98:	00 00 	addb	%al, (%rax)
   13a9a:	00 00 	addb	%al, (%rax)
   13a9c:	00 00 	addb	%al, (%rax)
   13a9e:	00 00 	addb	%al, (%rax)
   13aa0:	00 00 	addb	%al, (%rax)
   13aa2:	00 00 	addb	%al, (%rax)
   13aa4:	00 00 	addb	%al, (%rax)
   13aa6:	00 00 	addb	%al, (%rax)
   13aa8:	00 00 	addb	%al, (%rax)
   13aaa:	00 00 	addb	%al, (%rax)
   13aac:	00 00 	addb	%al, (%rax)
   13aae:	00 00 	addb	%al, (%rax)

isr30:
   13ab0:	00 00 	addb	%al, (%rax)
   13ab2:	00 00 	addb	%al, (%rax)
   13ab4:	00 00 	addb	%al, (%rax)
   13ab6:	00 00 	addb	%al, (%rax)
   13ab8:	00 00 	addb	%al, (%rax)
   13aba:	00 00 	addb	%al, (%rax)
   13abc:	00 00 	addb	%al, (%rax)
   13abe:	00 00 	addb	%al, (%rax)
   13ac0:	00 00 	addb	%al, (%rax)
   13ac2:	00 00 	addb	%al, (%rax)
   13ac4:	00 00 	addb	%al, (%rax)
   13ac6:	00 00 	addb	%al, (%rax)
   13ac8:	00 00 	addb	%al, (%rax)
   13aca:	00 00 	addb	%al, (%rax)
   13acc:	00 00 	addb	%al, (%rax)
   13ace:	00 00 	addb	%al, (%rax)
   13ad0:	00 00 	addb	%al, (%rax)
   13ad2:	00 00 	addb	%al, (%rax)
   13ad4:	00 00 	addb	%al, (%rax)
   13ad6:	00 00 	addb	%al, (%rax)
   13ad8:	00 00 	addb	%al, (%rax)
   13ada:	00 00 	addb	%al, (%rax)
   13adc:	00 00 	addb	%al, (%rax)
   13ade:	00 00 	addb	%al, (%rax)
   13ae0:	00 00 	addb	%al, (%rax)
   13ae2:	00 00 	addb	%al, (%rax)
   13ae4:	00 00 	addb	%al, (%rax)
   13ae6:	00 00 	addb	%al, (%rax)
   13ae8:	00 00 	addb	%al, (%rax)
   13aea:	00 00 	addb	%al, (%rax)
   13aec:	00 00 	addb	%al, (%rax)
   13aee:	00 00 	addb	%al, (%rax)
   13af0:	00 00 	addb	%al, (%rax)
   13af2:	00 00 	addb	%al, (%rax)
   13af4:	00 00 	addb	%al, (%rax)
   13af6:	00 00 	addb	%al, (%rax)
   13af8:	00 00 	addb	%al, (%rax)
   13afa:	00 00 	addb	%al, (%rax)
   13afc:	00 00 	addb	%al, (%rax)
   13afe:	00 00 	addb	%al, (%rax)

irq0:
   13b00:	00 00 	addb	%al, (%rax)
   13b02:	00 00 	addb	%al, (%rax)
   13b04:	00 00 	addb	%al, (%rax)
   13b06:	00 00 	addb	%al, (%rax)
   13b08:	00 00 	addb	%al, (%rax)
   13b0a:	00 00 	addb	%al, (%rax)
   13b0c:	00 00 	addb	%al, (%rax)
   13b0e:	00 00 	addb	%al, (%rax)
   13b10:	00 00 	addb	%al, (%rax)
   13b12:	00 00 	addb	%al, (%rax)
   13b14:	00 00 	addb	%al, (%rax)
   13b16:	00 00 	addb	%al, (%rax)
   13b18:	00 00 	addb	%al, (%rax)
   13b1a:	00 00 	addb	%al, (%rax)
   13b1c:	00 00 	addb	%al, (%rax)
   13b1e:	00 00 	addb	%al, (%rax)
   13b20:	00 00 	addb	%al, (%rax)
   13b22:	00 00 	addb	%al, (%rax)
   13b24:	00 00 	addb	%al, (%rax)
   13b26:	00 00 	addb	%al, (%rax)
   13b28:	00 00 	addb	%al, (%rax)
   13b2a:	00 00 	addb	%al, (%rax)
   13b2c:	00 00 	addb	%al, (%rax)
   13b2e:	00 00 	addb	%al, (%rax)
   13b30:	00 00 	addb	%al, (%rax)
   13b32:	00 00 	addb	%al, (%rax)
   13b34:	00 00 	addb	%al, (%rax)
   13b36:	00 00 	addb	%al, (%rax)
   13b38:	00 00 	addb	%al, (%rax)
   13b3a:	00 00 	addb	%al, (%rax)
   13b3c:	00 00 	addb	%al, (%rax)
   13b3e:	00 00 	addb	%al, (%rax)
   13b40:	00 00 	addb	%al, (%rax)
   13b42:	00 00 	addb	%al, (%rax)
   13b44:	00 00 	addb	%al, (%rax)
   13b46:	00 00 	addb	%al, (%rax)
   13b48:	00 00 	addb	%al, (%rax)
   13b4a:	00 00 	addb	%al, (%rax)
   13b4c:	00 00 	addb	%al, (%rax)
   13b4e:	00 00 	addb	%al, (%rax)

irq1:
   13b50:	00 00 	addb	%al, (%rax)
   13b52:	00 00 	addb	%al, (%rax)
   13b54:	00 00 	addb	%al, (%rax)
   13b56:	00 00 	addb	%al, (%rax)
   13b58:	00 00 	addb	%al, (%rax)
   13b5a:	00 00 	addb	%al, (%rax)
   13b5c:	00 00 	addb	%al, (%rax)
   13b5e:	00 00 	addb	%al, (%rax)
   13b60:	00 00 	addb	%al, (%rax)
   13b62:	00 00 	addb	%al, (%rax)
   13b64:	00 00 	addb	%al, (%rax)
   13b66:	00 00 	addb	%al, (%rax)
   13b68:	00 00 	addb	%al, (%rax)
   13b6a:	00 00 	addb	%al, (%rax)
   13b6c:	00 00 	addb	%al, (%rax)
   13b6e:	00 00 	addb	%al, (%rax)
   13b70:	00 00 	addb	%al, (%rax)
   13b72:	00 00 	addb	%al, (%rax)
   13b74:	00 00 	addb	%al, (%rax)
   13b76:	00 00 	addb	%al, (%rax)
   13b78:	00 00 	addb	%al, (%rax)
   13b7a:	00 00 	addb	%al, (%rax)
   13b7c:	00 00 	addb	%al, (%rax)
   13b7e:	00 00 	addb	%al, (%rax)
   13b80:	00 00 	addb	%al, (%rax)
   13b82:	00 00 	addb	%al, (%rax)
   13b84:	00 00 	addb	%al, (%rax)
   13b86:	00 00 	addb	%al, (%rax)
   13b88:	00 00 	addb	%al, (%rax)
   13b8a:	00 00 	addb	%al, (%rax)
   13b8c:	00 00 	addb	%al, (%rax)
   13b8e:	00 00 	addb	%al, (%rax)
   13b90:	00 00 	addb	%al, (%rax)
   13b92:	00 00 	addb	%al, (%rax)
   13b94:	00 00 	addb	%al, (%rax)
   13b96:	00 00 	addb	%al, (%rax)
   13b98:	00 00 	addb	%al, (%rax)
   13b9a:	00 00 	addb	%al, (%rax)
   13b9c:	00 00 	addb	%al, (%rax)
   13b9e:	00 00 	addb	%al, (%rax)

irq2:
   13ba0:	00 00 	addb	%al, (%rax)
   13ba2:	00 00 	addb	%al, (%rax)
   13ba4:	00 00 	addb	%al, (%rax)
   13ba6:	00 00 	addb	%al, (%rax)
   13ba8:	00 00 	addb	%al, (%rax)
   13baa:	00 00 	addb	%al, (%rax)
   13bac:	00 00 	addb	%al, (%rax)
   13bae:	00 00 	addb	%al, (%rax)
   13bb0:	00 00 	addb	%al, (%rax)
   13bb2:	00 00 	addb	%al, (%rax)
   13bb4:	00 00 	addb	%al, (%rax)
   13bb6:	00 00 	addb	%al, (%rax)
   13bb8:	00 00 	addb	%al, (%rax)
   13bba:	00 00 	addb	%al, (%rax)
   13bbc:	00 00 	addb	%al, (%rax)
   13bbe:	00 00 	addb	%al, (%rax)
   13bc0:	00 00 	addb	%al, (%rax)
   13bc2:	00 00 	addb	%al, (%rax)
   13bc4:	00 00 	addb	%al, (%rax)
   13bc6:	00 00 	addb	%al, (%rax)
   13bc8:	00 00 	addb	%al, (%rax)
   13bca:	00 00 	addb	%al, (%rax)
   13bcc:	00 00 	addb	%al, (%rax)
   13bce:	00 00 	addb	%al, (%rax)
   13bd0:	00 00 	addb	%al, (%rax)
   13bd2:	00 00 	addb	%al, (%rax)
   13bd4:	00 00 	addb	%al, (%rax)
   13bd6:	00 00 	addb	%al, (%rax)
   13bd8:	00 00 	addb	%al, (%rax)
   13bda:	00 00 	addb	%al, (%rax)
   13bdc:	00 00 	addb	%al, (%rax)
   13bde:	00 00 	addb	%al, (%rax)
   13be0:	00 00 	addb	%al, (%rax)
   13be2:	00 00 	addb	%al, (%rax)
   13be4:	00 00 	addb	%al, (%rax)
   13be6:	00 00 	addb	%al, (%rax)
   13be8:	00 00 	addb	%al, (%rax)
   13bea:	00 00 	addb	%al, (%rax)
   13bec:	00 00 	addb	%al, (%rax)
   13bee:	00 00 	addb	%al, (%rax)

irq3:
   13bf0:	00 00 	addb	%al, (%rax)
   13bf2:	00 00 	addb	%al, (%rax)
   13bf4:	00 00 	addb	%al, (%rax)
   13bf6:	00 00 	addb	%al, (%rax)
   13bf8:	00 00 	addb	%al, (%rax)
   13bfa:	00 00 	addb	%al, (%rax)
   13bfc:	00 00 	addb	%al, (%rax)
   13bfe:	00 00 	addb	%al, (%rax)
   13c00:	00 00 	addb	%al, (%rax)
   13c02:	00 00 	addb	%al, (%rax)
   13c04:	00 00 	addb	%al, (%rax)
   13c06:	00 00 	addb	%al, (%rax)
   13c08:	00 00 	addb	%al, (%rax)
   13c0a:	00 00 	addb	%al, (%rax)
   13c0c:	00 00 	addb	%al, (%rax)
   13c0e:	00 00 	addb	%al, (%rax)
   13c10:	00 00 	addb	%al, (%rax)
   13c12:	00 00 	addb	%al, (%rax)
   13c14:	00 00 	addb	%al, (%rax)
   13c16:	00 00 	addb	%al, (%rax)
   13c18:	00 00 	addb	%al, (%rax)
   13c1a:	00 00 	addb	%al, (%rax)
   13c1c:	00 00 	addb	%al, (%rax)
   13c1e:	00 00 	addb	%al, (%rax)
   13c20:	00 00 	addb	%al, (%rax)
   13c22:	00 00 	addb	%al, (%rax)
   13c24:	00 00 	addb	%al, (%rax)
   13c26:	00 00 	addb	%al, (%rax)
   13c28:	00 00 	addb	%al, (%rax)
   13c2a:	00 00 	addb	%al, (%rax)
   13c2c:	00 00 	addb	%al, (%rax)
   13c2e:	00 00 	addb	%al, (%rax)
   13c30:	00 00 	addb	%al, (%rax)
   13c32:	00 00 	addb	%al, (%rax)
   13c34:	00 00 	addb	%al, (%rax)
   13c36:	00 00 	addb	%al, (%rax)
   13c38:	00 00 	addb	%al, (%rax)
   13c3a:	00 00 	addb	%al, (%rax)
   13c3c:	00 00 	addb	%al, (%rax)
   13c3e:	00 00 	addb	%al, (%rax)

irq4:
   13c40:	00 00 	addb	%al, (%rax)
   13c42:	00 00 	addb	%al, (%rax)
   13c44:	00 00 	addb	%al, (%rax)
   13c46:	00 00 	addb	%al, (%rax)
   13c48:	00 00 	addb	%al, (%rax)
   13c4a:	00 00 	addb	%al, (%rax)
   13c4c:	00 00 	addb	%al, (%rax)
   13c4e:	00 00 	addb	%al, (%rax)
   13c50:	00 00 	addb	%al, (%rax)
   13c52:	00 00 	addb	%al, (%rax)
   13c54:	00 00 	addb	%al, (%rax)
   13c56:	00 00 	addb	%al, (%rax)
   13c58:	00 00 	addb	%al, (%rax)
   13c5a:	00 00 	addb	%al, (%rax)
   13c5c:	00 00 	addb	%al, (%rax)
   13c5e:	00 00 	addb	%al, (%rax)
   13c60:	00 00 	addb	%al, (%rax)
   13c62:	00 00 	addb	%al, (%rax)
   13c64:	00 00 	addb	%al, (%rax)
   13c66:	00 00 	addb	%al, (%rax)
   13c68:	00 00 	addb	%al, (%rax)
   13c6a:	00 00 	addb	%al, (%rax)
   13c6c:	00 00 	addb	%al, (%rax)
   13c6e:	00 00 	addb	%al, (%rax)
   13c70:	00 00 	addb	%al, (%rax)
   13c72:	00 00 	addb	%al, (%rax)
   13c74:	00 00 	addb	%al, (%rax)
   13c76:	00 00 	addb	%al, (%rax)
   13c78:	00 00 	addb	%al, (%rax)
   13c7a:	00 00 	addb	%al, (%rax)
   13c7c:	00 00 	addb	%al, (%rax)
   13c7e:	00 00 	addb	%al, (%rax)
   13c80:	00 00 	addb	%al, (%rax)
   13c82:	00 00 	addb	%al, (%rax)
   13c84:	00 00 	addb	%al, (%rax)
   13c86:	00 00 	addb	%al, (%rax)
   13c88:	00 00 	addb	%al, (%rax)
   13c8a:	00 00 	addb	%al, (%rax)
   13c8c:	00 00 	addb	%al, (%rax)
   13c8e:	00 00 	addb	%al, (%rax)

irq5:
   13c90:	00 00 	addb	%al, (%rax)
   13c92:	00 00 	addb	%al, (%rax)
   13c94:	00 00 	addb	%al, (%rax)
   13c96:	00 00 	addb	%al, (%rax)
   13c98:	00 00 	addb	%al, (%rax)
   13c9a:	00 00 	addb	%al, (%rax)
   13c9c:	00 00 	addb	%al, (%rax)
   13c9e:	00 00 	addb	%al, (%rax)
   13ca0:	00 00 	addb	%al, (%rax)
   13ca2:	00 00 	addb	%al, (%rax)
   13ca4:	00 00 	addb	%al, (%rax)
   13ca6:	00 00 	addb	%al, (%rax)
   13ca8:	00 00 	addb	%al, (%rax)
   13caa:	00 00 	addb	%al, (%rax)
   13cac:	00 00 	addb	%al, (%rax)
   13cae:	00 00 	addb	%al, (%rax)
   13cb0:	00 00 	addb	%al, (%rax)
   13cb2:	00 00 	addb	%al, (%rax)
   13cb4:	00 00 	addb	%al, (%rax)
   13cb6:	00 00 	addb	%al, (%rax)
   13cb8:	00 00 	addb	%al, (%rax)
   13cba:	00 00 	addb	%al, (%rax)
   13cbc:	00 00 	addb	%al, (%rax)
   13cbe:	00 00 	addb	%al, (%rax)
   13cc0:	00 00 	addb	%al, (%rax)
   13cc2:	00 00 	addb	%al, (%rax)
   13cc4:	00 00 	addb	%al, (%rax)
   13cc6:	00 00 	addb	%al, (%rax)
   13cc8:	00 00 	addb	%al, (%rax)
   13cca:	00 00 	addb	%al, (%rax)
   13ccc:	00 00 	addb	%al, (%rax)
   13cce:	00 00 	addb	%al, (%rax)
   13cd0:	00 00 	addb	%al, (%rax)
   13cd2:	00 00 	addb	%al, (%rax)
   13cd4:	00 00 	addb	%al, (%rax)
   13cd6:	00 00 	addb	%al, (%rax)
   13cd8:	00 00 	addb	%al, (%rax)
   13cda:	00 00 	addb	%al, (%rax)
   13cdc:	00 00 	addb	%al, (%rax)
   13cde:	00 00 	addb	%al, (%rax)

irq6:
   13ce0:	00 00 	addb	%al, (%rax)
   13ce2:	00 00 	addb	%al, (%rax)
   13ce4:	00 00 	addb	%al, (%rax)
   13ce6:	00 00 	addb	%al, (%rax)
   13ce8:	00 00 	addb	%al, (%rax)
   13cea:	00 00 	addb	%al, (%rax)
   13cec:	00 00 	addb	%al, (%rax)
   13cee:	00 00 	addb	%al, (%rax)
   13cf0:	00 00 	addb	%al, (%rax)
   13cf2:	00 00 	addb	%al, (%rax)
   13cf4:	00 00 	addb	%al, (%rax)
   13cf6:	00 00 	addb	%al, (%rax)
   13cf8:	00 00 	addb	%al, (%rax)
   13cfa:	00 00 	addb	%al, (%rax)
   13cfc:	00 00 	addb	%al, (%rax)
   13cfe:	00 00 	addb	%al, (%rax)
   13d00:	00 00 	addb	%al, (%rax)
   13d02:	00 00 	addb	%al, (%rax)
   13d04:	00 00 	addb	%al, (%rax)
   13d06:	00 00 	addb	%al, (%rax)
   13d08:	00 00 	addb	%al, (%rax)
   13d0a:	00 00 	addb	%al, (%rax)
   13d0c:	00 00 	addb	%al, (%rax)
   13d0e:	00 00 	addb	%al, (%rax)
   13d10:	00 00 	addb	%al, (%rax)
   13d12:	00 00 	addb	%al, (%rax)
   13d14:	00 00 	addb	%al, (%rax)
   13d16:	00 00 	addb	%al, (%rax)
   13d18:	00 00 	addb	%al, (%rax)
   13d1a:	00 00 	addb	%al, (%rax)
   13d1c:	00 00 	addb	%al, (%rax)
   13d1e:	00 00 	addb	%al, (%rax)
   13d20:	00 00 	addb	%al, (%rax)
   13d22:	00 00 	addb	%al, (%rax)
   13d24:	00 00 	addb	%al, (%rax)
   13d26:	00 00 	addb	%al, (%rax)
   13d28:	00 00 	addb	%al, (%rax)
   13d2a:	00 00 	addb	%al, (%rax)
   13d2c:	00 00 	addb	%al, (%rax)
   13d2e:	00 00 	addb	%al, (%rax)

irq7:
   13d30:	00 00 	addb	%al, (%rax)
   13d32:	00 00 	addb	%al, (%rax)
   13d34:	00 00 	addb	%al, (%rax)
   13d36:	00 00 	addb	%al, (%rax)
   13d38:	00 00 	addb	%al, (%rax)
   13d3a:	00 00 	addb	%al, (%rax)
   13d3c:	00 00 	addb	%al, (%rax)
   13d3e:	00 00 	addb	%al, (%rax)
   13d40:	00 00 	addb	%al, (%rax)
   13d42:	00 00 	addb	%al, (%rax)
   13d44:	00 00 	addb	%al, (%rax)
   13d46:	00 00 	addb	%al, (%rax)
   13d48:	00 00 	addb	%al, (%rax)
   13d4a:	00 00 	addb	%al, (%rax)
   13d4c:	00 00 	addb	%al, (%rax)
   13d4e:	00 00 	addb	%al, (%rax)
   13d50:	00 00 	addb	%al, (%rax)
   13d52:	00 00 	addb	%al, (%rax)
   13d54:	00 00 	addb	%al, (%rax)
   13d56:	00 00 	addb	%al, (%rax)
   13d58:	00 00 	addb	%al, (%rax)
   13d5a:	00 00 	addb	%al, (%rax)
   13d5c:	00 00 	addb	%al, (%rax)
   13d5e:	00 00 	addb	%al, (%rax)
   13d60:	00 00 	addb	%al, (%rax)
   13d62:	00 00 	addb	%al, (%rax)
   13d64:	00 00 	addb	%al, (%rax)
   13d66:	00 00 	addb	%al, (%rax)
   13d68:	00 00 	addb	%al, (%rax)
   13d6a:	00 00 	addb	%al, (%rax)
   13d6c:	00 00 	addb	%al, (%rax)
   13d6e:	00 00 	addb	%al, (%rax)
   13d70:	00 00 	addb	%al, (%rax)
   13d72:	00 00 	addb	%al, (%rax)
   13d74:	00 00 	addb	%al, (%rax)
   13d76:	00 00 	addb	%al, (%rax)
   13d78:	00 00 	addb	%al, (%rax)
   13d7a:	00 00 	addb	%al, (%rax)
   13d7c:	00 00 	addb	%al, (%rax)
   13d7e:	00 00 	addb	%al, (%rax)

irq8:
   13d80:	00 00 	addb	%al, (%rax)
   13d82:	00 00 	addb	%al, (%rax)
   13d84:	00 00 	addb	%al, (%rax)
   13d86:	00 00 	addb	%al, (%rax)
   13d88:	00 00 	addb	%al, (%rax)
   13d8a:	00 00 	addb	%al, (%rax)
   13d8c:	00 00 	addb	%al, (%rax)
   13d8e:	00 00 	addb	%al, (%rax)
   13d90:	00 00 	addb	%al, (%rax)
   13d92:	00 00 	addb	%al, (%rax)
   13d94:	00 00 	addb	%al, (%rax)
   13d96:	00 00 	addb	%al, (%rax)
   13d98:	00 00 	addb	%al, (%rax)
   13d9a:	00 00 	addb	%al, (%rax)
   13d9c:	00 00 	addb	%al, (%rax)
   13d9e:	00 00 	addb	%al, (%rax)
   13da0:	00 00 	addb	%al, (%rax)
   13da2:	00 00 	addb	%al, (%rax)
   13da4:	00 00 	addb	%al, (%rax)
   13da6:	00 00 	addb	%al, (%rax)
   13da8:	00 00 	addb	%al, (%rax)
   13daa:	00 00 	addb	%al, (%rax)
   13dac:	00 00 	addb	%al, (%rax)
   13dae:	00 00 	addb	%al, (%rax)
   13db0:	00 00 	addb	%al, (%rax)
   13db2:	00 00 	addb	%al, (%rax)
   13db4:	00 00 	addb	%al, (%rax)
   13db6:	00 00 	addb	%al, (%rax)
   13db8:	00 00 	addb	%al, (%rax)
   13dba:	00 00 	addb	%al, (%rax)
   13dbc:	00 00 	addb	%al, (%rax)
   13dbe:	00 00 	addb	%al, (%rax)
   13dc0:	00 00 	addb	%al, (%rax)
   13dc2:	00 00 	addb	%al, (%rax)
   13dc4:	00 00 	addb	%al, (%rax)
   13dc6:	00 00 	addb	%al, (%rax)
   13dc8:	00 00 	addb	%al, (%rax)
   13dca:	00 00 	addb	%al, (%rax)
   13dcc:	00 00 	addb	%al, (%rax)
   13dce:	00 00 	addb	%al, (%rax)

irq9:
   13dd0:	00 00 	addb	%al, (%rax)
   13dd2:	00 00 	addb	%al, (%rax)
   13dd4:	00 00 	addb	%al, (%rax)
   13dd6:	00 00 	addb	%al, (%rax)
   13dd8:	00 00 	addb	%al, (%rax)
   13dda:	00 00 	addb	%al, (%rax)
   13ddc:	00 00 	addb	%al, (%rax)
   13dde:	00 00 	addb	%al, (%rax)
   13de0:	00 00 	addb	%al, (%rax)
   13de2:	00 00 	addb	%al, (%rax)
   13de4:	00 00 	addb	%al, (%rax)
   13de6:	00 00 	addb	%al, (%rax)
   13de8:	00 00 	addb	%al, (%rax)
   13dea:	00 00 	addb	%al, (%rax)
   13dec:	00 00 	addb	%al, (%rax)
   13dee:	00 00 	addb	%al, (%rax)
   13df0:	00 00 	addb	%al, (%rax)
   13df2:	00 00 	addb	%al, (%rax)
   13df4:	00 00 	addb	%al, (%rax)
   13df6:	00 00 	addb	%al, (%rax)
   13df8:	00 00 	addb	%al, (%rax)
   13dfa:	00 00 	addb	%al, (%rax)
   13dfc:	00 00 	addb	%al, (%rax)
   13dfe:	00 00 	addb	%al, (%rax)
   13e00:	00 00 	addb	%al, (%rax)
   13e02:	00 00 	addb	%al, (%rax)
   13e04:	00 00 	addb	%al, (%rax)
   13e06:	00 00 	addb	%al, (%rax)
   13e08:	00 00 	addb	%al, (%rax)
   13e0a:	00 00 	addb	%al, (%rax)
   13e0c:	00 00 	addb	%al, (%rax)
   13e0e:	00 00 	addb	%al, (%rax)
   13e10:	00 00 	addb	%al, (%rax)
   13e12:	00 00 	addb	%al, (%rax)
   13e14:	00 00 	addb	%al, (%rax)
   13e16:	00 00 	addb	%al, (%rax)
   13e18:	00 00 	addb	%al, (%rax)
   13e1a:	00 00 	addb	%al, (%rax)
   13e1c:	00 00 	addb	%al, (%rax)
   13e1e:	00 00 	addb	%al, (%rax)

irq10:
   13e20:	00 00 	addb	%al, (%rax)
   13e22:	00 00 	addb	%al, (%rax)
   13e24:	00 00 	addb	%al, (%rax)
   13e26:	00 00 	addb	%al, (%rax)
   13e28:	00 00 	addb	%al, (%rax)
   13e2a:	00 00 	addb	%al, (%rax)
   13e2c:	00 00 	addb	%al, (%rax)
   13e2e:	00 00 	addb	%al, (%rax)
   13e30:	00 00 	addb	%al, (%rax)
   13e32:	00 00 	addb	%al, (%rax)
   13e34:	00 00 	addb	%al, (%rax)
   13e36:	00 00 	addb	%al, (%rax)
   13e38:	00 00 	addb	%al, (%rax)
   13e3a:	00 00 	addb	%al, (%rax)
   13e3c:	00 00 	addb	%al, (%rax)
   13e3e:	00 00 	addb	%al, (%rax)
   13e40:	00 00 	addb	%al, (%rax)
   13e42:	00 00 	addb	%al, (%rax)
   13e44:	00 00 	addb	%al, (%rax)
   13e46:	00 00 	addb	%al, (%rax)
   13e48:	00 00 	addb	%al, (%rax)
   13e4a:	00 00 	addb	%al, (%rax)
   13e4c:	00 00 	addb	%al, (%rax)
   13e4e:	00 00 	addb	%al, (%rax)
   13e50:	00 00 	addb	%al, (%rax)
   13e52:	00 00 	addb	%al, (%rax)
   13e54:	00 00 	addb	%al, (%rax)
   13e56:	00 00 	addb	%al, (%rax)
   13e58:	00 00 	addb	%al, (%rax)
   13e5a:	00 00 	addb	%al, (%rax)
   13e5c:	00 00 	addb	%al, (%rax)
   13e5e:	00 00 	addb	%al, (%rax)
   13e60:	00 00 	addb	%al, (%rax)
   13e62:	00 00 	addb	%al, (%rax)
   13e64:	00 00 	addb	%al, (%rax)
   13e66:	00 00 	addb	%al, (%rax)
   13e68:	00 00 	addb	%al, (%rax)
   13e6a:	00 00 	addb	%al, (%rax)
   13e6c:	00 00 	addb	%al, (%rax)
   13e6e:	00 00 	addb	%al, (%rax)

irq11:
   13e70:	00 00 	addb	%al, (%rax)
   13e72:	00 00 	addb	%al, (%rax)
   13e74:	00 00 	addb	%al, (%rax)
   13e76:	00 00 	addb	%al, (%rax)
   13e78:	00 00 	addb	%al, (%rax)
   13e7a:	00 00 	addb	%al, (%rax)
   13e7c:	00 00 	addb	%al, (%rax)
   13e7e:	00 00 	addb	%al, (%rax)
   13e80:	00 00 	addb	%al, (%rax)
   13e82:	00 00 	addb	%al, (%rax)
   13e84:	00 00 	addb	%al, (%rax)
   13e86:	00 00 	addb	%al, (%rax)
   13e88:	00 00 	addb	%al, (%rax)
   13e8a:	00 00 	addb	%al, (%rax)
   13e8c:	00 00 	addb	%al, (%rax)
   13e8e:	00 00 	addb	%al, (%rax)
   13e90:	00 00 	addb	%al, (%rax)
   13e92:	00 00 	addb	%al, (%rax)
   13e94:	00 00 	addb	%al, (%rax)
   13e96:	00 00 	addb	%al, (%rax)
   13e98:	00 00 	addb	%al, (%rax)
   13e9a:	00 00 	addb	%al, (%rax)
   13e9c:	00 00 	addb	%al, (%rax)
   13e9e:	00 00 	addb	%al, (%rax)
   13ea0:	00 00 	addb	%al, (%rax)
   13ea2:	00 00 	addb	%al, (%rax)
   13ea4:	00 00 	addb	%al, (%rax)
   13ea6:	00 00 	addb	%al, (%rax)
   13ea8:	00 00 	addb	%al, (%rax)
   13eaa:	00 00 	addb	%al, (%rax)
   13eac:	00 00 	addb	%al, (%rax)
   13eae:	00 00 	addb	%al, (%rax)
   13eb0:	00 00 	addb	%al, (%rax)
   13eb2:	00 00 	addb	%al, (%rax)
   13eb4:	00 00 	addb	%al, (%rax)
   13eb6:	00 00 	addb	%al, (%rax)
   13eb8:	00 00 	addb	%al, (%rax)
   13eba:	00 00 	addb	%al, (%rax)
   13ebc:	00 00 	addb	%al, (%rax)
   13ebe:	00 00 	addb	%al, (%rax)

irq12:
   13ec0:	00 00 	addb	%al, (%rax)
   13ec2:	00 00 	addb	%al, (%rax)
   13ec4:	00 00 	addb	%al, (%rax)
   13ec6:	00 00 	addb	%al, (%rax)
   13ec8:	00 00 	addb	%al, (%rax)
   13eca:	00 00 	addb	%al, (%rax)
   13ecc:	00 00 	addb	%al, (%rax)
   13ece:	00 00 	addb	%al, (%rax)
   13ed0:	00 00 	addb	%al, (%rax)
   13ed2:	00 00 	addb	%al, (%rax)
   13ed4:	00 00 	addb	%al, (%rax)
   13ed6:	00 00 	addb	%al, (%rax)
   13ed8:	00 00 	addb	%al, (%rax)
   13eda:	00 00 	addb	%al, (%rax)
   13edc:	00 00 	addb	%al, (%rax)
   13ede:	00 00 	addb	%al, (%rax)
   13ee0:	00 00 	addb	%al, (%rax)
   13ee2:	00 00 	addb	%al, (%rax)
   13ee4:	00 00 	addb	%al, (%rax)
   13ee6:	00 00 	addb	%al, (%rax)
   13ee8:	00 00 	addb	%al, (%rax)
   13eea:	00 00 	addb	%al, (%rax)
   13eec:	00 00 	addb	%al, (%rax)
   13eee:	00 00 	addb	%al, (%rax)
   13ef0:	00 00 	addb	%al, (%rax)
   13ef2:	00 00 	addb	%al, (%rax)
   13ef4:	00 00 	addb	%al, (%rax)
   13ef6:	00 00 	addb	%al, (%rax)
   13ef8:	00 00 	addb	%al, (%rax)
   13efa:	00 00 	addb	%al, (%rax)
   13efc:	00 00 	addb	%al, (%rax)
   13efe:	00 00 	addb	%al, (%rax)
   13f00:	00 00 	addb	%al, (%rax)
   13f02:	00 00 	addb	%al, (%rax)
   13f04:	00 00 	addb	%al, (%rax)
   13f06:	00 00 	addb	%al, (%rax)
   13f08:	00 00 	addb	%al, (%rax)
   13f0a:	00 00 	addb	%al, (%rax)
   13f0c:	00 00 	addb	%al, (%rax)
   13f0e:	00 00 	addb	%al, (%rax)

irq13:
   13f10:	00 00 	addb	%al, (%rax)
   13f12:	00 00 	addb	%al, (%rax)
   13f14:	00 00 	addb	%al, (%rax)
   13f16:	00 00 	addb	%al, (%rax)
   13f18:	00 00 	addb	%al, (%rax)
   13f1a:	00 00 	addb	%al, (%rax)
   13f1c:	00 00 	addb	%al, (%rax)
   13f1e:	00 00 	addb	%al, (%rax)
   13f20:	00 00 	addb	%al, (%rax)
   13f22:	00 00 	addb	%al, (%rax)
   13f24:	00 00 	addb	%al, (%rax)
   13f26:	00 00 	addb	%al, (%rax)
   13f28:	00 00 	addb	%al, (%rax)
   13f2a:	00 00 	addb	%al, (%rax)
   13f2c:	00 00 	addb	%al, (%rax)
   13f2e:	00 00 	addb	%al, (%rax)
   13f30:	00 00 	addb	%al, (%rax)
   13f32:	00 00 	addb	%al, (%rax)
   13f34:	00 00 	addb	%al, (%rax)
   13f36:	00 00 	addb	%al, (%rax)
   13f38:	00 00 	addb	%al, (%rax)
   13f3a:	00 00 	addb	%al, (%rax)
   13f3c:	00 00 	addb	%al, (%rax)
   13f3e:	00 00 	addb	%al, (%rax)
   13f40:	00 00 	addb	%al, (%rax)
   13f42:	00 00 	addb	%al, (%rax)
   13f44:	00 00 	addb	%al, (%rax)
   13f46:	00 00 	addb	%al, (%rax)
   13f48:	00 00 	addb	%al, (%rax)
   13f4a:	00 00 	addb	%al, (%rax)
   13f4c:	00 00 	addb	%al, (%rax)
   13f4e:	00 00 	addb	%al, (%rax)
   13f50:	00 00 	addb	%al, (%rax)
   13f52:	00 00 	addb	%al, (%rax)
   13f54:	00 00 	addb	%al, (%rax)
   13f56:	00 00 	addb	%al, (%rax)
   13f58:	00 00 	addb	%al, (%rax)
   13f5a:	00 00 	addb	%al, (%rax)
   13f5c:	00 00 	addb	%al, (%rax)
   13f5e:	00 00 	addb	%al, (%rax)

irq14:
   13f60:	00 00 	addb	%al, (%rax)
   13f62:	00 00 	addb	%al, (%rax)
   13f64:	00 00 	addb	%al, (%rax)
   13f66:	00 00 	addb	%al, (%rax)
   13f68:	00 00 	addb	%al, (%rax)
   13f6a:	00 00 	addb	%al, (%rax)
   13f6c:	00 00 	addb	%al, (%rax)
   13f6e:	00 00 	addb	%al, (%rax)
   13f70:	00 00 	addb	%al, (%rax)
   13f72:	00 00 	addb	%al, (%rax)
   13f74:	00 00 	addb	%al, (%rax)
   13f76:	00 00 	addb	%al, (%rax)
   13f78:	00 00 	addb	%al, (%rax)
   13f7a:	00 00 	addb	%al, (%rax)
   13f7c:	00 00 	addb	%al, (%rax)
   13f7e:	00 00 	addb	%al, (%rax)
   13f80:	00 00 	addb	%al, (%rax)
   13f82:	00 00 	addb	%al, (%rax)
   13f84:	00 00 	addb	%al, (%rax)
   13f86:	00 00 	addb	%al, (%rax)
   13f88:	00 00 	addb	%al, (%rax)
   13f8a:	00 00 	addb	%al, (%rax)
   13f8c:	00 00 	addb	%al, (%rax)
   13f8e:	00 00 	addb	%al, (%rax)
   13f90:	00 00 	addb	%al, (%rax)
   13f92:	00 00 	addb	%al, (%rax)
   13f94:	00 00 	addb	%al, (%rax)
   13f96:	00 00 	addb	%al, (%rax)
   13f98:	00 00 	addb	%al, (%rax)
   13f9a:	00 00 	addb	%al, (%rax)
   13f9c:	00 00 	addb	%al, (%rax)
   13f9e:	00 00 	addb	%al, (%rax)
   13fa0:	00 00 	addb	%al, (%rax)
   13fa2:	00 00 	addb	%al, (%rax)
   13fa4:	00 00 	addb	%al, (%rax)
   13fa6:	00 00 	addb	%al, (%rax)
   13fa8:	00 00 	addb	%al, (%rax)
   13faa:	00 00 	addb	%al, (%rax)
   13fac:	00 00 	addb	%al, (%rax)
   13fae:	00 00 	addb	%al, (%rax)

irq15:
   13fb0:	00 00 	addb	%al, (%rax)
   13fb2:	00 00 	addb	%al, (%rax)
   13fb4:	00 00 	addb	%al, (%rax)
   13fb6:	00 00 	addb	%al, (%rax)
   13fb8:	00 00 	addb	%al, (%rax)
   13fba:	00 00 	addb	%al, (%rax)
   13fbc:	00 00 	addb	%al, (%rax)
   13fbe:	00 00 	addb	%al, (%rax)
   13fc0:	00 00 	addb	%al, (%rax)
   13fc2:	00 00 	addb	%al, (%rax)
   13fc4:	00 00 	addb	%al, (%rax)
   13fc6:	00 00 	addb	%al, (%rax)
   13fc8:	00 00 	addb	%al, (%rax)
   13fca:	00 00 	addb	%al, (%rax)
   13fcc:	00 00 	addb	%al, (%rax)
   13fce:	00 00 	addb	%al, (%rax)
   13fd0:	00 00 	addb	%al, (%rax)
   13fd2:	00 00 	addb	%al, (%rax)
   13fd4:	00 00 	addb	%al, (%rax)
   13fd6:	00 00 	addb	%al, (%rax)
   13fd8:	00 00 	addb	%al, (%rax)
   13fda:	00 00 	addb	%al, (%rax)
   13fdc:	00 00 	addb	%al, (%rax)
   13fde:	00 00 	addb	%al, (%rax)
   13fe0:	00 00 	addb	%al, (%rax)
   13fe2:	00 00 	addb	%al, (%rax)
   13fe4:	00 00 	addb	%al, (%rax)
   13fe6:	00 00 	addb	%al, (%rax)
   13fe8:	00 00 	addb	%al, (%rax)
   13fea:	00 00 	addb	%al, (%rax)
   13fec:	00 00 	addb	%al, (%rax)
   13fee:	00 00 	addb	%al, (%rax)
   13ff0:	00 00 	addb	%al, (%rax)
   13ff2:	00 00 	addb	%al, (%rax)
   13ff4:	00 00 	addb	%al, (%rax)
   13ff6:	00 00 	addb	%al, (%rax)

idtEntries:
   13ff8:	00 00 	addb	%al, (%rax)
   13ffa:	00 00 	addb	%al, (%rax)
   13ffc:	00 00 	addb	%al, (%rax)
   13ffe:	00 00 	addb	%al, (%rax)
Disassembly of section .debug_info:
.debug_info:
       0:	0b 03 	orl	(%rbx), %eax
       2:	00 00 	addb	%al, (%rax)
       4:	05 00 01 08 00 	addl	$524544, %eax
       9:	00 00 	addb	%al, (%rax)
       b:	00 0a 	addb	%cl, (%rdx)
       d:	3b 00 	cmpl	(%rax), %eax
       f:	00 00 	addb	%al, (%rax)
      11:	1d 00 00 00 00 	sbbl	$0, %eax
      16:	19 00 	sbbl	%eax, (%rax)
      18:	00 00 	addb	%al, (%rax)
      1a:	20 00 	andb	%al, (%rax)
      1c:	01 00 	addl	%eax, (%rax)
      1e:	00 00 	addb	%al, (%rax)
      20:	00 00 	addb	%al, (%rax)
      22:	99 	cltd
      23:	00 00 	addb	%al, (%rax)
      25:	00 00 	addb	%al, (%rax)
      27:	00 00 	addb	%al, (%rax)
      29:	00 00 	addb	%al, (%rax)
      2b:	00 00 	addb	%al, (%rax)
      2d:	00 03 	addb	%al, (%rbx)
      2f:	01 08 	addl	%ecx, (%rax)
      31:	5a 	popq	%rdx
      32:	01 00 	addl	%eax, (%rax)
      34:	00 0b 	addb	%cl, (%rbx)
      36:	2e 00 00 	addb	%al, %cs:(%rax)
      39:	00 04 f4 	addb	%al, (%rsp,%rsi,8)
      3c:	00 00 	addb	%al, (%rax)
      3e:	00 02 	addb	%al, (%rdx)
      40:	05 17 2e 00 00 	addl	$11799, %eax
      45:	00 03 	addb	%al, (%rbx)
      47:	02 07 	addb	(%rdi), %al
      49:	b8 01 00 00 04 	movl	$67108865, %eax
      4e:	8f 01 	popq	(%rcx)
      50:	00 00 	addb	%al, (%rax)
      52:	02 08 	addb	(%rax), %cl
      54:	18 46 00 	sbbb	%al, (%rsi)
      57:	00 00 	addb	%al, (%rax)
      59:	03 04 07 	addl	(%rdi,%rax), %eax
      5c:	72 01 	jb	1 <video.c+0x5f>
      5e:	00 00 	addb	%al, (%rax)
      60:	04 7f 	addb	$127, %al
      62:	01 00 	addl	%eax, (%rax)
      64:	00 02 	addb	%al, (%rdx)
      66:	0b 16 	orl	(%rsi), %edx
      68:	59 	popq	%rcx
      69:	00 00 	addb	%al, (%rax)
      6b:	00 03 	addb	%al, (%rbx)
      6d:	08 07 	orb	%al, (%rdi)
      6f:	6d 	insl	%dx, %es:(%rdi)
      70:	01 00 	addl	%eax, (%rax)
      72:	00 03 	addb	%al, (%rbx)
      74:	08 07 	orb	%al, (%rdi)
      76:	68 01 00 00 04 	pushq	$67108865
      7b:	0e  <unknown>
      7c:	00 00 	addb	%al, (%rax)
      7e:	00 02 	addb	%al, (%rdx)
      80:	11 1c 73 	adcl	%ebx, (%rbx,%rsi,2)
      83:	00 00 	addb	%al, (%rax)
      85:	00 03 	addb	%al, (%rbx)
      87:	01 06 	addl	%eax, (%rsi)
      89:	5c 	popq	%rsp
      8a:	01 00 	addl	%eax, (%rax)
      8c:	00 03 	addb	%al, (%rbx)
      8e:	02 05 17 00 00 00 	addb	23(%rip), %al
      94:	0c 04 	orb	$4, %al
      96:	05 69 6e 74 00 	addl	$7630441, %eax
      9b:	03 08 	addl	(%rax), %ecx
      9d:	05 1e 01 00 00 	addl	$286, %eax
      a2:	03 08 	addl	(%rax), %ecx
      a4:	05 19 01 00 00 	addl	$281, %eax
      a9:	08 21 	orb	%ah, (%rcx)
      ab:	03 0a 	addl	(%rdx), %ecx
      ad:	68 01 00 00 01 	pushq	$16777217
      b2:	28 00 	subb	%al, (%rax)
      b4:	00 00 	addb	%al, (%rax)
      b6:	03 0c 0e 	addl	(%rsi,%rcx), %ecx
      b9:	4d 00 00 	addb	%r8b, (%r8)
      bc:	00 00 	addb	%al, (%rax)
      be:	01 13 	addl	%edx, (%rbx)
      c0:	01 00 	addl	%eax, (%rax)
      c2:	00 03 	addb	%al, (%rbx)
      c4:	0d 0e 4d 00 00 	orl	$19726, %eax
      c9:	00 02 	addb	%al, (%rdx)
      cb:	01 88 01 00 00 03 	addl	%ecx, 50331649(%rax)
      d1:	0e  <unknown>
      d2:	0e  <unknown>
      d3:	4d 00 00 	addb	%r8b, (%r8)
      d6:	00 04 0d 62 70 70 00 	addb	%al, 7368802(,%rcx)
      dd:	03 0f 	addl	(%rdi), %ecx
      df:	0d 3a 00 00 00 	orl	$58, %eax
      e4:	06  <unknown>
      e5:	01 2d 00 00 00 03 	addl	%ebp, 50331648(%rip)
      eb:	10 0d 3a 00 00 00 	adcb	%cl, 58(%rip)
      f1:	07  <unknown>
      f2:	01 21 	addl	%esp, (%rcx)
      f4:	00 00 	addb	%al, (%rax)
      f6:	00 03 	addb	%al, (%rbx)
      f8:	11 0d 3a 00 00 00 	adcl	%ecx, 58(%rip)
      fe:	08 01 	orb	%al, (%rcx)
     100:	f0 	lock
     101:	01 00 	addl	%eax, (%rax)
     103:	00 03 	addb	%al, (%rbx)
     105:	12 0d 3a 00 00 00 	adcb	58(%rip), %cl
     10b:	09 01 	orl	%eax, (%rcx)
     10d:	e9 01 00 00 03 	jmp	50331649 <_bss_end+0x2fec113>
     112:	13 0d 3a 00 00 00 	adcl	58(%rip), %ecx
     118:	0a 01 	orb	(%rcx), %al
     11a:	09 02 	orl	%eax, (%rdx)
     11c:	00 00 	addb	%al, (%rax)
     11e:	03 14 0d 3a 00 00 00 	addl	58(,%rcx), %edx
     125:	0b 01 	orl	(%rcx), %eax
     127:	02 02 	addb	(%rdx), %al
     129:	00 00 	addb	%al, (%rax)
     12b:	03 15 0d 3a 00 00 	addl	14861(%rip), %edx
     131:	00 0c 01 	addb	%cl, (%rcx,%rax)
     134:	e8 00 00 00 03 	callq	50331648 <_bss_end+0x2fec139>
     139:	16  <unknown>
     13a:	0e  <unknown>
     13b:	60  <unknown>
     13c:	00 00 	addb	%al, (%rax)
     13e:	00 0d 01 32 01 00 	addb	%cl, 78337(%rip)
     144:	00 03 	addb	%al, (%rbx)
     146:	17  <unknown>
     147:	0e  <unknown>
     148:	4d 00 00 	addb	%r8b, (%r8)
     14b:	00 11 	addb	%dl, (%rcx)
     14d:	01 f7 	addl	%esi, %edi
     14f:	01 00 	addl	%eax, (%rax)
     151:	00 03 	addb	%al, (%rbx)
     153:	18 0e 	sbbb	%cl, (%rsi)
     155:	4d 00 00 	addb	%r8b, (%r8)
     158:	00 13 	addb	%dl, (%rbx)
     15a:	01 2e 	addl	%ebp, (%rsi)
     15c:	02 00 	addb	(%rax), %al
     15e:	00 03 	addb	%al, (%rbx)
     160:	19 0d 68 01 00 00 	sbbl	%ecx, 360(%rip)
     166:	15 00 0e 3a 00 	adcl	$3804672, %eax
     16b:	00 00 	addb	%al, (%rax)
     16d:	78 01 	js	1 <video.c+0x170>
     16f:	00 00 	addb	%al, (%rax)
     171:	0f 6c  <unknown>
     173:	00 00 	addb	%al, (%rax)
     175:	00 0b 	addb	%cl, (%rbx)
     177:	00 04 10 	addb	%al, (%rax,%rdx)
     17a:	02 00 	addb	(%rax), %al
     17c:	00 03 	addb	%al, (%rbx)
     17e:	1a 1b 	sbbb	(%rbx), %bl
     180:	a9 00 00 00 10 	testl	$268435456, %eax
     185:	fc 	cld
     186:	00 00 	addb	%al, (%rax)
     188:	00 03 	addb	%al, (%rbx)
     18a:	1c 1e 	sbbb	$30, %al
     18c:	78 01 	js	1 <video.c+0x18f>
     18e:	00 00 	addb	%al, (%rax)
     190:	08 18 	orb	%bl, (%rax)
     192:	04 06 	addb	$6, %al
     194:	cd 01 	int	$1
     196:	00 00 	addb	%al, (%rax)
     198:	01 e4 	addl	%esp, %esp
     19a:	06  <unknown>
     19b:	00 00 	addb	%al, (%rax)
     19d:	04 08 	addb	$8, %al
     19f:	0e  <unknown>
     1a0:	7a 00 	jp	0 <video.c+0x1a2>
     1a2:	00 00 	addb	%al, (%rax)
     1a4:	00 01 	addb	%al, (%rcx)
     1a6:	45 01 00 	addl	%r8d, (%r8)
     1a9:	00 04 09 	addb	%al, (%rcx,%rcx)
     1ac:	0e  <unknown>
     1ad:	7a 00 	jp	0 <video.c+0x1af>
     1af:	00 00 	addb	%al, (%rax)
     1b1:	08 01 	orb	%al, (%rcx)
     1b3:	d9 01 	flds	(%rcx)
     1b5:	00 00 	addb	%al, (%rax)
     1b7:	04 0a 	addb	$10, %al
     1b9:	0e  <unknown>
     1ba:	60  <unknown>
     1bb:	00 00 	addb	%al, (%rax)
     1bd:	00 10 	addb	%dl, (%rax)
     1bf:	01 36 	addl	%esi, (%rsi)
     1c1:	02 00 	addb	(%rax), %al
     1c3:	00 04 0b 	addb	%al, (%rbx,%rcx)
     1c6:	0e  <unknown>
     1c7:	60  <unknown>
     1c8:	00 00 	addb	%al, (%rax)
     1ca:	00 14 00 	addb	%dl, (%rax,%rax)
     1cd:	04 cb 	addb	$-53, %al
     1cf:	01 00 	addl	%eax, (%rax)
     1d1:	00 04 0c 	addb	%al, (%rsp,%rcx)
     1d4:	1b 90 01 00 00 08 	sbbl	134217729(%rax), %edx
     1da:	0c 04 	orb	$4, %al
     1dc:	0e  <unknown>
     1dd:	fc 	cld
     1de:	01 00 	addl	%eax, (%rax)
     1e0:	00 01 	addb	%al, (%rcx)
     1e2:	45 01 00 	addl	%r8d, (%r8)
     1e5:	00 04 10 	addb	%al, (%rax,%rdx)
     1e8:	0e  <unknown>
     1e9:	60  <unknown>
     1ea:	00 00 	addb	%al, (%rax)
     1ec:	00 00 	addb	%al, (%rax)
     1ee:	01 cf 	addl	%ecx, %edi
     1f0:	04 00 	addb	$0, %al
     1f2:	00 04 11 	addb	%al, (%rcx,%rdx)
     1f5:	14 fc 	adcb	$-4, %al
     1f7:	01 00 	addl	%eax, (%rax)
     1f9:	00 04 00 	addb	%al, (%rax,%rax)
     1fc:	06  <unknown>
     1fd:	cd 01 	int	$1
     1ff:	00 00 	addb	%al, (%rax)
     201:	04 07 	addb	$7, %al
     203:	01 00 	addl	%eax, (%rax)
     205:	00 04 12 	addb	%al, (%rdx,%rdx)
     208:	1b d9 	sbbl	%ecx, %ebx
     20a:	01 00 	addl	%eax, (%rax)
     20c:	00 11 	addb	%dl, (%rcx)
     20e:	84 01 	testb	%al, (%rcx)
     210:	00 00 	addb	%al, (%rax)
     212:	01 0d 17 09 03 c0 	addl	%ecx, -1073542889(%rip)
     218:	33 01 	xorl	(%rcx), %eax
     21a:	00 00 	addb	%al, (%rax)
     21c:	00 00 	addb	%al, (%rax)
     21e:	00 07 	addb	%al, (%rdi)
     220:	3c 01 	cmpb	$1, %al
     222:	00 00 	addb	%al, (%rax)
     224:	05 0b 44 02 00 	addl	$148491, %eax
     229:	00 02 	addb	%al, (%rdx)
     22b:	94 	xchgl	%esp, %eax
     22c:	00 00 	addb	%al, (%rax)
     22e:	00 02 	addb	%al, (%rdx)
     230:	94 	xchgl	%esp, %eax
     231:	00 00 	addb	%al, (%rax)
     233:	00 02 	addb	%al, (%rdx)
     235:	94 	xchgl	%esp, %eax
     236:	00 00 	addb	%al, (%rax)
     238:	00 02 	addb	%al, (%rdx)
     23a:	94 	xchgl	%esp, %eax
     23b:	00 00 	addb	%al, (%rax)
     23d:	00 02 	addb	%al, (%rdx)
     23f:	94 	xchgl	%esp, %eax
     240:	00 00 	addb	%al, (%rax)
     242:	00 00 	addb	%al, (%rax)
     244:	09 00 	orl	%eax, (%rax)
     246:	00 00 	addb	%al, (%rax)
     248:	00 07 	addb	%al, (%rdi)
     24a:	2a 51 02 	subb	2(%rcx), %dl
     24d:	00 00 	addb	%al, (%rax)
     24f:	05 00 07 df 00 	addl	$14616320, %eax
     254:	00 00 	addb	%al, (%rax)
     256:	06  <unknown>
     257:	1e  <unknown>
     258:	67 02 00 	addb	(%eax), %al
     25b:	00 02 	addb	%al, (%rdx)
     25d:	7a 00 	jp	0 <video.c+0x25f>
     25f:	00 00 	addb	%al, (%rax)
     261:	02 7a 00 	addb	(%rdx), %bh
     264:	00 00 	addb	%al, (%rax)
     266:	00 09 	addb	%cl, (%rcx)
     268:	de 01 	fiadds	(%rcx)
     26a:	00 00 	addb	%al, (%rax)
     26c:	08 64 74 02 	orb	%ah, 2(%rsp,%rsi,2)
     270:	00 00 	addb	%al, (%rax)
     272:	05 00 09 26 02 	addl	$36047104, %eax
     277:	00 00 	addb	%al, (%rax)
     279:	09 18 	orl	%ebx, (%rax)
     27b:	81 02 00 00 05 00 	addl	$327680, (%rdx)
     281:	07  <unknown>
     282:	98 	cwtl
     283:	01 00 	addl	%eax, (%rax)
     285:	00 0a 	addb	%cl, (%rdx)
     287:	0f 92 02 	setb	(%rdx)
     28a:	00 00 	addb	%al, (%rax)
     28c:	02 7a 00 	addb	(%rdx), %bh
     28f:	00 00 	addb	%al, (%rax)
     291:	00 12 	addb	%dl, (%rdx)
     293:	4c 01 00 	addq	%r8, (%rax)
     296:	00 01 	addb	%al, (%rcx)
     298:	12 02 	adcb	(%rdx), %al
     29a:	94 	xchgl	%esp, %eax
     29b:	00 00 	addb	%al, (%rax)
     29d:	00 a4 02 00 00 05 00 	addb	%ah, 327680(%rdx,%rax)
     2a4:	07  <unknown>
     2a5:	34 00 	xorb	$0, %al
     2a7:	00 00 	addb	%al, (%rax)
     2a9:	0b 26 	orl	(%rsi), %esp
     2ab:	bf 02 00 00 02 	movl	$33554434, %edi
     2b0:	bf 02 00 00 02 	movl	$33554434, %edi
     2b5:	c4 02 00 00  <unknown>
     2b9:	02 7a 00 	addb	(%rdx), %bh
     2bc:	00 00 	addb	%al, (%rax)
     2be:	00 06 	addb	%al, (%rsi)
     2c0:	2e 00 00 	addb	%al, %cs:(%rax)
     2c3:	00 06 	addb	%al, (%rsi)
     2c5:	35 00 00 00 13 	xorl	$318767104, %eax
     2ca:	08 00 	orb	%al, (%rax)
     2cc:	00 00 	addb	%al, (%rax)
     2ce:	01 0f 	addl	%ecx, (%rdi)
     2d0:	05 94 00 00 00 	addl	$148, %eax
     2d5:	20 00 	andb	%al, (%rax)
     2d7:	01 00 	addl	%eax, (%rax)
     2d9:	00 00 	addb	%al, (%rax)
     2db:	00 00 	addb	%al, (%rax)
     2dd:	99 	cltd
     2de:	00 00 	addb	%al, (%rax)
     2e0:	00 00 	addb	%al, (%rax)
     2e2:	00 00 	addb	%al, (%rax)
     2e4:	00 01 	addb	%al, (%rcx)
     2e6:	9c 	pushfq
     2e7:	09 03 	orl	%eax, (%rbx)
     2e9:	00 00 	addb	%al, (%rax)
     2eb:	14 27 	adcb	$39, %al
     2ed:	01 00 	addl	%eax, (%rax)
     2ef:	00 01 	addb	%al, (%rcx)
     2f1:	0f 22 09  <unknown>
     2f4:	03 00 	addl	(%rax), %eax
     2f6:	00 02 	addb	%al, (%rdx)
     2f8:	91 	xchgl	%ecx, %eax
     2f9:	68 15 4c 01 00 	pushq	$85013
     2fe:	00 01 	addb	%al, (%rcx)
     300:	12 02 	adcb	(%rdx), %al
     302:	94 	xchgl	%esp, %eax
     303:	00 00 	addb	%al, (%rax)
     305:	00 05 00 00 06 78 	addb	%al, 2013659136(%rip)
     30b:	01 00 	addl	%eax, (%rax)
     30d:	00 00 	addb	%al, (%rax)
     30f:	66 02 00 	addb	(%rax), %al
     312:	00 05 00 01 08 3c 	addb	%al, 1007157504(%rip)
     318:	01 00 	addl	%eax, (%rax)
     31a:	00 07 	addb	%al, (%rdi)
     31c:	3b 00 	cmpl	(%rax), %eax
     31e:	00 00 	addb	%al, (%rax)
     320:	1d 92 01 00 00 	sbbl	$402, %eax
     325:	19 00 	sbbl	%eax, (%rax)
     327:	00 00 	addb	%al, (%rax)
     329:	b9 00 01 00 00 	movl	$256, %ecx
     32e:	00 00 	addb	%al, (%rax)
     330:	00 b7 01 00 00 00 	addb	%dh, 1(%rdi)
     336:	00 00 	addb	%al, (%rax)
     338:	00 be 00 00 00 02 	addb	%bh, 33554432(%rsi)
     33e:	01 08 	addl	%ecx, (%rax)
     340:	5a 	popq	%rdx
     341:	01 00 	addl	%eax, (%rax)
     343:	00 02 	addb	%al, (%rdx)
     345:	02 07 	addb	(%rdi), %al
     347:	b8 01 00 00 02 	movl	$33554433, %eax
     34c:	04 07 	addb	$7, %al
     34e:	72 01 	jb	1 <video.c+0x351>
     350:	00 00 	addb	%al, (%rax)
     352:	02 08 	addb	(%rax), %cl
     354:	07  <unknown>
     355:	6d 	insl	%dx, %es:(%rdi)
     356:	01 00 	addl	%eax, (%rax)
     358:	00 02 	addb	%al, (%rdx)
     35a:	08 07 	orb	%al, (%rdi)
     35c:	68 01 00 00 04 	pushq	$67108865
     361:	0e  <unknown>
     362:	00 00 	addb	%al, (%rax)
     364:	00 11 	addb	%dl, (%rcx)
     366:	1c 4a 	sbbb	$74, %al
     368:	00 00 	addb	%al, (%rax)
     36a:	00 02 	addb	%al, (%rdx)
     36c:	01 06 	addl	%eax, (%rsi)
     36e:	5c 	popq	%rsp
     36f:	01 00 	addl	%eax, (%rax)
     371:	00 02 	addb	%al, (%rdx)
     373:	02 05 17 00 00 00 	addb	23(%rip), %al
     379:	08 04 05 69 6e 74 00 	orb	%al, 7630441(,%rax)
     380:	02 08 	addb	(%rax), %cl
     382:	05 1e 01 00 00 	addl	$286, %eax
     387:	02 08 	addb	(%rax), %cl
     389:	05 19 01 00 00 	addl	$281, %eax
     38e:	04 0f 	addb	$15, %al
     390:	00 00 	addb	%al, (%rax)
     392:	00 20 	addb	%ah, (%rax)
     394:	1a 78 00 	sbbb	(%rax), %bh
     397:	00 00 	addb	%al, (%rax)
     399:	09 3c 02 	orl	%edi, (%rdx,%rax)
     39c:	00 00 	addb	%al, (%rax)
     39e:	01 35 08 c5 00 00 	addl	%esi, 50440(%rip)
     3a4:	00 29 	addb	%ch, (%rcx)
     3a6:	02 01 	addb	(%rcx), %al
     3a8:	00 00 	addb	%al, (%rax)
     3aa:	00 00 	addb	%al, (%rax)
     3ac:	00 47 00 	addb	%al, (%rdi)
     3af:	00 00 	addb	%al, (%rax)
     3b1:	00 00 	addb	%al, (%rax)
     3b3:	00 00 	addb	%al, (%rax)
     3b5:	01 9c c5 00 00 00 01 	addl	%ebx, 16777216(%rbp,%rax,8)
     3bc:	61  <unknown>
     3bd:	00 35 15 c5 00 00 	addb	%dh, 50453(%rip)
     3c3:	00 02 	addb	%al, (%rdx)
     3c5:	91 	xchgl	%ecx, %eax
     3c6:	68 01 62 00 35 	pushq	$889217537
     3cb:	1f  <unknown>
     3cc:	c5 00 00  <unknown>
     3cf:	00 02 	addb	%al, (%rdx)
     3d1:	91 	xchgl	%ecx, %eax
     3d2:	60  <unknown>
     3d3:	00 02 	addb	%al, (%rdx)
     3d5:	08 04 47 	orb	%al, (%rdi,%rax,2)
     3d8:	02 00 	addb	(%rax), %al
     3da:	00 03 	addb	%al, (%rbx)
     3dc:	61  <unknown>
     3dd:	62  <unknown>
     3de:	73 00 	jae	0 <video.c+0x3e0>
     3e0:	30 0a 	xorb	%cl, (%rdx)
     3e2:	51 	pushq	%rcx
     3e3:	00 00 	addb	%al, (%rax)
     3e5:	00 11 	addb	%dl, (%rcx)
     3e7:	02 01 	addb	(%rcx), %al
     3e9:	00 00 	addb	%al, (%rax)
     3eb:	00 00 	addb	%al, (%rax)
     3ed:	00 18 	addb	%bl, (%rax)
     3ef:	00 00 	addb	%al, (%rax)
     3f1:	00 00 	addb	%al, (%rax)
     3f3:	00 00 	addb	%al, (%rax)
     3f5:	00 01 	addb	%al, (%rcx)
     3f7:	9c 	pushfq
     3f8:	fa 	cli
     3f9:	00 00 	addb	%al, (%rax)
     3fb:	00 01 	addb	%al, (%rcx)
     3fd:	6e 	outsb	(%rsi), %dx
     3fe:	00 30 	addb	%dh, (%rax)
     400:	16  <unknown>
     401:	7f 00 	jg	0 <video.c+0x403>
     403:	00 00 	addb	%al, (%rax)
     405:	02 91 68 00 0a 70 	addb	1879703656(%rcx), %dl
     40b:	6f 	outsl	(%rsi), %dx
     40c:	77 00 	ja	0 <video.c+0x40e>
     40e:	01 21 	addl	%esp, (%rcx)
     410:	0a 51 00 	orb	(%rcx), %dl
     413:	00 00 	addb	%al, (%rax)
     415:	ac 	lodsb	(%rsi), %al
     416:	01 01 	addl	%eax, (%rcx)
     418:	00 00 	addb	%al, (%rax)
     41a:	00 00 	addb	%al, (%rax)
     41c:	00 65 00 	addb	%ah, (%rbp)
     41f:	00 00 	addb	%al, (%rax)
     421:	00 00 	addb	%al, (%rax)
     423:	00 00 	addb	%al, (%rax)
     425:	01 9c 44 01 00 00 01 	addl	%ebx, 16777217(%rsp,%rax,2)
     42c:	6e 	outsb	(%rsi), %dx
     42d:	00 21 	addb	%ah, (%rcx)
     42f:	12 6a 00 	adcb	(%rdx), %ch
     432:	00 00 	addb	%al, (%rax)
     434:	02 91 5c 01 78 00 	addb	7864668(%rcx), %dl
     43a:	21 22 	andl	%esp, (%rdx)
     43c:	3c 00 	cmpb	$0, %al
     43e:	00 00 	addb	%al, (%rax)
     440:	02 91 58 0b 42 02 	addb	37882712(%rcx), %dl
     446:	00 00 	addb	%al, (%rax)
     448:	01 23 	addl	%esp, (%rbx)
     44a:	09 6a 00 	orl	%ebp, (%rdx)
     44d:	00 00 	addb	%al, (%rax)
     44f:	02 91 6c 00 05 59 	addb	1493500012(%rcx), %dl
     455:	02 00 	addb	(%rax), %al
     457:	00 17 	addb	%dl, (%rdi)
     459:	08 c5 	orb	%al, %ch
     45b:	00 00 	addb	%al, (%rax)
     45d:	00 45 01 	addb	%al, 1(%rbp)
     460:	01 00 	addl	%eax, (%rax)
     462:	00 00 	addb	%al, (%rax)
     464:	00 00 	addb	%al, (%rax)
     466:	67 00 00 	addb	%al, (%eax)
     469:	00 00 	addb	%al, (%rax)
     46b:	00 00 	addb	%al, (%rax)
     46d:	00 01 	addb	%al, (%rcx)
     46f:	9c 	pushfq
     470:	9c 	pushfq
     471:	01 00 	addl	%eax, (%rax)
     473:	00 01 	addb	%al, (%rcx)
     475:	6e 	outsb	(%rsi), %dx
     476:	00 17 	addb	%dl, (%rdi)
     478:	14 c5 	adcb	$-59, %al
     47a:	00 00 	addb	%al, (%rax)
     47c:	00 02 	addb	%al, (%rdx)
     47e:	91 	xchgl	%ecx, %eax
     47f:	58 	popq	%rax
     480:	06  <unknown>
     481:	7a 00 	jp	0 <video.c+0x483>
     483:	19 0c c5 00 00 00 02 	sbbl	%ecx, 33554432(,%rax,8)
     48a:	91 	xchgl	%ecx, %eax
     48b:	68 0c 5b 01 01 	pushq	$16866060
     490:	00 00 	addb	%al, (%rax)
     492:	00 00 	addb	%al, (%rax)
     494:	00 40 00 	addb	%al, (%rax)
     497:	00 00 	addb	%al, (%rax)
     499:	00 00 	addb	%al, (%rax)
     49b:	00 00 	addb	%al, (%rax)
     49d:	06  <unknown>
     49e:	69 00 1a 0e 6a 00 	imull	$6950426, (%rax), %eax
     4a4:	00 00 	addb	%al, (%rax)
     4a6:	02 91 64 00 00 03 	addb	50331748(%rcx), %dl
     4ac:	6d 	insl	%dx, %es:(%rdi)
     4ad:	61  <unknown>
     4ae:	78 00 	js	0 <video.c+0x4b0>
     4b0:	12 05 6a 00 00 00 	adcb	106(%rip), %al
     4b6:	2e 01 01 	addl	%eax, %cs:(%rcx)
     4b9:	00 00 	addb	%al, (%rax)
     4bb:	00 00 	addb	%al, (%rax)
     4bd:	00 17 	addb	%dl, (%rdi)
     4bf:	00 00 	addb	%al, (%rax)
     4c1:	00 00 	addb	%al, (%rax)
     4c3:	00 00 	addb	%al, (%rax)
     4c5:	00 01 	addb	%al, (%rcx)
     4c7:	9c 	pushfq
     4c8:	d6  <unknown>
     4c9:	01 00 	addl	%eax, (%rax)
     4cb:	00 01 	addb	%al, (%rcx)
     4cd:	78 00 	js	0 <video.c+0x4cf>
     4cf:	12 0d 6a 00 00 00 	adcb	106(%rip), %cl
     4d5:	02 91 6c 01 79 00 	addb	7930220(%rcx), %dl
     4db:	12 14 6a 	adcb	(%rdx,%rbp,2), %dl
     4de:	00 00 	addb	%al, (%rax)
     4e0:	00 02 	addb	%al, (%rdx)
     4e2:	91 	xchgl	%ecx, %eax
     4e3:	68 00 03 6d 69 	pushq	$1768751872
     4e8:	6e 	outsb	(%rsi), %dx
     4e9:	00 0d 05 6a 00 00 	addb	%cl, 27141(%rip)
     4ef:	00 17 	addb	%dl, (%rdi)
     4f1:	01 01 	addl	%eax, (%rcx)
     4f3:	00 00 	addb	%al, (%rax)
     4f5:	00 00 	addb	%al, (%rax)
     4f7:	00 17 	addb	%dl, (%rdi)
     4f9:	00 00 	addb	%al, (%rax)
     4fb:	00 00 	addb	%al, (%rax)
     4fd:	00 00 	addb	%al, (%rax)
     4ff:	00 01 	addb	%al, (%rcx)
     501:	9c 	pushfq
     502:	10 02 	adcb	%al, (%rdx)
     504:	00 00 	addb	%al, (%rax)
     506:	01 78 00 	addl	%edi, (%rax)
     509:	0d 0d 6a 00 00 	orl	$27149, %eax
     50e:	00 02 	addb	%al, (%rdx)
     510:	91 	xchgl	%ecx, %eax
     511:	6c 	insb	%dx, %es:(%rdi)
     512:	01 79 00 	addl	%edi, (%rcx)
     515:	0d 14 6a 00 00 	orl	$27156, %eax
     51a:	00 02 	addb	%al, (%rdx)
     51c:	91 	xchgl	%ecx, %eax
     51d:	68 00 05 4e 02 	pushq	$38667520
     522:	00 00 	addb	%al, (%rax)
     524:	08 05 6a 00 00 00 	orb	%al, 106(%rip)
     52a:	03 01 	addl	(%rcx), %eax
     52c:	01 00 	addl	%eax, (%rax)
     52e:	00 00 	addb	%al, (%rax)
     530:	00 00 	addb	%al, (%rax)
     532:	14 00 	adcb	$0, %al
     534:	00 00 	addb	%al, (%rax)
     536:	00 00 	addb	%al, (%rax)
     538:	00 00 	addb	%al, (%rax)
     53a:	01 9c 3e 02 00 00 01 	addl	%ebx, 16777218(%rsi,%rdi)
     541:	6e 	outsb	(%rsi), %dx
     542:	00 08 	addb	%cl, (%rax)
     544:	12 c5 	adcb	%ch, %al
     546:	00 00 	addb	%al, (%rax)
     548:	00 02 	addb	%al, (%rdx)
     54a:	91 	xchgl	%ecx, %eax
     54b:	68 00 0d 54 02 	pushq	$39062784
     550:	00 00 	addb	%al, (%rax)
     552:	01 03 	addl	%eax, (%rbx)
     554:	05 6a 00 00 00 	addl	$106, %eax
     559:	b9 00 01 00 00 	movl	$256, %ecx
     55e:	00 00 	addb	%al, (%rax)
     560:	00 4a 00 	addb	%cl, (%rdx)
     563:	00 00 	addb	%al, (%rax)
     565:	00 00 	addb	%al, (%rax)
     567:	00 00 	addb	%al, (%rax)
     569:	01 9c 01 6e 00 03 11 	addl	%ebx, 285409390(%rcx,%rax)
     570:	c5 00 00  <unknown>
     573:	00 02 	addb	%al, (%rdx)
     575:	91 	xchgl	%ecx, %eax
     576:	68 00 00 8e 07 	pushq	$126746624
     57b:	00 00 	addb	%al, (%rax)
     57d:	05 00 01 08 45 	addl	$1158152448, %eax
     582:	02 00 	addb	(%rax), %al
     584:	00 0d 3b 00 00 00 	addb	%cl, 59(%rip)
     58a:	1d d2 01 00 00 	sbbl	$466, %eax
     58f:	19 00 	sbbl	%eax, (%rax)
     591:	00 00 	addb	%al, (%rax)
     593:	70 02 	jo	2 <video.c+0x597>
     595:	01 00 	addl	%eax, (%rax)
     597:	00 00 	addb	%al, (%rax)
     599:	00 00 	addb	%al, (%rax)
     59b:	9c 	pushfq
     59c:	07  <unknown>
     59d:	00 00 	addb	%al, (%rax)
     59f:	00 00 	addb	%al, (%rax)
     5a1:	00 00 	addb	%al, (%rax)
     5a3:	cc 	int3
     5a4:	01 00 	addl	%eax, (%rax)
     5a6:	00 04 01 	addb	%al, (%rcx,%rax)
     5a9:	08 5a 01 	orb	%bl, 1(%rdx)
     5ac:	00 00 	addb	%al, (%rax)
     5ae:	0c 2e 	orb	$46, %al
     5b0:	00 00 	addb	%al, (%rax)
     5b2:	00 04 02 	addb	%al, (%rdx,%rax)
     5b5:	07  <unknown>
     5b6:	b8 01 00 00 04 	movl	$67108865, %eax
     5bb:	04 07 	addb	$7, %al
     5bd:	72 01 	jb	1 <video.c+0x5c0>
     5bf:	00 00 	addb	%al, (%rax)
     5c1:	0a 7f 01 	orb	1(%rdi), %bh
     5c4:	00 00 	addb	%al, (%rax)
     5c6:	0b 16 	orl	(%rsi), %edx
     5c8:	41 00 00 	addb	%al, (%r8)
     5cb:	00 04 08 	addb	%al, (%rax,%rcx)
     5ce:	07  <unknown>
     5cf:	6d 	insl	%dx, %es:(%rdi)
     5d0:	01 00 	addl	%eax, (%rax)
     5d2:	00 04 08 	addb	%al, (%rax,%rcx)
     5d5:	07  <unknown>
     5d6:	68 01 00 00 0a 	pushq	$167772161
     5db:	0e  <unknown>
     5dc:	00 00 	addb	%al, (%rax)
     5de:	00 11 	addb	%dl, (%rcx)
     5e0:	1c 5a 	sbbb	$90, %al
     5e2:	00 00 	addb	%al, (%rax)
     5e4:	00 04 01 	addb	%al, (%rcx,%rax)
     5e7:	06  <unknown>
     5e8:	5c 	popq	%rsp
     5e9:	01 00 	addl	%eax, (%rax)
     5eb:	00 04 02 	addb	%al, (%rdx,%rax)
     5ee:	05 17 00 00 00 	addl	$23, %eax
     5f3:	0e  <unknown>
     5f4:	04 05 	addb	$5, %al
     5f6:	69 6e 74 00 04 08 05 	imull	$84411392, 116(%rsi), %ebp
     5fd:	1e  <unknown>
     5fe:	01 00 	addl	%eax, (%rax)
     600:	00 04 08 	addb	%al, (%rax,%rcx)
     603:	05 19 01 00 00 	addl	$281, %eax
     608:	0a 6e 02 	orb	2(%rsi), %ch
     60b:	00 00 	addb	%al, (%rax)
     60d:	22 16 	andb	(%rsi), %dl
     60f:	41 00 00 	addb	%al, (%r8)
     612:	00 07 	addb	%al, (%rdi)
     614:	75 02 	jne	2 <video.c+0x618>
     616:	00 00 	addb	%al, (%rax)
     618:	e5 05 	inl	$5, %eax
     61a:	7a 00 	jp	0 <video.c+0x61c>
     61c:	00 00 	addb	%al, (%rax)
     61e:	88 09 	movb	%cl, (%rcx)
     620:	01 00 	addl	%eax, (%rax)
     622:	00 00 	addb	%al, (%rax)
     624:	00 00 	addb	%al, (%rax)
     626:	84 00 	testb	%al, (%rax)
     628:	00 00 	addb	%al, (%rax)
     62a:	00 00 	addb	%al, (%rax)
     62c:	00 00 	addb	%al, (%rax)
     62e:	01 9c 00 01 00 00 03 	addl	%ebx, 50331649(%rax,%rax)
     635:	0c 03 	orb	$3, %al
     637:	00 00 	addb	%al, (%rax)
     639:	e5 21 	inl	$33, %eax
     63b:	00 01 	addb	%al, (%rcx)
     63d:	00 00 	addb	%al, (%rax)
     63f:	02 91 58 03 11 03 	addb	51446616(%rcx), %dl
     645:	00 00 	addb	%al, (%rax)
     647:	e5 3c 	inl	$60, %eax
     649:	00 01 	addb	%al, (%rcx)
     64b:	00 00 	addb	%al, (%rax)
     64d:	02 91 50 01 6c 65 	addb	1701577040(%rcx), %dl
     653:	6e 	outsb	(%rsi), %dx
     654:	00 e5 	addb	%ah, %ch
     656:	4b 61  <unknown>
     658:	00 00 	addb	%al, (%rax)
     65a:	00 02 	addb	%al, (%rdx)
     65c:	91 	xchgl	%ecx, %eax
     65d:	48 02 73 31 	addb	49(%rbx), %sil
     661:	00 e7 	addb	%ah, %bh
     663:	1a 00 	sbbb	(%rax), %al
     665:	01 00 	addl	%eax, (%rax)
     667:	00 02 	addb	%al, (%rdx)
     669:	91 	xchgl	%ecx, %eax
     66a:	68 02 73 32 00 	pushq	$3306242
     66f:	e8 1a 00 01 00 	callq	65562 <strrchr+0x56>
     674:	00 02 	addb	%al, (%rdx)
     676:	91 	xchgl	%ecx, %eax
     677:	60  <unknown>
     678:	00 08 	addb	%cl, (%rax)
     67a:	35 00 00 00 0b 	xorl	$184549376, %eax
     67f:	66 02 00 	addb	(%rax), %al
     682:	00 cf 	addb	%cl, %bh
     684:	d3 08 	rorl	%cl, (%rax)
     686:	01 00 	addl	%eax, (%rax)
     688:	00 00 	addb	%al, (%rax)
     68a:	00 00 	addb	%al, (%rax)
     68c:	b5 00 	movb	$0, %ch
     68e:	00 00 	addb	%al, (%rax)
     690:	00 00 	addb	%al, (%rax)
     692:	00 00 	addb	%al, (%rax)
     694:	01 9c 95 01 00 00 03 	addl	%ebx, 50331649(%rbp,%rdx,4)
     69b:	9e 	sahf
     69c:	02 00 	addb	(%rax), %al
     69e:	00 cf 	addb	%cl, %bh
     6a0:	1d 95 01 00 00 	sbbl	$405, %eax
     6a5:	02 91 48 01 73 72 	addb	1920139592(%rcx), %dl
     6ab:	63  <unknown>
     6ac:	00 cf 	addb	%cl, %bh
     6ae:	32 95 01 00 00 02 	xorb	33554433(%rbp), %dl
     6b4:	91 	xchgl	%ecx, %eax
     6b5:	40 01 6c 65 6e 	addl	%ebp, 110(%rbp,%riz,2)
     6ba:	00 cf 	addb	%cl, %bh
     6bc:	40 61  <unknown>
     6be:	00 00 	addb	%al, (%rax)
     6c0:	00 03 	addb	%al, (%rbx)
     6c2:	91 	xchgl	%ecx, %eax
     6c3:	b8 7f 02 73 70 	movl	$1886585471, %eax
     6c8:	00 d1 	addb	%dl, %cl
     6ca:	14 95 	adcb	$-107, %al
     6cc:	01 00 	addl	%eax, (%rax)
     6ce:	00 02 	addb	%al, (%rdx)
     6d0:	91 	xchgl	%ecx, %eax
     6d1:	68 02 64 70 00 	pushq	$7365634
     6d6:	d2 14 95 01 00 00 02 	rclb	%cl, 33554433(,%rdx,4)
     6dd:	91 	xchgl	%ecx, %eax
     6de:	60  <unknown>
     6df:	06  <unknown>
     6e0:	2f  <unknown>
     6e1:	09 01 	orl	%eax, (%rcx)
     6e3:	00 00 	addb	%al, (%rax)
     6e5:	00 00 	addb	%al, (%rax)
     6e7:	00 56 00 	addb	%dl, (%rsi)
     6ea:	00 00 	addb	%al, (%rax)
     6ec:	00 00 	addb	%al, (%rax)
     6ee:	00 00 	addb	%al, (%rax)
     6f0:	09 b9 02 00 00 dc 	orl	%edi, -603979774(%rcx)
     6f6:	18 95 01 00 00 02 	sbbb	%dl, 33554433(%rbp)
     6fc:	91 	xchgl	%ecx, %eax
     6fd:	58 	popq	%rax
     6fe:	09 f1 	orl	%esi, %ecx
     700:	02 00 	addb	(%rax), %al
     702:	00 dd 	addb	%bl, %ch
     704:	18 95 01 00 00 02 	sbbb	%dl, 33554433(%rbp)
     70a:	91 	xchgl	%ecx, %eax
     70b:	50 	pushq	%rax
     70c:	00 00 	addb	%al, (%rax)
     70e:	08 2e 	orb	%ch, (%rsi)
     710:	00 00 	addb	%al, (%rax)
     712:	00 0b 	addb	%cl, (%rbx)
     714:	bf 02 00 00 c6 	movl	$3321888770, %edi
     719:	91 	xchgl	%ecx, %eax
     71a:	08 01 	orb	%al, (%rcx)
     71c:	00 00 	addb	%al, (%rax)
     71e:	00 00 	addb	%al, (%rax)
     720:	00 42 00 	addb	%al, (%rdx)
     723:	00 00 	addb	%al, (%rax)
     725:	00 00 	addb	%al, (%rax)
     727:	00 00 	addb	%al, (%rax)
     729:	01 9c ef 01 00 00 03 	addl	%ebx, 50331649(%rdi,%rbp,8)
     730:	9e 	sahf
     731:	02 00 	addb	(%rax), %al
     733:	00 c6 	addb	%al, %dh
     735:	1c 95 	sbbb	$-107, %al
     737:	01 00 	addl	%eax, (%rax)
     739:	00 02 	addb	%al, (%rdx)
     73b:	91 	xchgl	%ecx, %eax
     73c:	58 	popq	%rax
     73d:	01 76 61 	addl	%esi, 97(%rsi)
     740:	6c 	insb	%dx, %es:(%rdi)
     741:	00 c6 	addb	%al, %dh
     743:	30 2e 	xorb	%ch, (%rsi)
     745:	00 00 	addb	%al, (%rax)
     747:	00 02 	addb	%al, (%rdx)
     749:	91 	xchgl	%ecx, %eax
     74a:	54 	pushq	%rsp
     74b:	01 6c 65 6e 	addl	%ebp, 110(%rbp,%riz,2)
     74f:	00 c6 	addb	%al, %dh
     751:	3e 61  <unknown>
     753:	00 00 	addb	%al, (%rax)
     755:	00 02 	addb	%al, (%rdx)
     757:	91 	xchgl	%ecx, %eax
     758:	48 09 42 02 	orq	%rax, 2(%rdx)
     75c:	00 00 	addb	%al, (%rax)
     75e:	c8 14 95 01 	enter	$-27372, $1
     762:	00 00 	addb	%al, (%rax)
     764:	02 91 68 00 0b 34 	addb	873136232(%rcx), %dl
     76a:	00 00 	addb	%al, (%rax)
     76c:	00 bc 3d 08 01 00 00 	addb	%bh, 264(%rbp,%rdi)
     773:	00 00 	addb	%al, (%rax)
     775:	00 54 00 00 	addb	%dl, (%rax,%rax)
     779:	00 00 	addb	%al, (%rax)
     77b:	00 00 	addb	%al, (%rax)
     77d:	00 01 	addb	%al, (%rcx)
     77f:	9c 	pushfq
     780:	50 	pushq	%rax
     781:	02 00 	addb	(%rax), %al
     783:	00 03 	addb	%al, (%rbx)
     785:	9e 	sahf
     786:	02 00 	addb	(%rax), %al
     788:	00 bc 1c 95 01 00 00 	addb	%bh, 405(%rsp,%rbx)
     78f:	02 91 58 01 73 72 	addb	1920139608(%rcx), %dl
     795:	63  <unknown>
     796:	00 bc 37 00 01 00 00 	addb	%bh, 256(%rdi,%rsi)
     79d:	02 91 50 01 6c 65 	addb	1701577040(%rcx), %dl
     7a3:	6e 	outsb	(%rsi), %dx
     7a4:	00 bc 45 61 00 00 00 	addb	%bh, 97(%rbp,%rax,2)
     7ab:	02 91 48 02 73 70 	addb	1886585416(%rcx), %dl
     7b1:	00 be 1a 00 01 00 	addb	%bh, 65562(%rsi)
     7b7:	00 02 	addb	%al, (%rdx)
     7b9:	91 	xchgl	%ecx, %eax
     7ba:	68 02 64 70 00 	pushq	$7365634
     7bf:	bf 14 95 01 00 	movl	$103700, %edi
     7c4:	00 02 	addb	%al, (%rdx)
     7c6:	91 	xchgl	%ecx, %eax
     7c7:	60  <unknown>
     7c8:	00 07 	addb	%al, (%rdi)
     7ca:	b1 02 	movb	$2, %cl
     7cc:	00 00 	addb	%al, (%rax)
     7ce:	b0 07 	movb	$7, %al
     7d0:	a6 	cmpsb	%es:(%rdi), (%rsi)
     7d1:	02 00 	addb	(%rax), %al
     7d3:	00 ce 	addb	%cl, %dh
     7d5:	07  <unknown>
     7d6:	01 00 	addl	%eax, (%rax)
     7d8:	00 00 	addb	%al, (%rax)
     7da:	00 00 	addb	%al, (%rax)
     7dc:	6f 	outsl	(%rsi), %dx
     7dd:	00 00 	addb	%al, (%rax)
     7df:	00 00 	addb	%al, (%rax)
     7e1:	00 00 	addb	%al, (%rax)
     7e3:	00 01 	addb	%al, (%rcx)
     7e5:	9c 	pushfq
     7e6:	a6 	cmpsb	%es:(%rdi), (%rsi)
     7e7:	02 00 	addb	(%rax), %al
     7e9:	00 03 	addb	%al, (%rbx)
     7eb:	9e 	sahf
     7ec:	02 00 	addb	(%rax), %al
     7ee:	00 b0 15 a6 02 00 	addb	%dh, 173589(%rax)
     7f4:	00 02 	addb	%al, (%rdx)
     7f6:	91 	xchgl	%ecx, %eax
     7f7:	58 	popq	%rax
     7f8:	01 73 72 	addl	%esi, 114(%rbx)
     7fb:	63  <unknown>
     7fc:	00 b0 27 b7 02 00 	addb	%dh, 177959(%rax)
     802:	00 02 	addb	%al, (%rdx)
     804:	91 	xchgl	%ecx, %eax
     805:	50 	pushq	%rax
     806:	01 6e 00 	addl	%ebp, (%rsi)
     809:	b0 33 	movb	$51, %al
     80b:	8f 00 	popq	(%rax)
     80d:	00 00 	addb	%al, (%rax)
     80f:	02 91 4c 02 69 00 	addb	6881868(%rcx), %dl
     815:	b2 0c 	movb	$12, %dl
     817:	8f 00 	popq	(%rax)
     819:	00 00 	addb	%al, (%rax)
     81b:	02 91 6c 00 08 ab 	addb	-1425538964(%rcx), %dl
     821:	02 00 	addb	(%rax), %al
     823:	00 04 01 	addb	%al, (%rcx,%rax)
     826:	06  <unknown>
     827:	63  <unknown>
     828:	01 00 	addl	%eax, (%rax)
     82a:	00 0c ab 	addb	%cl, (%rbx,%rbp,4)
     82d:	02 00 	addb	(%rax), %al
     82f:	00 08 	addb	%cl, (%rax)
     831:	b2 02 	movb	$2, %dl
     833:	00 00 	addb	%al, (%rax)
     835:	07  <unknown>
     836:	a3 02 00 00 95 07 a6 02 00 	movabsl	%eax, 745501448208386
     83f:	00 7b 07 	addb	%bh, 7(%rbx)
     842:	01 00 	addl	%eax, (%rax)
     844:	00 00 	addb	%al, (%rax)
     846:	00 00 	addb	%al, (%rax)
     848:	53 	pushq	%rbx
     849:	00 00 	addb	%al, (%rax)
     84b:	00 00 	addb	%al, (%rax)
     84d:	00 00 	addb	%al, (%rax)
     84f:	00 01 	addb	%al, (%rcx)
     851:	9c 	pushfq
     852:	08 03 	orb	%al, (%rbx)
     854:	00 00 	addb	%al, (%rax)
     856:	03 9e 02 00 00 95 	addl	-1795162110(%rsi), %ebx
     85c:	14 a6 	adcb	$-90, %al
     85e:	02 00 	addb	(%rax), %al
     860:	00 02 	addb	%al, (%rdx)
     862:	91 	xchgl	%ecx, %eax
     863:	58 	popq	%rax
     864:	01 73 72 	addl	%esi, 114(%rbx)
     867:	63  <unknown>
     868:	00 95 26 b7 02 00 	addb	%dl, 177958(%rbp)
     86e:	00 02 	addb	%al, (%rdx)
     870:	91 	xchgl	%ecx, %eax
     871:	50 	pushq	%rax
     872:	02 70 74 	addb	116(%rax), %dh
     875:	72 00 	jb	0 <video.c+0x877>
     877:	9e 	sahf
     878:	0b a6 02 00 00 02 	orl	33554434(%rsi), %esp
     87e:	91 	xchgl	%ecx, %eax
     87f:	68 00 05 5e 02 	pushq	$39716096
     884:	00 00 	addb	%al, (%rax)
     886:	8b 07 	movl	(%rdi), %eax
     888:	a6 	cmpsb	%es:(%rdi), (%rsi)
     889:	02 00 	addb	(%rax), %al
     88b:	00 f3 	addb	%dh, %bl
     88d:	06  <unknown>
     88e:	01 00 	addl	%eax, (%rax)
     890:	00 00 	addb	%al, (%rax)
     892:	00 00 	addb	%al, (%rax)
     894:	88 00 	movb	%al, (%rax)
     896:	00 00 	addb	%al, (%rax)
     898:	00 00 	addb	%al, (%rax)
     89a:	00 00 	addb	%al, (%rax)
     89c:	01 9c 70 03 00 00 03 	addl	%ebx, 50331651(%rax,%rsi,2)
     8a3:	9e 	sahf
     8a4:	02 00 	addb	(%rax), %al
     8a6:	00 8b 15 a6 02 00 	addb	%cl, 173589(%rbx)
     8ac:	00 02 	addb	%al, (%rdx)
     8ae:	91 	xchgl	%ecx, %eax
     8af:	58 	popq	%rax
     8b0:	01 73 72 	addl	%esi, 114(%rbx)
     8b3:	63  <unknown>
     8b4:	00 8b 21 a6 02 00 	addb	%cl, 173601(%rbx)
     8ba:	00 02 	addb	%al, (%rdx)
     8bc:	91 	xchgl	%ecx, %eax
     8bd:	50 	pushq	%rax
     8be:	01 6e 00 	addl	%ebp, (%rsi)
     8c1:	8b 2d 8f 00 00 00 	movl	143(%rip), %ebp
     8c7:	02 91 4c 06 06 07 	addb	117835340(%rcx), %dl
     8cd:	01 00 	addl	%eax, (%rax)
     8cf:	00 00 	addb	%al, (%rax)
     8d1:	00 00 	addb	%al, (%rax)
     8d3:	6e 	outsb	(%rsi), %dx
     8d4:	00 00 	addb	%al, (%rax)
     8d6:	00 00 	addb	%al, (%rax)
     8d8:	00 00 	addb	%al, (%rax)
     8da:	00 02 	addb	%al, (%rdx)
     8dc:	69 00 8d 11 8f 00 	imull	$9376141, (%rax), %eax
     8e2:	00 00 	addb	%al, (%rax)
     8e4:	02 91 6c 00 00 05 	addb	83886188(%rcx), %dl
     8ea:	16  <unknown>
     8eb:	03 00 	addl	(%rax), %eax
     8ed:	00 81 07 a6 02 00 	addb	%al, 173575(%rcx)
     8f3:	00 95 06 01 00 00 	addb	%dl, 262(%rbp)
     8f9:	00 00 	addb	%al, (%rax)
     8fb:	00 5e 00 	addb	%bl, (%rsi)
     8fe:	00 00 	addb	%al, (%rax)
     900:	00 00 	addb	%al, (%rax)
     902:	00 00 	addb	%al, (%rax)
     904:	01 9c cc 03 00 00 03 	addl	%ebx, 50331651(%rsp,%rcx,8)
     90b:	9e 	sahf
     90c:	02 00 	addb	(%rax), %al
     90e:	00 81 14 a6 02 00 	addb	%al, 173588(%rcx)
     914:	00 02 	addb	%al, (%rdx)
     916:	91 	xchgl	%ecx, %eax
     917:	58 	popq	%rax
     918:	01 73 72 	addl	%esi, 114(%rbx)
     91b:	63  <unknown>
     91c:	00 81 20 a6 02 00 	addb	%al, 173600(%rcx)
     922:	00 02 	addb	%al, (%rdx)
     924:	91 	xchgl	%ecx, %eax
     925:	50 	pushq	%rax
     926:	06  <unknown>
     927:	a5 	movsl	(%rsi), %es:(%rdi)
     928:	06  <unknown>
     929:	01 00 	addl	%eax, (%rax)
     92b:	00 00 	addb	%al, (%rax)
     92d:	00 00 	addb	%al, (%rax)
     92f:	47 00 00 	addb	%r8b, (%r8)
     932:	00 00 	addb	%al, (%rax)
     934:	00 00 	addb	%al, (%rax)
     936:	00 02 	addb	%al, (%rdx)
     938:	69 00 83 11 8f 00 	imull	$9376131, (%rax), %eax
     93e:	00 00 	addb	%al, (%rax)
     940:	02 91 6c 00 00 05 	addb	83886188(%rcx), %dl
     946:	1d 03 00 00 74 	sbbl	$1946157059, %eax
     94b:	07  <unknown>
     94c:	a6 	cmpsb	%es:(%rdi), (%rsi)
     94d:	02 00 	addb	(%rax), %al
     94f:	00 38 	addb	%bh, (%rax)
     951:	06  <unknown>
     952:	01 00 	addl	%eax, (%rax)
     954:	00 00 	addb	%al, (%rax)
     956:	00 00 	addb	%al, (%rax)
     958:	5d 	popq	%rbp
     959:	00 00 	addb	%al, (%rax)
     95b:	00 00 	addb	%al, (%rax)
     95d:	00 00 	addb	%al, (%rax)
     95f:	00 01 	addb	%al, (%rcx)
     961:	9c 	pushfq
     962:	36 04 00 	addb	$0, %al
     965:	00 03 	addb	%al, (%rbx)
     967:	9e 	sahf
     968:	02 00 	addb	(%rax), %al
     96a:	00 74 15 a6 	addb	%dh, -90(%rbp,%rdx)
     96e:	02 00 	addb	(%rax), %al
     970:	00 02 	addb	%al, (%rdx)
     972:	91 	xchgl	%ecx, %eax
     973:	58 	popq	%rax
     974:	01 63 68 	addl	%esp, 104(%rbx)
     977:	72 00 	jb	0 <video.c+0x979>
     979:	74 20 	je	32 <video.c+0x99b>
     97b:	ab 	stosl	%eax, %es:(%rdi)
     97c:	02 00 	addb	(%rax), %al
     97e:	00 02 	addb	%al, (%rdx)
     980:	91 	xchgl	%ecx, %eax
     981:	54 	pushq	%rsp
     982:	02 74 6d 70 	addb	112(%rbp,%rbp,2), %dh
     986:	00 76 0b 	addb	%dh, 11(%rsi)
     989:	a6 	cmpsb	%es:(%rdi), (%rsi)
     98a:	02 00 	addb	(%rax), %al
     98c:	00 02 	addb	%al, (%rdx)
     98e:	91 	xchgl	%ecx, %eax
     98f:	68 06 51 06 01 	pushq	$17191174
     994:	00 00 	addb	%al, (%rax)
     996:	00 00 	addb	%al, (%rax)
     998:	00 3e 	addb	%bh, (%rsi)
     99a:	00 00 	addb	%al, (%rax)
     99c:	00 00 	addb	%al, (%rax)
     99e:	00 00 	addb	%al, (%rax)
     9a0:	00 02 	addb	%al, (%rdx)
     9a2:	69 00 77 11 8f 00 	imull	$9376119, (%rax), %eax
     9a8:	00 00 	addb	%al, (%rax)
     9aa:	02 91 64 00 00 05 	addb	83886180(%rcx), %dl
     9b0:	88 02 	movb	%al, (%rdx)
     9b2:	00 00 	addb	%al, (%rax)
     9b4:	68 07 a6 02 00 	pushq	$173575
     9b9:	00 ba 05 01 00 00 	addb	%bh, 261(%rdx)
     9bf:	00 00 	addb	%al, (%rax)
     9c1:	00 7e 00 	addb	%bh, (%rsi)
     9c4:	00 00 	addb	%al, (%rax)
     9c6:	00 00 	addb	%al, (%rax)
     9c8:	00 00 	addb	%al, (%rax)
     9ca:	01 9c 9e 04 00 00 03 	addl	%ebx, 50331652(%rsi,%rbx,4)
     9d1:	9e 	sahf
     9d2:	02 00 	addb	(%rax), %al
     9d4:	00 68 15 	addb	%ch, 21(%rax)
     9d7:	a6 	cmpsb	%es:(%rdi), (%rsi)
     9d8:	02 00 	addb	(%rax), %al
     9da:	00 02 	addb	%al, (%rdx)
     9dc:	91 	xchgl	%ecx, %eax
     9dd:	58 	popq	%rax
     9de:	01 63 68 	addl	%esp, 104(%rbx)
     9e1:	72 00 	jb	0 <video.c+0x9e3>
     9e3:	68 20 ab 02 00 	pushq	$174880
     9e8:	00 02 	addb	%al, (%rdx)
     9ea:	91 	xchgl	%ecx, %eax
     9eb:	54 	pushq	%rsp
     9ec:	01 6e 00 	addl	%ebp, (%rsi)
     9ef:	68 2c 8f 00 00 	pushq	$36652
     9f4:	00 02 	addb	%al, (%rdx)
     9f6:	91 	xchgl	%ecx, %eax
     9f7:	50 	pushq	%rax
     9f8:	06  <unknown>
     9f9:	ce  <unknown>
     9fa:	05 01 00 00 00 	addl	$1, %eax
     9ff:	00 00 	addb	%al, (%rax)
     a01:	63  <unknown>
     a02:	00 00 	addb	%al, (%rax)
     a04:	00 00 	addb	%al, (%rax)
     a06:	00 00 	addb	%al, (%rax)
     a08:	00 02 	addb	%al, (%rdx)
     a0a:	69 00 6a 11 8f 00 	imull	$9376106, (%rax), %eax
     a10:	00 00 	addb	%al, (%rax)
     a12:	02 91 6c 00 00 05 	addb	83886188(%rcx), %dl
     a18:	90 	nop
     a19:	02 00 	addb	(%rax), %al
     a1b:	00 5c 07 a6 	addb	%bl, -90(%rdi,%rax)
     a1f:	02 00 	addb	(%rax), %al
     a21:	00 66 05 	addb	%ah, 5(%rsi)
     a24:	01 00 	addl	%eax, (%rax)
     a26:	00 00 	addb	%al, (%rax)
     a28:	00 00 	addb	%al, (%rax)
     a2a:	54 	pushq	%rsp
     a2b:	00 00 	addb	%al, (%rax)
     a2d:	00 00 	addb	%al, (%rax)
     a2f:	00 00 	addb	%al, (%rax)
     a31:	00 01 	addb	%al, (%rcx)
     a33:	9c 	pushfq
     a34:	fa 	cli
     a35:	04 00 	addb	$0, %al
     a37:	00 03 	addb	%al, (%rbx)
     a39:	9e 	sahf
     a3a:	02 00 	addb	(%rax), %al
     a3c:	00 5c 14 a6 	addb	%bl, -90(%rsp,%rdx)
     a40:	02 00 	addb	(%rax), %al
     a42:	00 02 	addb	%al, (%rdx)
     a44:	91 	xchgl	%ecx, %eax
     a45:	58 	popq	%rax
     a46:	01 63 68 	addl	%esp, 104(%rbx)
     a49:	72 00 	jb	0 <video.c+0xa4b>
     a4b:	5c 	popq	%rsp
     a4c:	1f  <unknown>
     a4d:	ab 	stosl	%eax, %es:(%rdi)
     a4e:	02 00 	addb	(%rax), %al
     a50:	00 02 	addb	%al, (%rdx)
     a52:	91 	xchgl	%ecx, %eax
     a53:	54 	pushq	%rsp
     a54:	06  <unknown>
     a55:	77 05 	ja	5 <video.c+0xa5c>
     a57:	01 00 	addl	%eax, (%rax)
     a59:	00 00 	addb	%al, (%rax)
     a5b:	00 00 	addb	%al, (%rax)
     a5d:	3c 00 	cmpb	$0, %al
     a5f:	00 00 	addb	%al, (%rax)
     a61:	00 00 	addb	%al, (%rax)
     a63:	00 00 	addb	%al, (%rax)
     a65:	02 69 00 	addb	(%rcx), %ch
     a68:	5e 	popq	%rsi
     a69:	11 8f 00 00 00 02 	adcl	%ecx, 33554432(%rdi)
     a6f:	91 	xchgl	%ecx, %eax
     a70:	6c 	insb	%dx, %es:(%rdi)
     a71:	00 00 	addb	%al, (%rax)
     a73:	05 c6 02 00 00 	addl	$710, %eax
     a78:	4a 07  <unknown>
     a7a:	a6 	cmpsb	%es:(%rdi), (%rsi)
     a7b:	02 00 	addb	(%rax), %al
     a7d:	00 f0 	addb	%dh, %al
     a7f:	04 01 	addb	$1, %al
     a81:	00 00 	addb	%al, (%rax)
     a83:	00 00 	addb	%al, (%rax)
     a85:	00 76 00 	addb	%dh, (%rsi)
     a88:	00 00 	addb	%al, (%rax)
     a8a:	00 00 	addb	%al, (%rax)
     a8c:	00 00 	addb	%al, (%rax)
     a8e:	01 9c 5e 05 00 00 03 	addl	%ebx, 50331653(%rsi,%rbx,2)
     a95:	9e 	sahf
     a96:	02 00 	addb	(%rax), %al
     a98:	00 4a 15 	addb	%cl, 21(%rdx)
     a9b:	a6 	cmpsb	%es:(%rdi), (%rsi)
     a9c:	02 00 	addb	(%rax), %al
     a9e:	00 02 	addb	%al, (%rdx)
     aa0:	91 	xchgl	%ecx, %eax
     aa1:	58 	popq	%rax
     aa2:	01 73 72 	addl	%esi, 114(%rbx)
     aa5:	63  <unknown>
     aa6:	00 4a 21 	addb	%cl, 33(%rdx)
     aa9:	a6 	cmpsb	%es:(%rdi), (%rsi)
     aaa:	02 00 	addb	(%rax), %al
     aac:	00 02 	addb	%al, (%rdx)
     aae:	91 	xchgl	%ecx, %eax
     aaf:	50 	pushq	%rax
     ab0:	01 6e 00 	addl	%ebp, (%rsi)
     ab3:	4a 2d 8f 00 00 00 	subq	$143, %rax
     ab9:	02 91 4c 02 70 74 	addb	1953497676(%rcx), %dl
     abf:	72 00 	jb	0 <video.c+0xac1>
     ac1:	4c 0b a6 02 00 00 02 	orq	33554434(%rsi), %r12
     ac8:	91 	xchgl	%ecx, %eax
     ac9:	68 02 63 00 4d 	pushq	$1291870978
     ace:	09 7a 00 	orl	%edi, (%rdx)
     ad1:	00 00 	addb	%al, (%rax)
     ad3:	02 91 64 00 05 aa 	addb	-1442512796(%rcx), %dl
     ad9:	02 00 	addb	(%rax), %al
     adb:	00 39 	addb	%bh, (%rcx)
     add:	07  <unknown>
     ade:	a6 	cmpsb	%es:(%rdi), (%rsi)
     adf:	02 00 	addb	(%rax), %al
     ae1:	00 90 04 01 00 00 	addb	%dl, 260(%rax)
     ae7:	00 00 	addb	%al, (%rax)
     ae9:	00 60 00 	addb	%ah, (%rax)
     aec:	00 00 	addb	%al, (%rax)
     aee:	00 00 	addb	%al, (%rax)
     af0:	00 00 	addb	%al, (%rax)
     af2:	01 9c aa 05 00 00 03 	addl	%ebx, 50331653(%rdx,%rbp,4)
     af9:	9e 	sahf
     afa:	02 00 	addb	(%rax), %al
     afc:	00 39 	addb	%bh, (%rcx)
     afe:	14 a6 	adcb	$-90, %al
     b00:	02 00 	addb	(%rax), %al
     b02:	00 02 	addb	%al, (%rdx)
     b04:	91 	xchgl	%ecx, %eax
     b05:	58 	popq	%rax
     b06:	01 73 72 	addl	%esi, 114(%rbx)
     b09:	63  <unknown>
     b0a:	00 39 	addb	%bh, (%rcx)
     b0c:	20 a6 02 00 00 02 	andb	%ah, 33554434(%rsi)
     b12:	91 	xchgl	%ecx, %eax
     b13:	50 	pushq	%rax
     b14:	02 70 74 	addb	116(%rax), %dh
     b17:	72 00 	jb	0 <video.c+0xb19>
     b19:	3b 0b 	cmpl	(%rbx), %ecx
     b1b:	a6 	cmpsb	%es:(%rdi), (%rsi)
     b1c:	02 00 	addb	(%rax), %al
     b1e:	00 02 	addb	%al, (%rdx)
     b20:	91 	xchgl	%ecx, %eax
     b21:	68 00 05 e5 02 	pushq	$48563456
     b26:	00 00 	addb	%al, (%rax)
     b28:	31 0a 	xorl	%ecx, (%rdx)
     b2a:	48 00 00 	addb	%al, (%rax)
     b2d:	00 09 	addb	%cl, (%rcx)
     b2f:	04 01 	addb	$1, %al
     b31:	00 00 	addb	%al, (%rax)
     b33:	00 00 	addb	%al, (%rax)
     b35:	00 87 00 00 00 00 	addb	%al, (%rdi)
     b3b:	00 00 	addb	%al, (%rax)
     b3d:	00 01 	addb	%al, (%rcx)
     b3f:	9c 	pushfq
     b40:	12 06 	adcb	(%rsi), %al
     b42:	00 00 	addb	%al, (%rax)
     b44:	03 9e 02 00 00 31 	addl	822083586(%rsi), %ebx
     b4a:	1c a6 	sbbb	$-90, %al
     b4c:	02 00 	addb	(%rax), %al
     b4e:	00 02 	addb	%al, (%rdx)
     b50:	91 	xchgl	%ecx, %eax
     b51:	50 	pushq	%rax
     b52:	01 73 72 	addl	%esi, 114(%rbx)
     b55:	63  <unknown>
     b56:	00 31 	addb	%dh, (%rcx)
     b58:	28 a6 02 00 00 02 	subb	%ah, 33554434(%rsi)
     b5e:	91 	xchgl	%ecx, %eax
     b5f:	48 01 6e 00 	addq	%rbp, (%rsi)
     b63:	31 34 8f 	xorl	%esi, (%rdi,%rcx,4)
     b66:	00 00 	addb	%al, (%rax)
     b68:	00 02 	addb	%al, (%rdx)
     b6a:	91 	xchgl	%ecx, %eax
     b6b:	44 06  <unknown>
     b6d:	1d 04 01 00 00 	sbbl	$260, %eax
     b72:	00 00 	addb	%al, (%rax)
     b74:	00 55 00 	addb	%dl, (%rbp)
     b77:	00 00 	addb	%al, (%rax)
     b79:	00 00 	addb	%al, (%rax)
     b7b:	00 00 	addb	%al, (%rax)
     b7d:	02 69 00 	addb	(%rcx), %ch
     b80:	33 0e 	xorl	(%rsi), %ecx
     b82:	7a 00 	jp	0 <video.c+0xb84>
     b84:	00 00 	addb	%al, (%rax)
     b86:	02 91 64 00 00 05 	addb	83886180(%rcx), %dl
     b8c:	ce  <unknown>
     b8d:	02 00 	addb	(%rax), %al
     b8f:	00 29 	addb	%ch, (%rcx)
     b91:	0a 48 00 	orb	(%rax), %cl
     b94:	00 00 	addb	%al, (%rax)
     b96:	94 	xchgl	%esp, %eax
     b97:	03 01 	addl	(%rcx), %eax
     b99:	00 00 	addb	%al, (%rax)
     b9b:	00 00 	addb	%al, (%rax)
     b9d:	00 75 00 	addb	%dh, (%rbp)
     ba0:	00 00 	addb	%al, (%rax)
     ba2:	00 00 	addb	%al, (%rax)
     ba4:	00 00 	addb	%al, (%rax)
     ba6:	01 9c 50 06 00 00 03 	addl	%ebx, 50331654(%rax,%rdx,2)
     bad:	9e 	sahf
     bae:	02 00 	addb	(%rax), %al
     bb0:	00 29 	addb	%ch, (%rcx)
     bb2:	1b a6 02 00 00 02 	sbbl	33554434(%rsi), %esp
     bb8:	91 	xchgl	%ecx, %eax
     bb9:	60  <unknown>
     bba:	01 73 72 	addl	%esi, 114(%rbx)
     bbd:	63  <unknown>
     bbe:	00 29 	addb	%ch, (%rcx)
     bc0:	27  <unknown>
     bc1:	a6 	cmpsb	%es:(%rdi), (%rsi)
     bc2:	02 00 	addb	(%rax), %al
     bc4:	00 02 	addb	%al, (%rdx)
     bc6:	91 	xchgl	%ecx, %eax
     bc7:	58 	popq	%rax
     bc8:	00 07 	addb	%al, (%rdi)
     bca:	fe 02 	incb	(%rdx)
     bcc:	00 00 	addb	%al, (%rax)
     bce:	21 0a 	andl	%ecx, (%rdx)
     bd0:	48 00 00 	addb	%al, (%rax)
     bd3:	00 2c 03 	addb	%ch, (%rbx,%rax)
     bd6:	01 00 	addl	%eax, (%rax)
     bd8:	00 00 	addb	%al, (%rax)
     bda:	00 00 	addb	%al, (%rax)
     bdc:	68 00 00 00 00 	pushq	$0
     be1:	00 00 	addb	%al, (%rax)
     be3:	00 01 	addb	%al, (%rcx)
     be5:	9c 	pushfq
     be6:	b8 06 00 00 03 	movl	$50331654, %eax
     beb:	9e 	sahf
     bec:	02 00 	addb	(%rax), %al
     bee:	00 21 	addb	%ah, (%rcx)
     bf0:	18 a6 02 00 00 02 	sbbb	%ah, 33554434(%rsi)
     bf6:	91 	xchgl	%ecx, %eax
     bf7:	58 	popq	%rax
     bf8:	01 73 72 	addl	%esi, 114(%rbx)
     bfb:	63  <unknown>
     bfc:	00 21 	addb	%ah, (%rcx)
     bfe:	24 a6 	andb	$-90, %al
     c00:	02 00 	addb	(%rax), %al
     c02:	00 02 	addb	%al, (%rdx)
     c04:	91 	xchgl	%ecx, %eax
     c05:	50 	pushq	%rax
     c06:	01 6e 00 	addl	%ebp, (%rsi)
     c09:	21 30 	andl	%esi, (%rax)
     c0b:	8f 00 	popq	(%rax)
     c0d:	00 00 	addb	%al, (%rax)
     c0f:	02 91 4c 06 3b 03 	addb	54199884(%rcx), %dl
     c15:	01 00 	addl	%eax, (%rax)
     c17:	00 00 	addb	%al, (%rax)
     c19:	00 00 	addb	%al, (%rax)
     c1b:	3f  <unknown>
     c1c:	00 00 	addb	%al, (%rax)
     c1e:	00 00 	addb	%al, (%rax)
     c20:	00 00 	addb	%al, (%rax)
     c22:	00 02 	addb	%al, (%rdx)
     c24:	69 00 23 0e 7a 00 	imull	$7999011, (%rax), %eax
     c2a:	00 00 	addb	%al, (%rax)
     c2c:	02 91 6c 00 00 07 	addb	117440620(%rcx), %dl
     c32:	f7 02 00 00 19 0a 	testl	$169410560, (%rdx)
     c38:	48 00 00 	addb	%al, (%rax)
     c3b:	00 d6 	addb	%dl, %dh
     c3d:	02 01 	addb	(%rcx), %al
     c3f:	00 00 	addb	%al, (%rax)
     c41:	00 00 	addb	%al, (%rax)
     c43:	00 56 00 	addb	%dl, (%rsi)
     c46:	00 00 	addb	%al, (%rax)
     c48:	00 00 	addb	%al, (%rax)
     c4a:	00 00 	addb	%al, (%rax)
     c4c:	01 9c f6 06 00 00 03 	addl	%ebx, 50331654(%rsi,%rsi,8)
     c53:	9e 	sahf
     c54:	02 00 	addb	(%rax), %al
     c56:	00 19 	addb	%bl, (%rcx)
     c58:	17  <unknown>
     c59:	a6 	cmpsb	%es:(%rdi), (%rsi)
     c5a:	02 00 	addb	(%rax), %al
     c5c:	00 02 	addb	%al, (%rdx)
     c5e:	91 	xchgl	%ecx, %eax
     c5f:	68 01 73 72 63 	pushq	$1668444929
     c64:	00 19 	addb	%bl, (%rcx)
     c66:	23 a6 02 00 00 02 	andl	33554434(%rsi), %esp
     c6c:	91 	xchgl	%ecx, %eax
     c6d:	60  <unknown>
     c6e:	00 07 	addb	%al, (%rdi)
     c70:	97 	xchgl	%edi, %eax
     c71:	02 00 	addb	(%rax), %al
     c73:	00 0e 	addb	%cl, (%rsi)
     c75:	0a 48 00 	orb	(%rax), %cl
     c78:	00 00 	addb	%al, (%rax)
     c7a:	ac 	lodsb	(%rsi), %al
     c7b:	02 01 	addb	(%rcx), %al
     c7d:	00 00 	addb	%al, (%rax)
     c7f:	00 00 	addb	%al, (%rax)
     c81:	00 2a 	addb	%ch, (%rdx)
     c83:	00 00 	addb	%al, (%rax)
     c85:	00 00 	addb	%al, (%rax)
     c87:	00 00 	addb	%al, (%rax)
     c89:	00 01 	addb	%al, (%rcx)
     c8b:	9c 	pushfq
     c8c:	34 07 	xorb	$7, %al
     c8e:	00 00 	addb	%al, (%rax)
     c90:	01 73 74 	addl	%esi, 116(%rbx)
     c93:	72 00 	jb	0 <video.c+0xc95>
     c95:	0e  <unknown>
     c96:	17  <unknown>
     c97:	a6 	cmpsb	%es:(%rdi), (%rsi)
     c98:	02 00 	addb	(%rax), %al
     c9a:	00 02 	addb	%al, (%rdx)
     c9c:	91 	xchgl	%ecx, %eax
     c9d:	58 	popq	%rax
     c9e:	09 06 	orl	%eax, (%rsi)
     ca0:	03 00 	addl	(%rax), %eax
     ca2:	00 10 	addb	%dl, (%rax)
     ca4:	12 41 00 	adcb	(%rcx), %al
     ca7:	00 00 	addb	%al, (%rax)
     ca9:	02 91 6c 00 07 d9 	addb	-653852564(%rcx), %dl
     caf:	02 00 	addb	(%rax), %al
     cb1:	00 09 	addb	%cl, (%rcx)
     cb3:	06  <unknown>
     cb4:	ab 	stosl	%eax, %es:(%rdi)
     cb5:	02 00 	addb	(%rax), %al
     cb7:	00 8e 02 01 00 00 	addb	%cl, 258(%rsi)
     cbd:	00 00 	addb	%al, (%rax)
     cbf:	00 1e 	addb	%bl, (%rsi)
     cc1:	00 00 	addb	%al, (%rax)
     cc3:	00 00 	addb	%al, (%rax)
     cc5:	00 00 	addb	%al, (%rax)
     cc7:	00 01 	addb	%al, (%rcx)
     cc9:	9c 	pushfq
     cca:	64 07  <unknown>
     ccc:	00 00 	addb	%al, (%rax)
     cce:	01 63 68 	addl	%esp, 104(%rbx)
     cd1:	72 00 	jb	0 <video.c+0xcd3>
     cd3:	09 17 	orl	%edx, (%rdi)
     cd5:	ab 	stosl	%eax, %es:(%rdi)
     cd6:	02 00 	addb	(%rax), %al
     cd8:	00 02 	addb	%al, (%rdx)
     cda:	91 	xchgl	%ecx, %eax
     cdb:	6c 	insb	%dx, %es:(%rdi)
     cdc:	00 0f 	addb	%cl, (%rdi)
     cde:	7c 02 	jl	2 <video.c+0xce2>
     ce0:	00 00 	addb	%al, (%rax)
     ce2:	01 04 06 	addl	%eax, (%rsi,%rax)
     ce5:	ab 	stosl	%eax, %es:(%rdi)
     ce6:	02 00 	addb	(%rax), %al
     ce8:	00 70 02 	addb	%dh, 2(%rax)
     ceb:	01 00 	addl	%eax, (%rax)
     ced:	00 00 	addb	%al, (%rax)
     cef:	00 00 	addb	%al, (%rax)
     cf1:	1e  <unknown>
     cf2:	00 00 	addb	%al, (%rax)
     cf4:	00 00 	addb	%al, (%rax)
     cf6:	00 00 	addb	%al, (%rax)
     cf8:	00 01 	addb	%al, (%rcx)
     cfa:	9c 	pushfq
     cfb:	01 63 68 	addl	%esp, 104(%rbx)
     cfe:	72 00 	jb	0 <video.c+0xd00>
     d00:	04 17 	addb	$23, %al
     d02:	ab 	stosl	%eax, %es:(%rdi)
     d03:	02 00 	addb	(%rax), %al
     d05:	00 02 	addb	%al, (%rdx)
     d07:	91 	xchgl	%ecx, %eax
     d08:	6c 	insb	%dx, %es:(%rdi)
     d09:	00 00 	addb	%al, (%rax)
     d0b:	49 02 00 	addb	(%r8), %al
     d0e:	00 05 00 01 08 55 	addb	%al, 1426587904(%rip)
     d14:	03 00 	addl	(%rax), %eax
     d16:	00 09 	addb	%cl, (%rcx)
     d18:	3b 00 	cmpl	(%rax), %eax
     d1a:	00 00 	addb	%al, (%rax)
     d1c:	1d 1a 02 00 00 	sbbl	$538, %eax
     d21:	19 00 	sbbl	%eax, (%rax)
     d23:	00 00 	addb	%al, (%rax)
     d25:	0c 0a 	orb	$10, %al
     d27:	01 00 	addl	%eax, (%rax)
     d29:	00 00 	addb	%al, (%rax)
     d2b:	00 00 	addb	%al, (%rax)
     d2d:	7c 01 	jl	1 <video.c+0xd30>
     d2f:	00 00 	addb	%al, (%rax)
     d31:	00 00 	addb	%al, (%rax)
     d33:	00 00 	addb	%al, (%rax)
     d35:	56 	pushq	%rsi
     d36:	06  <unknown>
     d37:	00 00 	addb	%al, (%rax)
     d39:	01 01 	addl	%eax, (%rcx)
     d3b:	08 5a 01 	orb	%bl, 1(%rdx)
     d3e:	00 00 	addb	%al, (%rax)
     d40:	01 02 	addl	%eax, (%rdx)
     d42:	07  <unknown>
     d43:	b8 01 00 00 03 	movl	$50331649, %eax
     d48:	8f 01 	popq	(%rcx)
     d4a:	00 00 	addb	%al, (%rax)
     d4c:	02 08 	addb	(%rax), %cl
     d4e:	18 35 00 00 00 01 	sbbb	%dh, 16777216(%rip)
     d54:	04 07 	addb	$7, %al
     d56:	72 01 	jb	1 <video.c+0xd59>
     d58:	00 00 	addb	%al, (%rax)
     d5a:	03 7f 01 	addl	1(%rdi), %edi
     d5d:	00 00 	addb	%al, (%rax)
     d5f:	02 0b 	addb	(%rbx), %cl
     d61:	16  <unknown>
     d62:	48 00 00 	addb	%al, (%rax)
     d65:	00 01 	addb	%al, (%rcx)
     d67:	08 07 	orb	%al, (%rdi)
     d69:	6d 	insl	%dx, %es:(%rdi)
     d6a:	01 00 	addl	%eax, (%rax)
     d6c:	00 01 	addb	%al, (%rcx)
     d6e:	08 07 	orb	%al, (%rdi)
     d70:	68 01 00 00 03 	pushq	$50331649
     d75:	0e  <unknown>
     d76:	00 00 	addb	%al, (%rax)
     d78:	00 02 	addb	%al, (%rdx)
     d7a:	11 1c 62 	adcl	%ebx, (%rdx,%riz,2)
     d7d:	00 00 	addb	%al, (%rax)
     d7f:	00 01 	addb	%al, (%rcx)
     d81:	01 06 	addl	%eax, (%rsi)
     d83:	5c 	popq	%rsp
     d84:	01 00 	addl	%eax, (%rax)
     d86:	00 01 	addb	%al, (%rcx)
     d88:	02 05 17 00 00 00 	addb	23(%rip), %al
     d8e:	0a 04 05 69 6e 74 00 	orb	7630441(,%rax), %al
     d95:	01 08 	addl	%ecx, (%rax)
     d97:	05 1e 01 00 00 	addl	$286, %eax
     d9c:	01 08 	addl	%ecx, (%rax)
     d9e:	05 19 01 00 00 	addl	$281, %eax
     da3:	0b 18 	orl	(%rax), %ebx
     da5:	03 06 	addl	(%rsi), %eax
     da7:	09 ce 	orl	%ecx, %esi
     da9:	00 00 	addb	%al, (%rax)
     dab:	00 04 e4 	addb	%al, (%rsp,%riz,8)
     dae:	06  <unknown>
     daf:	00 00 	addb	%al, (%rax)
     db1:	08 69 00 	orb	%ch, (%rcx)
     db4:	00 00 	addb	%al, (%rax)
     db6:	00 04 45 01 00 00 09 	addb	%al, 150994945(,%rax,2)
     dbd:	69 00 00 00 08 04 	imull	$67633152, (%rax), %eax
     dc3:	d9 01 	flds	(%rcx)
     dc5:	00 00 	addb	%al, (%rax)
     dc7:	0a 4f 00 	orb	(%rdi), %cl
     dca:	00 00 	addb	%al, (%rax)
     dcc:	10 04 36 	adcb	%al, (%rsi,%rsi)
     dcf:	02 00 	addb	(%rax), %al
     dd1:	00 0b 	addb	%cl, (%rbx)
     dd3:	4f 00 00 	addb	%r8b, (%r8)
     dd6:	00 14 00 	addb	%dl, (%rax,%rax)
     dd9:	03 cb 	addl	%ebx, %ecx
     ddb:	01 00 	addl	%eax, (%rax)
     ddd:	00 03 	addb	%al, (%rbx)
     ddf:	0c 1b 	orb	$27, %al
     de1:	98 	cwtl
     de2:	00 00 	addb	%al, (%rax)
     de4:	00 0c 08 	addb	%cl, (%rax,%rcx)
     de7:	ce  <unknown>
     de8:	00 00 	addb	%al, (%rax)
     dea:	00 0d 25 03 00 00 	addb	%cl, 805(%rip)
     df0:	03 14 11 	addl	(%rcx,%rdx), %edx
     df3:	3c 00 	cmpb	$0, %al
     df5:	00 00 	addb	%al, (%rax)
     df7:	0e  <unknown>
     df8:	e0 00 	loopne	0
     dfa:	00 00 	addb	%al, (%rax)
     dfc:	01 04 0a 	addl	%eax, (%rdx,%rcx)
     dff:	09 03 	orl	%eax, (%rbx)
     e01:	e2 33 	loop	51
     e03:	01 00 	addl	%eax, (%rax)
     e05:	00 00 	addb	%al, (%rax)
     e07:	00 00 	addb	%al, (%rax)
     e09:	0f 49 03 	cmovnsl	(%rbx), %eax
     e0c:	00 00 	addb	%al, (%rax)
     e0e:	01 26 	addl	%esp, (%rsi)
     e10:	0a 4f 00 	orb	(%rdi), %cl
     e13:	00 00 	addb	%al, (%rax)
     e15:	37  <unknown>
     e16:	0b 01 	orl	(%rcx), %eax
     e18:	00 00 	addb	%al, (%rax)
     e1a:	00 00 	addb	%al, (%rax)
     e1c:	00 51 00 	addb	%dl, (%rcx)
     e1f:	00 00 	addb	%al, (%rax)
     e21:	00 00 	addb	%al, (%rax)
     e23:	00 00 	addb	%al, (%rax)
     e25:	01 9c 2f 01 00 00 06 	addl	%ebx, 100663297(%rdi,%rbp)
     e2c:	79 03 	jns	3 <video.c+0xe31>
     e2e:	00 00 	addb	%al, (%rax)
     e30:	26 2d da 00 00 00 	subl	$218, %eax
     e36:	02 91 68 00 07 5d 	addb	1560739944(%rcx), %dl
     e3c:	03 00 	addl	(%rax), %eax
     e3e:	00 18 	addb	%bl, (%rax)
     e40:	69 00 00 00 90 0a 	imull	$177209344, (%rax), %eax
     e46:	01 00 	addl	%eax, (%rax)
     e48:	00 00 	addb	%al, (%rax)
     e4a:	00 00 	addb	%al, (%rax)
     e4c:	a7 	cmpsl	%es:(%rdi), (%rsi)
     e4d:	00 00 	addb	%al, (%rax)
     e4f:	00 00 	addb	%al, (%rax)
     e51:	00 00 	addb	%al, (%rax)
     e53:	00 01 	addb	%al, (%rcx)
     e55:	9c 	pushfq
     e56:	a9 01 00 00 02 	testl	$33554433, %eax
     e5b:	73 03 	jae	3 <video.c+0xe60>
     e5d:	00 00 	addb	%al, (%rax)
     e5f:	1a 0e 	sbbb	(%rsi), %cl
     e61:	69 00 00 00 02 91 	imull	$2432827392, (%rax), %eax
     e67:	68 02 06 03 00 	pushq	$198146
     e6c:	00 1b 	addb	%bl, (%rbx)
     e6e:	0e  <unknown>
     e6f:	4f 00 00 	addb	%r8b, (%r8)
     e72:	00 02 	addb	%al, (%rdx)
     e74:	91 	xchgl	%ecx, %eax
     e75:	5c 	popq	%rsp
     e76:	05 b0 0a 01 00 	addl	$68272, %eax
     e7b:	00 00 	addb	%al, (%rax)
     e7d:	00 00 	addb	%al, (%rax)
     e7f:	81 00 00 00 00 00 	addl	$0, (%rax)
     e85:	00 00 	addb	%al, (%rax)
     e87:	08 69 00 	orb	%ch, (%rcx)
     e8a:	1c 69 	sbbb	$105, %al
     e8c:	00 00 	addb	%al, (%rax)
     e8e:	00 02 	addb	%al, (%rdx)
     e90:	91 	xchgl	%ecx, %eax
     e91:	60  <unknown>
     e92:	05 ba 0a 01 00 	addl	$68282, %eax
     e97:	00 00 	addb	%al, (%rax)
     e99:	00 00 	addb	%al, (%rax)
     e9b:	69 00 00 00 00 00 	imull	$0, (%rax), %eax
     ea1:	00 00 	addb	%al, (%rax)
     ea3:	02 79 03 	addb	3(%rcx), %bh
     ea6:	00 00 	addb	%al, (%rax)
     ea8:	1e  <unknown>
     ea9:	18 da 	sbbb	%bl, %dl
     eab:	00 00 	addb	%al, (%rax)
     ead:	00 02 	addb	%al, (%rdx)
     eaf:	91 	xchgl	%ecx, %eax
     eb0:	50 	pushq	%rax
     eb1:	00 00 	addb	%al, (%rax)
     eb3:	00 07 	addb	%al, (%rdi)
     eb5:	39 03 	cmpl	%eax, (%rbx)
     eb7:	00 00 	addb	%al, (%rax)
     eb9:	0b 69 00 	orl	(%rcx), %ebp
     ebc:	00 00 	addb	%al, (%rax)
     ebe:	24 0a 	andb	$10, %al
     ec0:	01 00 	addl	%eax, (%rax)
     ec2:	00 00 	addb	%al, (%rax)
     ec4:	00 00 	addb	%al, (%rax)
     ec6:	6c 	insb	%dx, %es:(%rdi)
     ec7:	00 00 	addb	%al, (%rax)
     ec9:	00 00 	addb	%al, (%rax)
     ecb:	00 00 	addb	%al, (%rax)
     ecd:	00 01 	addb	%al, (%rcx)
     ecf:	9c 	pushfq
     ed0:	23 02 	andl	(%rdx), %eax
     ed2:	00 00 	addb	%al, (%rax)
     ed4:	02 73 03 	addb	3(%rbx), %dh
     ed7:	00 00 	addb	%al, (%rax)
     ed9:	0d 0e 69 00 00 	orl	$26894, %eax
     ede:	00 02 	addb	%al, (%rdx)
     ee0:	91 	xchgl	%ecx, %eax
     ee1:	68 02 06 03 00 	pushq	$198146
     ee6:	00 0e 	addb	%cl, (%rsi)
     ee8:	0e  <unknown>
     ee9:	4f 00 00 	addb	%r8b, (%r8)
     eec:	00 02 	addb	%al, (%rdx)
     eee:	91 	xchgl	%ecx, %eax
     eef:	5c 	popq	%rsp
     ef0:	05 44 0a 01 00 	addl	$68164, %eax
     ef5:	00 00 	addb	%al, (%rax)
     ef7:	00 00 	addb	%al, (%rax)
     ef9:	46 00 00 	addb	%r8b, (%rax)
     efc:	00 00 	addb	%al, (%rax)
     efe:	00 00 	addb	%al, (%rax)
     f00:	00 08 	addb	%cl, (%rax)
     f02:	69 00 0f 69 00 00 	imull	$26895, (%rax), %eax
     f08:	00 02 	addb	%al, (%rdx)
     f0a:	91 	xchgl	%ecx, %eax
     f0b:	60  <unknown>
     f0c:	05 4e 0a 01 00 	addl	$68174, %eax
     f11:	00 00 	addb	%al, (%rax)
     f13:	00 00 	addb	%al, (%rax)
     f15:	2e 00 00 	addb	%al, %cs:(%rax)
     f18:	00 00 	addb	%al, (%rax)
     f1a:	00 00 	addb	%al, (%rax)
     f1c:	00 02 	addb	%al, (%rdx)
     f1e:	79 03 	jns	3 <video.c+0xf23>
     f20:	00 00 	addb	%al, (%rax)
     f22:	11 18 	adcl	%ebx, (%rax)
     f24:	da 00 	fiaddl	(%rax)
     f26:	00 00 	addb	%al, (%rax)
     f28:	02 91 50 00 00 00 	addb	80(%rcx), %dl
     f2e:	10 4c 01 00 	adcb	%cl, (%rcx,%rax)
     f32:	00 01 	addb	%al, (%rcx)
     f34:	06  <unknown>
     f35:	06  <unknown>
     f36:	0c 0a 	orb	$10, %al
     f38:	01 00 	addl	%eax, (%rax)
     f3a:	00 00 	addb	%al, (%rax)
     f3c:	00 00 	addb	%al, (%rax)
     f3e:	18 00 	sbbb	%al, (%rax)
     f40:	00 00 	addb	%al, (%rax)
     f42:	00 00 	addb	%al, (%rax)
     f44:	00 00 	addb	%al, (%rax)
     f46:	01 9c 06 7f 03 00 00 	addl	%ebx, 895(%rsi,%rax)
     f4d:	06  <unknown>
     f4e:	1d 3c 00 00 00 	sbbl	$60, %eax
     f53:	02 91 6c 00 00 d8 	addb	-671088532(%rcx), %dl
     f59:	01 00 	addl	%eax, (%rax)
     f5b:	00 05 00 01 08 6e 	addb	%al, 1846018304(%rip)
     f61:	04 00 	addb	$0, %al
     f63:	00 06 	addb	%al, (%rsi)
     f65:	3b 00 	cmpl	(%rax), %eax
     f67:	00 00 	addb	%al, (%rax)
     f69:	1d 62 02 00 00 	sbbl	$610, %eax
     f6e:	19 00 	sbbl	%eax, (%rax)
     f70:	00 00 	addb	%al, (%rax)
     f72:	88 0b 	movb	%cl, (%rbx)
     f74:	01 00 	addl	%eax, (%rax)
     f76:	00 00 	addb	%al, (%rax)
     f78:	00 00 	addb	%al, (%rax)
     f7a:	b4 01 	movb	$1, %ah
     f7c:	00 00 	addb	%al, (%rax)
     f7e:	00 00 	addb	%al, (%rax)
     f80:	00 00 	addb	%al, (%rax)
     f82:	cd 07 	int	$7
     f84:	00 00 	addb	%al, (%rax)
     f86:	01 01 	addl	%eax, (%rcx)
     f88:	08 5a 01 	orb	%bl, 1(%rdx)
     f8b:	00 00 	addb	%al, (%rax)
     f8d:	01 02 	addl	%eax, (%rdx)
     f8f:	07  <unknown>
     f90:	b8 01 00 00 01 	movl	$16777217, %eax
     f95:	04 07 	addb	$7, %al
     f97:	72 01 	jb	1 <video.c+0xf9a>
     f99:	00 00 	addb	%al, (%rax)
     f9b:	01 08 	addl	%ecx, (%rax)
     f9d:	07  <unknown>
     f9e:	6d 	insl	%dx, %es:(%rdi)
     f9f:	01 00 	addl	%eax, (%rax)
     fa1:	00 01 	addb	%al, (%rcx)
     fa3:	08 07 	orb	%al, (%rdi)
     fa5:	68 01 00 00 04 	pushq	$67108865
     faa:	0e  <unknown>
     fab:	00 00 	addb	%al, (%rax)
     fad:	00 03 	addb	%al, (%rbx)
     faf:	11 1c 4a 	adcl	%ebx, (%rdx,%rcx,2)
     fb2:	00 00 	addb	%al, (%rax)
     fb4:	00 01 	addb	%al, (%rcx)
     fb6:	01 06 	addl	%eax, (%rsi)
     fb8:	5c 	popq	%rsp
     fb9:	01 00 	addl	%eax, (%rax)
     fbb:	00 01 	addb	%al, (%rcx)
     fbd:	02 05 17 00 00 00 	addb	23(%rip), %al
     fc3:	07  <unknown>
     fc4:	04 05 	addb	$5, %al
     fc6:	69 6e 74 00 01 08 05 	imull	$84410624, 116(%rsi), %ebp
     fcd:	1e  <unknown>
     fce:	01 00 	addl	%eax, (%rax)
     fd0:	00 01 	addb	%al, (%rcx)
     fd2:	08 05 19 01 00 00 	orb	%al, 281(%rip)
     fd8:	08 10 	orb	%dl, (%rax)
     fda:	02 07 	addb	(%rdi), %al
     fdc:	09 a2 00 00 00 05 	orl	%esp, 83886080(%rdx)
     fe2:	c5 03 00  <unknown>
     fe5:	00 09 	addb	%cl, (%rcx)
     fe7:	0e  <unknown>
     fe8:	51 	pushq	%rcx
     fe9:	00 00 	addb	%al, (%rax)
     feb:	00 00 	addb	%al, (%rax)
     fed:	05 ed 00 00 00 	addl	$237, %eax
     ff2:	0a 0f 	orb	(%rdi), %cl
     ff4:	a2 00 00 00 08 00 09 08 51 	movabsb	%al, 5838926812624715776
     ffd:	00 00 	addb	%al, (%rax)
     fff:	00 04 ca 	addb	%al, (%rdx,%rcx,8)
    1002:	03 00 	addl	(%rax), %eax
    1004:	00 02 	addb	%al, (%rdx)
    1006:	0c 03 	orb	$3, %al
    1008:	80 00 00 	addb	$0, (%rax)
    100b:	00 0a 	addb	%cl, (%rdx)
    100d:	a8 03 	testb	$3, %al
    100f:	00 00 	addb	%al, (%rax)
    1011:	01 1e 	addl	%ebx, (%rsi)
    1013:	0a 51 00 	orb	(%rcx), %dl
    1016:	00 00 	addb	%al, (%rax)
    1018:	9c 	pushfq
    1019:	0c 01 	orb	$1, %al
    101b:	00 00 	addb	%al, (%rax)
    101d:	00 00 	addb	%al, (%rax)
    101f:	00 a0 00 00 00 00 	addb	%ah, (%rax)
    1025:	00 00 	addb	%al, (%rax)
    1027:	00 01 	addb	%al, (%rcx)
    1029:	9c 	pushfq
    102a:	1e  <unknown>
    102b:	01 00 	addl	%eax, (%rax)
    102d:	00 02 	addb	%al, (%rdx)
    102f:	9a  <unknown>
    1030:	03 00 	addl	(%rax), %eax
    1032:	00 1e 	addb	%bl, (%rsi)
    1034:	26 a8 00 	testb	$0, %al
    1037:	00 00 	addb	%al, (%rax)
    1039:	02 91 50 03 69 00 	addb	6882128(%rcx), %dl
    103f:	20 12 	andb	%dl, (%rdx)
    1041:	3c 00 	cmpb	$0, %al
    1043:	00 00 	addb	%al, (%rax)
    1045:	02 91 6c 03 6a 00 	addb	6947692(%rcx), %dl
    104b:	20 15 3c 00 00 00 	andb	%dl, 60(%rip)
    1051:	02 91 68 0b da 0c 	addb	215616360(%rcx), %dl
    1057:	01 00 	addl	%eax, (%rax)
    1059:	00 00 	addb	%al, (%rax)
    105b:	00 00 	addb	%al, (%rax)
    105d:	3f  <unknown>
    105e:	00 00 	addb	%al, (%rax)
    1060:	00 00 	addb	%al, (%rax)
    1062:	00 00 	addb	%al, (%rax)
    1064:	00 0c a1 	addb	%cl, (%rcx,%riz,4)
    1067:	03 00 	addl	(%rax), %eax
    1069:	00 01 	addb	%al, (%rcx)
    106b:	27  <unknown>
    106c:	1f  <unknown>
    106d:	43 00 00 	addb	%al, (%r8)
    1070:	00 02 	addb	%al, (%rdx)
    1072:	91 	xchgl	%ecx, %eax
    1073:	60  <unknown>
    1074:	00 00 	addb	%al, (%rax)
    1076:	0d 8a 03 00 00 	orl	$906, %eax
    107b:	01 0e 	addl	%ecx, (%rsi)
    107d:	06  <unknown>
    107e:	e4 0b 	inb	$11, %al
    1080:	01 00 	addl	%eax, (%rax)
    1082:	00 00 	addb	%al, (%rax)
    1084:	00 00 	addb	%al, (%rax)
    1086:	b8 00 00 00 00 	movl	$0, %eax
    108b:	00 00 	addb	%al, (%rax)
    108d:	00 01 	addb	%al, (%rcx)
    108f:	9c 	pushfq
    1090:	83 01 00 	addl	$0, (%rcx)
    1093:	00 02 	addb	%al, (%rdx)
    1095:	9a  <unknown>
    1096:	03 00 	addl	(%rax), %eax
    1098:	00 0e 	addb	%cl, (%rsi)
    109a:	19 a8 00 00 00 02 	sbbl	%ebp, 33554432(%rax)
    10a0:	91 	xchgl	%ecx, %eax
    10a1:	50 	pushq	%rax
    10a2:	02 f4 	addb	%ah, %dh
    10a4:	05 00 00 0e 2f 	addl	$789446656, %eax
    10a9:	43 00 00 	addb	%al, (%r8)
    10ac:	00 02 	addb	%al, (%rdx)
    10ae:	91 	xchgl	%ecx, %eax
    10af:	48 02 94 03 00 00 0e 3a 	addb	973996032(%rbx,%rax), %dl
    10b7:	6b 00 00 	imull	$0, (%rax), %eax
    10ba:	00 02 	addb	%al, (%rdx)
    10bc:	91 	xchgl	%ecx, %eax
    10bd:	44 03 69 64 	addl	100(%rcx), %r13d
    10c1:	78 00 	js	0 <video.c+0x10c3>
    10c3:	11 13 	adcl	%edx, (%rbx)
    10c5:	43 00 00 	addb	%al, (%r8)
    10c8:	00 02 	addb	%al, (%rdx)
    10ca:	91 	xchgl	%ecx, %eax
    10cb:	68 03 6f 66 66 	pushq	$1717989123
    10d0:	00 12 	addb	%dl, (%rdx)
    10d2:	13 43 00 	adcl	(%rbx), %eax
    10d5:	00 00 	addb	%al, (%rax)
    10d7:	02 91 60 00 0e bb 	addb	-1156710304(%rcx), %dl
    10dd:	03 00 	addl	(%rax), %eax
    10df:	00 01 	addb	%al, (%rcx)
    10e1:	07  <unknown>
    10e2:	05 6b 00 00 00 	addl	$107, %eax
    10e7:	88 0b 	movb	%cl, (%rbx)
    10e9:	01 00 	addl	%eax, (%rax)
    10eb:	00 00 	addb	%al, (%rax)
    10ed:	00 00 	addb	%al, (%rax)
    10ef:	5c 	popq	%rsp
    10f0:	00 00 	addb	%al, (%rax)
    10f2:	00 00 	addb	%al, (%rax)
    10f4:	00 00 	addb	%al, (%rax)
    10f6:	00 01 	addb	%al, (%rcx)
    10f8:	9c 	pushfq
    10f9:	02 9a 03 00 00 07 	addb	117440515(%rdx), %bl
    10ff:	18 a8 00 00 00 02 	sbbb	%ch, 33554432(%rax)
    1105:	91 	xchgl	%ecx, %eax
    1106:	40 02 f4 	addb	%spl, %sil
    1109:	05 00 00 07 2e 	addl	$772210688, %eax
    110e:	43 00 00 	addb	%al, (%r8)
    1111:	00 03 	addb	%al, (%rbx)
    1113:	91 	xchgl	%ecx, %eax
    1114:	b8 7f 03 69 64 	movl	$1684603775, %eax
    1119:	78 00 	js	0 <video.c+0x111b>
    111b:	09 13 	orl	%edx, (%rbx)
    111d:	43 00 00 	addb	%al, (%r8)
    1120:	00 02 	addb	%al, (%rdx)
    1122:	91 	xchgl	%ecx, %eax
    1123:	58 	popq	%rax
    1124:	03 6f 66 	addl	102(%rdi), %ebp
    1127:	66 00 0a 	addb	%cl, (%rdx)
    112a:	13 43 00 	adcl	(%rbx), %eax
    112d:	00 00 	addb	%al, (%rax)
    112f:	02 91 50 00 00 03 	addb	50331728(%rcx), %dl
    1135:	03 00 	addl	(%rax), %eax
    1137:	00 05 00 01 08 62 	addb	%al, 1644691712(%rip)
    113d:	05 00 00 0f 3b 	addl	$990838784, %eax
    1142:	00 00 	addb	%al, (%rax)
    1144:	00 1d c2 02 00 00 	addb	%bl, 706(%rip)
    114a:	19 00 	sbbl	%eax, (%rax)
    114c:	00 00 	addb	%al, (%rax)
    114e:	3c 0d 	cmpb	$13, %al
    1150:	01 00 	addl	%eax, (%rax)
    1152:	00 00 	addb	%al, (%rax)
    1154:	00 00 	addb	%al, (%rax)
    1156:	1a 02 	sbbb	(%rdx), %al
    1158:	00 00 	addb	%al, (%rax)
    115a:	00 00 	addb	%al, (%rax)
    115c:	00 00 	addb	%al, (%rax)
    115e:	d2 08 	rorb	%cl, (%rax)
    1160:	00 00 	addb	%al, (%rax)
    1162:	01 01 	addl	%eax, (%rcx)
    1164:	08 5a 01 	orb	%bl, 1(%rdx)
    1167:	00 00 	addb	%al, (%rax)
    1169:	01 02 	addl	%eax, (%rdx)
    116b:	07  <unknown>
    116c:	b8 01 00 00 01 	movl	$16777217, %eax
    1171:	04 07 	addb	$7, %al
    1173:	72 01 	jb	1 <video.c+0x1176>
    1175:	00 00 	addb	%al, (%rax)
    1177:	05 7f 01 00 00 	addl	$383, %eax
    117c:	02 0b 	addb	(%rbx), %cl
    117e:	16  <unknown>
    117f:	3c 00 	cmpb	$0, %al
    1181:	00 00 	addb	%al, (%rax)
    1183:	01 08 	addl	%ecx, (%rax)
    1185:	07  <unknown>
    1186:	6d 	insl	%dx, %es:(%rdi)
    1187:	01 00 	addl	%eax, (%rax)
    1189:	00 01 	addb	%al, (%rcx)
    118b:	08 07 	orb	%al, (%rdi)
    118d:	68 01 00 00 05 	pushq	$83886081
    1192:	0e  <unknown>
    1193:	00 00 	addb	%al, (%rax)
    1195:	00 02 	addb	%al, (%rdx)
    1197:	11 1c 56 	adcl	%ebx, (%rsi,%rdx,2)
    119a:	00 00 	addb	%al, (%rax)
    119c:	00 01 	addb	%al, (%rcx)
    119e:	01 06 	addl	%eax, (%rsi)
    11a0:	5c 	popq	%rsp
    11a1:	01 00 	addl	%eax, (%rax)
    11a3:	00 01 	addb	%al, (%rcx)
    11a5:	02 05 17 00 00 00 	addb	23(%rip), %al
    11ab:	10 04 05 69 6e 74 00 	adcb	%al, 7630441(,%rax)
    11b2:	01 08 	addl	%ecx, (%rax)
    11b4:	05 1e 01 00 00 	addl	$286, %eax
    11b9:	01 08 	addl	%ecx, (%rax)
    11bb:	05 19 01 00 00 	addl	$281, %eax
    11c0:	11 08 	adcl	%ecx, (%rax)
    11c2:	12 10 	adcb	(%rax), %dl
    11c4:	03 07 	addl	(%rdi), %eax
    11c6:	09 b0 00 00 00 07 	orl	%esi, 117440512(%rax)
    11cc:	c5 03 00  <unknown>
    11cf:	00 09 	addb	%cl, (%rcx)
    11d1:	0e  <unknown>
    11d2:	5d 	popq	%rbp
    11d3:	00 00 	addb	%al, (%rax)
    11d5:	00 00 	addb	%al, (%rax)
    11d7:	07  <unknown>
    11d8:	ed 	inl	%dx, %eax
    11d9:	00 00 	addb	%al, (%rax)
    11db:	00 0a 	addb	%cl, (%rdx)
    11dd:	0f b0 00 	cmpxchgb	%al, (%rax)
    11e0:	00 00 	addb	%al, (%rax)
    11e2:	08 00 	orb	%al, (%rax)
    11e4:	08 5d 00 	orb	%bl, (%rbp)
    11e7:	00 00 	addb	%al, (%rax)
    11e9:	05 ca 03 00 00 	addl	$970, %eax
    11ee:	03 0c 03 	addl	(%rbx,%rax), %ecx
    11f1:	8e 00 	movw	(%rax), %es
    11f3:	00 00 	addb	%al, (%rax)
    11f5:	09 27 	orl	%esp, (%rdi)
    11f7:	04 00 	addb	$0, %al
    11f9:	00 0c b5 00 00 00 09 	addb	%cl, 150994944(,%rsi,4)
    1200:	3a 04 00 	cmpb	(%rax,%rax), %al
    1203:	00 0d 43 00 00 00 	addb	%cl, 67(%rip)
    1209:	0a c1 	orb	%cl, %al
    120b:	00 00 	addb	%al, (%rax)
    120d:	00 04 09 	addb	%al, (%rcx,%rcx)
    1210:	03 f0 	addl	%eax, %esi
    1212:	33 01 	xorl	(%rcx), %eax
    1214:	00 00 	addb	%al, (%rax)
    1216:	00 00 	addb	%al, (%rax)
    1218:	00 0a 	addb	%cl, (%rdx)
    121a:	cb 	lretl
    121b:	00 00 	addb	%al, (%rax)
    121d:	00 05 09 03 00 34 	addb	%al, 872416009(%rip)
    1223:	01 00 	addl	%eax, (%rax)
    1225:	00 00 	addb	%al, (%rax)
    1227:	00 00 	addb	%al, (%rax)
    1229:	0b a8 03 00 00 10 	orl	268435459(%rax), %ebp
    122f:	0a 5d 00 	orb	(%rbp), %bl
    1232:	00 00 	addb	%al, (%rax)
    1234:	0a 01 	orb	(%rcx), %al
    1236:	00 00 	addb	%al, (%rax)
    1238:	02 b5 00 00 00 00 	addb	(%rbp), %dh
    123e:	0b bb 03 00 00 0e 	orl	234881027(%rbx), %edi
    1244:	05 77 00 00 00 	addl	$119, %eax
    1249:	24 01 	andb	$1, %al
    124b:	00 00 	addb	%al, (%rax)
    124d:	02 b5 00 00 00 02 	addb	33554432(%rbp), %dh
    1253:	4f 00 00 	addb	%r8b, (%r8)
    1256:	00 00 	addb	%al, (%rax)
    1258:	0c 8a 	orb	$-118, %al
    125a:	03 00 	addl	(%rax), %eax
    125c:	00 03 	addb	%al, (%rbx)
    125e:	0f 3f  <unknown>
    1260:	01 00 	addl	%eax, (%rax)
    1262:	00 02 	addb	%al, (%rdx)
    1264:	b5 00 	movb	$0, %ch
    1266:	00 00 	addb	%al, (%rax)
    1268:	02 4f 00 	addb	(%rdi), %cl
    126b:	00 00 	addb	%al, (%rax)
    126d:	02 77 00 	addb	(%rdi), %dh
    1270:	00 00 	addb	%al, (%rax)
    1272:	00 0c bf 	addb	%cl, (%rdi,%rdi,4)
    1275:	02 00 	addb	(%rax), %al
    1277:	00 05 28 5a 01 00 	addb	%al, 88616(%rip)
    127d:	00 02 	addb	%al, (%rdx)
    127f:	5a 	popq	%rdx
    1280:	01 00 	addl	%eax, (%rax)
    1282:	00 02 	addb	%al, (%rdx)
    1284:	2e 00 00 	addb	%al, %cs:(%rax)
    1287:	00 02 	addb	%al, (%rdx)
    1289:	5d 	popq	%rbp
    128a:	00 00 	addb	%al, (%rax)
    128c:	00 00 	addb	%al, (%rax)
    128e:	08 2e 	orb	%ch, (%rsi)
    1290:	00 00 	addb	%al, (%rax)
    1292:	00 13 	addb	%dl, (%rbx)
    1294:	39 03 	cmpl	%eax, (%rbx)
    1296:	00 00 	addb	%al, (%rax)
    1298:	06  <unknown>
    1299:	16  <unknown>
    129a:	0a 5d 00 	orb	(%rbp), %bl
    129d:	00 00 	addb	%al, (%rax)
    129f:	71 01 	jno	1 <video.c+0x12a2>
    12a1:	00 00 	addb	%al, (%rax)
    12a3:	14 00 	adcb	$0, %al
    12a5:	15 d3 03 00 00 	adcl	$979, %eax
    12aa:	01 3c 07 	addl	%edi, (%rdi,%rax)
    12ad:	8c 00 	movw	%es, (%rax)
    12af:	00 00 	addb	%al, (%rax)
    12b1:	07  <unknown>
    12b2:	0f 01 00 	sgdtq	(%rax)
    12b5:	00 00 	addb	%al, (%rax)
    12b7:	00 00 	addb	%al, (%rax)
    12b9:	4f 00 00 	addb	%r8b, (%r8)
    12bc:	00 00 	addb	%al, (%rax)
    12be:	00 00 	addb	%al, (%rax)
    12c0:	00 01 	addb	%al, (%rcx)
    12c2:	9c 	pushfq
    12c3:	a2 01 00 00 06 f4 05 00 00 	movabsb	%al, 6545630822401
    12cc:	41 0e  <unknown>
    12ce:	5d 	popq	%rbp
    12cf:	00 00 	addb	%al, (%rax)
    12d1:	00 02 	addb	%al, (%rdx)
    12d3:	91 	xchgl	%ecx, %eax
    12d4:	68 00 16 e7 03 	pushq	$65476096
    12d9:	00 00 	addb	%al, (%rax)
    12db:	01 34 0a 	addl	%esi, (%rdx,%rcx)
    12de:	5d 	popq	%rbp
    12df:	00 00 	addb	%al, (%rax)
    12e1:	00 d7 	addb	%dl, %bh
    12e3:	0e  <unknown>
    12e4:	01 00 	addl	%eax, (%rax)
    12e6:	00 00 	addb	%al, (%rax)
    12e8:	00 00 	addb	%al, (%rax)
    12ea:	30 00 	xorb	%al, (%rax)
    12ec:	00 00 	addb	%al, (%rax)
    12ee:	00 00 	addb	%al, (%rax)
    12f0:	00 00 	addb	%al, (%rax)
    12f2:	01 9c 17 fb 03 00 00 	addl	%ebx, 1019(%rdi,%rdx)
    12f9:	01 2c 0a 	addl	%ebp, (%rdx,%rcx)
    12fc:	43 00 00 	addb	%al, (%r8)
    12ff:	00 9b 0e 01 00 00 	addb	%bl, 270(%rbx)
    1305:	00 00 	addb	%al, (%rax)
    1307:	00 3c 00 	addb	%bh, (%rax,%rax)
    130a:	00 00 	addb	%al, (%rax)
    130c:	00 00 	addb	%al, (%rax)
    130e:	00 00 	addb	%al, (%rax)
    1310:	01 9c f1 01 00 00 03 	addl	%ebx, 50331649(%rcx,%rsi,8)
    1317:	14 04 	adcb	$4, %al
    1319:	00 00 	addb	%al, (%rax)
    131b:	2c 22 	subb	$34, %al
    131d:	5d 	popq	%rbp
    131e:	00 00 	addb	%al, (%rax)
    1320:	00 02 	addb	%al, (%rdx)
    1322:	91 	xchgl	%ecx, %eax
    1323:	68 00 0d 63 04 	pushq	$73600256
    1328:	00 00 	addb	%al, (%rax)
    132a:	1f  <unknown>
    132b:	24 0e 	andb	$14, %al
    132d:	01 00 	addl	%eax, (%rax)
    132f:	00 00 	addb	%al, (%rax)
    1331:	00 00 	addb	%al, (%rax)
    1333:	77 00 	ja	0 <video.c+0x1335>
    1335:	00 00 	addb	%al, (%rax)
    1337:	00 00 	addb	%al, (%rax)
    1339:	00 00 	addb	%al, (%rax)
    133b:	01 9c 67 02 00 00 03 	addl	%ebx, 50331650(%rdi,%riz,2)
    1342:	1f  <unknown>
    1343:	04 00 	addb	$0, %al
    1345:	00 1f 	addb	%bl, (%rdi)
    1347:	1f  <unknown>
    1348:	b0 00 	movb	$0, %al
    134a:	00 00 	addb	%al, (%rax)
    134c:	02 91 58 03 0a 04 	addb	67765080(%rcx), %dl
    1352:	00 00 	addb	%al, (%rax)
    1354:	1f  <unknown>
    1355:	31 5d 00 	xorl	%ebx, (%rbp)
    1358:	00 00 	addb	%al, (%rax)
    135a:	02 91 50 04 3e 0e 	addb	238945360(%rcx), %dl
    1360:	01 00 	addl	%eax, (%rax)
    1362:	00 00 	addb	%al, (%rax)
    1364:	00 00 	addb	%al, (%rax)
    1366:	5a 	popq	%rdx
    1367:	00 00 	addb	%al, (%rax)
    1369:	00 00 	addb	%al, (%rax)
    136b:	00 00 	addb	%al, (%rax)
    136d:	00 0e 	addb	%cl, (%rsi)
    136f:	69 00 24 5d 00 00 	imull	$23844, (%rax), %eax
    1375:	00 02 	addb	%al, (%rdx)
    1377:	91 	xchgl	%ecx, %eax
    1378:	68 04 48 0e 01 	pushq	$17713156
    137d:	00 00 	addb	%al, (%rax)
    137f:	00 00 	addb	%al, (%rax)
    1381:	00 3f 	addb	%bh, (%rdi)
    1383:	00 00 	addb	%al, (%rax)
    1385:	00 00 	addb	%al, (%rax)
    1387:	00 00 	addb	%al, (%rax)
    1389:	00 06 	addb	%al, (%rsi)
    138b:	e4 06 	inb	$6, %al
    138d:	00 00 	addb	%al, (%rax)
    138f:	26 12 5d 00 	adcb	%es:(%rbp), %bl
    1393:	00 00 	addb	%al, (%rax)
    1395:	02 91 60 00 00 00 	addb	96(%rcx), %dl
    139b:	0d 65 04 00 00 	orl	$1125, %eax
    13a0:	12 ad 0d 01 00 00 	adcb	269(%rbp), %ch
    13a6:	00 00 	addb	%al, (%rax)
    13a8:	00 77 00 	addb	%dh, (%rdi)
    13ab:	00 00 	addb	%al, (%rax)
    13ad:	00 00 	addb	%al, (%rax)
    13af:	00 00 	addb	%al, (%rax)
    13b1:	01 9c dd 02 00 00 03 	addl	%ebx, 50331650(%rbp,%rbx,8)
    13b8:	1f  <unknown>
    13b9:	04 00 	addb	$0, %al
    13bb:	00 12 	addb	%dl, (%rdx)
    13bd:	1d b0 00 00 00 	sbbl	$176, %eax
    13c2:	02 91 58 03 0a 04 	addb	67765080(%rcx), %dl
    13c8:	00 00 	addb	%al, (%rax)
    13ca:	12 2f 	adcb	(%rdi), %ch
    13cc:	5d 	popq	%rbp
    13cd:	00 00 	addb	%al, (%rax)
    13cf:	00 02 	addb	%al, (%rdx)
    13d1:	91 	xchgl	%ecx, %eax
    13d2:	50 	pushq	%rax
    13d3:	04 c7 	addb	$-57, %al
    13d5:	0d 01 00 00 00 	orl	$1, %eax
    13da:	00 00 	addb	%al, (%rax)
    13dc:	5a 	popq	%rdx
    13dd:	00 00 	addb	%al, (%rax)
    13df:	00 00 	addb	%al, (%rax)
    13e1:	00 00 	addb	%al, (%rax)
    13e3:	00 0e 	addb	%cl, (%rsi)
    13e5:	69 00 17 5d 00 00 	imull	$23831, (%rax), %eax
    13eb:	00 02 	addb	%al, (%rdx)
    13ed:	91 	xchgl	%ecx, %eax
    13ee:	68 04 d1 0d 01 	pushq	$17682692
    13f3:	00 00 	addb	%al, (%rax)
    13f5:	00 00 	addb	%al, (%rax)
    13f7:	00 3f 	addb	%bh, (%rdi)
    13f9:	00 00 	addb	%al, (%rax)
    13fb:	00 00 	addb	%al, (%rax)
    13fd:	00 00 	addb	%al, (%rax)
    13ff:	00 06 	addb	%al, (%rsi)
    1401:	e4 06 	inb	$6, %al
    1403:	00 00 	addb	%al, (%rax)
    1405:	19 12 	sbbl	%edx, (%rdx)
    1407:	5d 	popq	%rbp
    1408:	00 00 	addb	%al, (%rax)
    140a:	00 02 	addb	%al, (%rdx)
    140c:	91 	xchgl	%ecx, %eax
    140d:	60  <unknown>
    140e:	00 00 	addb	%al, (%rax)
    1410:	00 18 	addb	%bl, (%rax)
    1412:	98 	cwtl
    1413:	01 00 	addl	%eax, (%rax)
    1415:	00 01 	addb	%al, (%rcx)
    1417:	07  <unknown>
    1418:	06  <unknown>
    1419:	3c 0d 	cmpb	$13, %al
    141b:	01 00 	addl	%eax, (%rax)
    141d:	00 00 	addb	%al, (%rax)
    141f:	00 00 	addb	%al, (%rax)
    1421:	71 00 	jno	0 <video.c+0x1423>
    1423:	00 00 	addb	%al, (%rax)
    1425:	00 00 	addb	%al, (%rax)
    1427:	00 00 	addb	%al, (%rax)
    1429:	01 9c 03 f7 01 00 00 	addl	%ebx, 503(%rbx,%rax)
    1430:	07  <unknown>
    1431:	2f  <unknown>
    1432:	5d 	popq	%rbp
    1433:	00 00 	addb	%al, (%rax)
    1435:	00 02 	addb	%al, (%rdx)
    1437:	91 	xchgl	%ecx, %eax
    1438:	68 00 00 10 02 	pushq	$34603008
    143d:	00 00 	addb	%al, (%rax)
    143f:	05 00 01 08 09 	addl	$151519488, %eax
    1444:	07  <unknown>
    1445:	00 00 	addb	%al, (%rax)
    1447:	07  <unknown>
    1448:	3b 00 	cmpl	(%rax), %eax
    144a:	00 00 	addb	%al, (%rax)
    144c:	1d 89 03 00 00 	sbbl	$905, %eax
    1451:	19 00 	sbbl	%eax, (%rax)
    1453:	00 00 	addb	%al, (%rax)
    1455:	7a 0f 	jp	15 <video.c+0x1466>
    1457:	01 00 	addl	%eax, (%rax)
    1459:	00 00 	addb	%al, (%rax)
    145b:	00 00 	addb	%al, (%rax)
    145d:	11 02 	adcl	%eax, (%rdx)
    145f:	00 00 	addb	%al, (%rax)
    1461:	00 00 	addb	%al, (%rax)
    1463:	00 00 	addb	%al, (%rax)
    1465:	39 0a 	cmpl	%ecx, (%rdx)
    1467:	00 00 	addb	%al, (%rax)
    1469:	01 01 	addl	%eax, (%rcx)
    146b:	08 5a 01 	orb	%bl, 1(%rdx)
    146e:	00 00 	addb	%al, (%rax)
    1470:	03 f4 	addl	%esp, %esi
    1472:	00 00 	addb	%al, (%rax)
    1474:	00 02 	addb	%al, (%rdx)
    1476:	05 17 2e 00 00 	addl	$11799, %eax
    147b:	00 01 	addb	%al, (%rcx)
    147d:	02 07 	addb	(%rdi), %al
    147f:	b8 01 00 00 03 	movl	$50331649, %eax
    1484:	8f 01 	popq	(%rcx)
    1486:	00 00 	addb	%al, (%rax)
    1488:	02 08 	addb	(%rax), %cl
    148a:	18 41 00 	sbbb	%al, (%rcx)
    148d:	00 00 	addb	%al, (%rax)
    148f:	01 04 07 	addl	%eax, (%rdi,%rax)
    1492:	72 01 	jb	1 <video.c+0x1495>
    1494:	00 00 	addb	%al, (%rax)
    1496:	03 7f 01 	addl	1(%rdi), %edi
    1499:	00 00 	addb	%al, (%rax)
    149b:	02 0b 	addb	(%rbx), %cl
    149d:	16  <unknown>
    149e:	54 	pushq	%rsp
    149f:	00 00 	addb	%al, (%rax)
    14a1:	00 01 	addb	%al, (%rcx)
    14a3:	08 07 	orb	%al, (%rdi)
    14a5:	6d 	insl	%dx, %es:(%rdi)
    14a6:	01 00 	addl	%eax, (%rax)
    14a8:	00 01 	addb	%al, (%rcx)
    14aa:	08 07 	orb	%al, (%rdi)
    14ac:	68 01 00 00 03 	pushq	$50331649
    14b1:	0e  <unknown>
    14b2:	00 00 	addb	%al, (%rax)
    14b4:	00 02 	addb	%al, (%rdx)
    14b6:	11 1c 6e 	adcl	%ebx, (%rsi,%rbp,2)
    14b9:	00 00 	addb	%al, (%rax)
    14bb:	00 01 	addb	%al, (%rcx)
    14bd:	01 06 	addl	%eax, (%rsi)
    14bf:	5c 	popq	%rsp
    14c0:	01 00 	addl	%eax, (%rax)
    14c2:	00 01 	addb	%al, (%rcx)
    14c4:	02 05 17 00 00 00 	addb	23(%rip), %al
    14ca:	08 04 05 69 6e 74 00 	orb	%al, 7630441(,%rax)
    14d1:	01 08 	addl	%ecx, (%rax)
    14d3:	05 1e 01 00 00 	addl	$286, %eax
    14d8:	01 08 	addl	%ecx, (%rax)
    14da:	05 19 01 00 00 	addl	$281, %eax
    14df:	05 08 08 f4 00 	addl	$15992840, %eax
    14e4:	00 00 	addb	%al, (%rax)
    14e6:	02 fe 	addb	%dh, %bh
    14e8:	04 00 	addb	$0, %al
    14ea:	00 0a 	addb	%cl, (%rdx)
    14ec:	0e  <unknown>
    14ed:	48 00 00 	addb	%al, (%rax)
    14f0:	00 00 	addb	%al, (%rax)
    14f2:	02 c3 	addb	%bl, %al
    14f4:	04 00 	addb	$0, %al
    14f6:	00 0b 	addb	%cl, (%rbx)
    14f8:	0e  <unknown>
    14f9:	48 00 00 	addb	%al, (%rax)
    14fc:	00 02 	addb	%al, (%rdx)
    14fe:	02 e6 	addb	%dh, %ah
    1500:	04 00 	addb	$0, %al
    1502:	00 0c 0d 35 00 00 00 	addb	%cl, 53(,%rcx)
    1509:	04 02 	addb	$2, %al
    150b:	82  <unknown>
    150c:	04 00 	addb	$0, %al
    150e:	00 0d 0d 35 00 00 	addb	%cl, 13581(%rip)
    1514:	00 05 02 77 04 00 	addb	%al, 292610(%rip)
    151a:	00 0e 	addb	%cl, (%rsi)
    151c:	0d 35 00 00 00 	orl	$53, %eax
    1521:	06  <unknown>
    1522:	02 a7 04 00 00 0f 	addb	251658244(%rdi), %ah
    1528:	0d 35 00 00 00 	orl	$53, %eax
    152d:	07  <unknown>
    152e:	00 03 	addb	%al, (%rbx)
    1530:	9c 	pushfq
    1531:	04 00 	addb	$0, %al
    1533:	00 03 	addb	%al, (%rbx)
    1535:	10 1b 	adcb	%bl, (%rbx)
    1537:	a4 	movsb	(%rsi), %es:(%rdi)
    1538:	00 00 	addb	%al, (%rax)
    153a:	00 05 0a 12 20 01 	addb	%al, 18878986(%rip)
    1540:	00 00 	addb	%al, (%rax)
    1542:	02 b6 04 00 00 14 	addb	335544324(%rsi), %dh
    1548:	0e  <unknown>
    1549:	48 00 00 	addb	%al, (%rax)
    154c:	00 00 	addb	%al, (%rax)
    154e:	02 d7 	addb	%bh, %dl
    1550:	04 00 	addb	$0, %al
    1552:	00 15 11 20 01 00 	addb	%dl, 73745(%rip)
    1558:	00 02 	addb	%al, (%rdx)
    155a:	00 06 	addb	%al, (%rsi)
    155c:	f4 	hlt
    155d:	00 00 	addb	%al, (%rax)
    155f:	00 03 	addb	%al, (%rbx)
    1561:	95 	xchgl	%ebp, %eax
    1562:	04 00 	addb	$0, %al
    1564:	00 03 	addb	%al, (%rbx)
    1566:	16  <unknown>
    1567:	1b 00 	sbbl	(%rax), %eax
    1569:	01 00 	addl	%eax, (%rax)
    156b:	00 09 	addb	%cl, (%rcx)
    156d:	f4 	hlt
    156e:	00 00 	addb	%al, (%rax)
    1570:	00 41 01 	addb	%al, 1(%rcx)
    1573:	00 00 	addb	%al, (%rax)
    1575:	0a 67 00 	orb	(%rdi), %ah
    1578:	00 00 	addb	%al, (%rax)
    157a:	04 00 	addb	$0, %al
    157c:	0b cc 	orl	%esp, %ecx
    157e:	04 00 	addb	$0, %al
    1580:	00 01 	addb	%al, (%rcx)
    1582:	05 0c 31 01 00 	addl	$78092, %eax
    1587:	00 09 	addb	%cl, (%rcx)
    1589:	03 20 	addl	(%rax), %esp
    158b:	34 01 	xorb	$1, %al
    158d:	00 00 	addb	%al, (%rax)
    158f:	00 00 	addb	%al, (%rax)
    1591:	00 0c de 	addb	%cl, (%rsi,%rbx,8)
    1594:	04 00 	addb	$0, %al
    1596:	00 01 	addb	%al, (%rcx)
    1598:	03 0d 69 01 00 00 	addl	361(%rip), %ecx
    159e:	0d 69 01 00 00 	orl	$361, %eax
    15a3:	00 06 	addb	%al, (%rsi)
    15a5:	75 00 	jne	0 <video.c+0x15a7>
    15a7:	00 00 	addb	%al, (%rax)
    15a9:	0e  <unknown>
    15aa:	f2 04 00 	repne		addb	$0, %al
    15ad:	00 01 	addb	%al, (%rcx)
    15af:	17  <unknown>
    15b0:	06  <unknown>
    15b1:	7b 10 	jnp	16 <video.c+0x15c3>
    15b3:	01 00 	addl	%eax, (%rax)
    15b5:	00 00 	addb	%al, (%rax)
    15b7:	00 00 	addb	%al, (%rax)
    15b9:	10 01 	adcb	%al, (%rcx)
    15bb:	00 00 	addb	%al, (%rax)
    15bd:	00 00 	addb	%al, (%rax)
    15bf:	00 00 	addb	%al, (%rax)
    15c1:	01 9c db 01 00 00 04 	addl	%ebx, 67108865(%rbx,%rbx,8)
    15c8:	d7 	xlatb
    15c9:	04 00 	addb	$0, %al
    15cb:	00 1e 	addb	%bl, (%rsi)
    15cd:	20 01 	andb	%al, (%rcx)
    15cf:	00 00 	addb	%al, (%rax)
    15d1:	02 91 68 04 bc 04 	addb	79430760(%rcx), %dl
    15d7:	00 00 	addb	%al, (%rax)
    15d9:	2e 35 00 00 00 02 	xorl	$33554432, %eax
    15df:	91 	xchgl	%ecx, %eax
    15e0:	64 04 b1 	addb	$-79, %al
    15e3:	04 00 	addb	$0, %al
    15e5:	00 3f 	addb	%bh, (%rdi)
    15e7:	75 00 	jne	0 <video.c+0x15e9>
    15e9:	00 00 	addb	%al, (%rax)
    15eb:	02 91 58 04 b6 04 	addb	79037528(%rcx), %dl
    15f1:	00 00 	addb	%al, (%rax)
    15f3:	4e 5b 	popq	%rbx
    15f5:	00 00 	addb	%al, (%rax)
    15f7:	00 02 	addb	%al, (%rdx)
    15f9:	91 	xchgl	%ecx, %eax
    15fa:	60  <unknown>
    15fb:	04 82 	addb	$-126, %al
    15fd:	04 00 	addb	$0, %al
    15ff:	00 5d 35 	addb	%bl, 53(%rbp)
    1602:	00 00 	addb	%al, (%rax)
    1604:	00 02 	addb	%al, (%rdx)
    1606:	91 	xchgl	%ecx, %eax
    1607:	54 	pushq	%rsp
    1608:	04 89 	addb	$-119, %al
    160a:	04 00 	addb	$0, %al
    160c:	00 6d 35 	addb	%ch, 53(%rbp)
    160f:	00 00 	addb	%al, (%rax)
    1611:	00 02 	addb	%al, (%rdx)
    1613:	91 	xchgl	%ecx, %eax
    1614:	50 	pushq	%rax
    1615:	00 0f 	addb	%cl, (%rdi)
    1617:	26 02 00 	addb	%es:(%rax), %al
    161a:	00 01 	addb	%al, (%rcx)
    161c:	07  <unknown>
    161d:	06  <unknown>
    161e:	7a 0f 	jp	15 <video.c+0x162f>
    1620:	01 00 	addl	%eax, (%rax)
    1622:	00 00 	addb	%al, (%rax)
    1624:	00 00 	addb	%al, (%rax)
    1626:	01 01 	addl	%eax, (%rcx)
    1628:	00 00 	addb	%al, (%rax)
    162a:	00 00 	addb	%al, (%rax)
    162c:	00 00 	addb	%al, (%rax)
    162e:	01 9c 10 72 04 00 00 	addl	%ebx, 1138(%rax,%rdx)
    1635:	01 09 	addl	%ecx, (%rcx)
    1637:	0c 25 	orb	$37, %al
    1639:	01 00 	addl	%eax, (%rax)
    163b:	00 02 	addb	%al, (%rdx)
    163d:	91 	xchgl	%ecx, %eax
    163e:	66 11 f2 	adcw	%si, %dx
    1641:	04 00 	addb	$0, %al
    1643:	00 01 	addb	%al, (%rcx)
    1645:	0d 05 8f 00 00 	orl	$36613, %eax
    164a:	00 12 	addb	%dl, (%rdx)
    164c:	00 00 	addb	%al, (%rax)
    164e:	00 f1 	addb	%dh, %cl
    1650:	07  <unknown>
    1651:	00 00 	addb	%al, (%rax)
    1653:	05 00 01 08 1e 	addl	$503841024, %eax
    1658:	08 00 	orb	%al, (%rax)
    165a:	00 14 3b 	addb	%dl, (%rbx,%rdi)
    165d:	00 00 	addb	%al, (%rax)
    165f:	00 1d c5 03 00 00 	addb	%bl, 965(%rip)
    1665:	19 00 	sbbl	%eax, (%rax)
    1667:	00 00 	addb	%al, (%rax)
    1669:	8b 11 	movl	(%rcx), %edx
    166b:	01 00 	addl	%eax, (%rax)
    166d:	00 00 	addb	%al, (%rax)
    166f:	00 00 	addb	%al, (%rax)
    1671:	60  <unknown>
    1672:	08 00 	orb	%al, (%rax)
    1674:	00 00 	addb	%al, (%rax)
    1676:	00 00 	addb	%al, (%rax)
    1678:	00 f7 	addb	%dh, %bh
    167a:	0a 00 	orb	(%rax), %al
    167c:	00 06 	addb	%al, (%rsi)
    167e:	01 08 	addl	%ecx, (%rax)
    1680:	5a 	popq	%rdx
    1681:	01 00 	addl	%eax, (%rax)
    1683:	00 04 f4 	addb	%al, (%rsp,%rsi,8)
    1686:	00 00 	addb	%al, (%rax)
    1688:	00 02 	addb	%al, (%rdx)
    168a:	05 17 2e 00 00 	addl	$11799, %eax
    168f:	00 06 	addb	%al, (%rsi)
    1691:	02 07 	addb	(%rdi), %al
    1693:	b8 01 00 00 04 	movl	$67108865, %eax
    1698:	8f 01 	popq	(%rcx)
    169a:	00 00 	addb	%al, (%rax)
    169c:	02 08 	addb	(%rax), %cl
    169e:	18 41 00 	sbbb	%al, (%rcx)
    16a1:	00 00 	addb	%al, (%rax)
    16a3:	06  <unknown>
    16a4:	04 07 	addb	$7, %al
    16a6:	72 01 	jb	1 <video.c+0x16a9>
    16a8:	00 00 	addb	%al, (%rax)
    16aa:	04 7f 	addb	$127, %al
    16ac:	01 00 	addl	%eax, (%rax)
    16ae:	00 02 	addb	%al, (%rdx)
    16b0:	0b 16 	orl	(%rsi), %edx
    16b2:	54 	pushq	%rsp
    16b3:	00 00 	addb	%al, (%rax)
    16b5:	00 06 	addb	%al, (%rsi)
    16b7:	08 07 	orb	%al, (%rdi)
    16b9:	6d 	insl	%dx, %es:(%rdi)
    16ba:	01 00 	addl	%eax, (%rax)
    16bc:	00 06 	addb	%al, (%rsi)
    16be:	08 07 	orb	%al, (%rdi)
    16c0:	68 01 00 00 04 	pushq	$67108865
    16c5:	0e  <unknown>
    16c6:	00 00 	addb	%al, (%rax)
    16c8:	00 02 	addb	%al, (%rdx)
    16ca:	11 1c 6e 	adcl	%ebx, (%rsi,%rbp,2)
    16cd:	00 00 	addb	%al, (%rax)
    16cf:	00 06 	addb	%al, (%rsi)
    16d1:	01 06 	addl	%eax, (%rsi)
    16d3:	5c 	popq	%rsp
    16d4:	01 00 	addl	%eax, (%rax)
    16d6:	00 06 	addb	%al, (%rsi)
    16d8:	02 05 17 00 00 00 	addb	23(%rip), %al
    16de:	15 04 05 69 6e 	adcl	$1852376324, %eax
    16e3:	74 00 	je	0 <video.c+0x16e5>
    16e5:	06  <unknown>
    16e6:	08 05 1e 01 00 00 	orb	%al, 286(%rip)
    16ec:	06  <unknown>
    16ed:	08 05 19 01 00 00 	orb	%al, 281(%rip)
    16f3:	16  <unknown>
    16f4:	08 08 	orb	%cl, (%rax)
    16f6:	08 03 	orb	%al, (%rbx)
    16f8:	08 5f 01 	orb	%bl, 1(%rdi)
    16fb:	00 00 	addb	%al, (%rax)
    16fd:	01 a6 06 00 00 0a 	addl	%esp, 167772166(%rsi)
    1703:	75 00 	jne	0 <video.c+0x1705>
    1705:	00 00 	addb	%al, (%rax)
    1707:	01 00 	addl	%eax, (%rax)
    1709:	05 72 77 00 0b 	addl	$184579954, %eax
    170e:	75 00 	jne	0 <video.c+0x1710>
    1710:	00 00 	addb	%al, (%rax)
    1712:	01 01 	addl	%eax, (%rcx)
    1714:	d7 	xlatb
    1715:	05 00 00 0c 75 	addl	$1963720704, %eax
    171a:	00 00 	addb	%al, (%rax)
    171c:	00 01 	addb	%al, (%rcx)
    171e:	02 05 70 77 74 00 	addb	7632752(%rip), %al
    1724:	0d 75 00 00 00 	orl	$117, %eax
    1729:	03 05 70 63 64 00 	addl	6579056(%rip), %eax
    172f:	0e  <unknown>
    1730:	75 00 	jne	0 <video.c+0x1732>
    1732:	00 00 	addb	%al, (%rax)
    1734:	04 01 	addb	$1, %al
    1736:	47 05 00 00 0f 75 	addl	$1963917312, %eax
    173c:	00 00 	addb	%al, (%rax)
    173e:	00 01 	addb	%al, (%rcx)
    1740:	05 01 fa 05 00 	addl	$391681, %eax
    1745:	00 10 	addb	%dl, (%rax)
    1747:	75 00 	jne	0 <video.c+0x1749>
    1749:	00 00 	addb	%al, (%rax)
    174b:	01 06 	addl	%eax, (%rsi)
    174d:	01 d9 	addl	%ebx, %ecx
    174f:	01 00 	addl	%eax, (%rax)
    1751:	00 11 	addb	%dl, (%rcx)
    1753:	75 00 	jne	0 <video.c+0x1755>
    1755:	00 00 	addb	%al, (%rax)
    1757:	01 07 	addl	%eax, (%rdi)
    1759:	01 66 05 	addl	%esp, 5(%rsi)
    175c:	00 00 	addb	%al, (%rax)
    175e:	12 75 00 	adcb	(%rbp), %dh
    1761:	00 00 	addb	%al, (%rax)
    1763:	01 08 	addl	%ecx, (%rax)
    1765:	01 0e 	addl	%ecx, (%rsi)
    1767:	05 00 00 13 75 	addl	$1964179456, %eax
    176c:	00 00 	addb	%al, (%rax)
    176e:	00 03 	addb	%al, (%rbx)
    1770:	09 01 	orl	%eax, (%rcx)
    1772:	1f  <unknown>
    1773:	04 00 	addb	$0, %al
    1775:	00 14 75 00 00 00 1c 	addb	%dl, 469762048(,%rsi,2)
    177c:	0c 01 	orb	$1, %al
    177e:	ab 	stosl	%eax, %es:(%rdi)
    177f:	05 00 00 15 75 	addl	$1964310528, %eax
    1784:	00 00 	addb	%al, (%rax)
    1786:	00 0c 28 	addb	%cl, (%rax,%rbp)
    1789:	01 17 	addl	%edx, (%rdi)
    178b:	05 00 00 16 75 	addl	$1964376064, %eax
    1790:	00 00 	addb	%al, (%rax)
    1792:	00 07 	addb	%al, (%rdi)
    1794:	34 01 	xorb	$1, %al
    1796:	c1 06 00 	roll	$0, (%rsi)
    1799:	00 17 	addb	%dl, (%rdi)
    179b:	75 00 	jne	0 <video.c+0x179d>
    179d:	00 00 	addb	%al, (%rax)
    179f:	04 3b 	addb	$59, %al
    17a1:	01 0c 06 	addl	%ecx, (%rsi,%rax)
    17a4:	00 00 	addb	%al, (%rax)
    17a6:	18 75 00 	sbbb	%dh, (%rbp)
    17a9:	00 00 	addb	%al, (%rax)
    17ab:	01 3f 	addl	%edi, (%rdi)
    17ad:	00 04 79 	addb	%al, (%rcx,%rdi,2)
    17b0:	06  <unknown>
    17b1:	00 00 	addb	%al, (%rax)
    17b3:	03 19 	addl	(%rcx), %ebx
    17b5:	1b a6 00 00 00 0b 	sbbl	184549376(%rsi), %esp
    17bb:	1b 7f 01 	sbbl	1(%rdi), %edi
    17be:	00 00 	addb	%al, (%rax)
    17c0:	02 cf 	addb	%bh, %cl
    17c2:	04 00 	addb	$0, %al
    17c4:	00 03 	addb	%al, (%rbx)
    17c6:	1d 16 7f 01 00 	sbbl	$98070, %eax
    17cb:	00 00 	addb	%al, (%rax)
    17cd:	00 09 	addb	%cl, (%rcx)
    17cf:	5f 	popq	%rdi
    17d0:	01 00 	addl	%eax, (%rax)
    17d2:	00 8e 01 00 00 0c 	addb	%cl, 201326593(%rsi)
    17d8:	67 00 00 	addb	%al, (%eax)
    17db:	00 00 	addb	%al, (%rax)
    17dd:	04 00 	addb	$0, %al
    17df:	06  <unknown>
    17e0:	00 00 	addb	%al, (%rax)
    17e2:	03 1e 	addl	(%rsi), %ebx
    17e4:	1b 6b 01 	sbbl	1(%rbx), %ebp
    17e7:	00 00 	addb	%al, (%rax)
    17e9:	08 08 	orb	%cl, (%rax)
    17eb:	03 20 	addl	(%rax), %esp
    17ed:	3b 02 	cmpl	(%rdx), %eax
    17ef:	00 00 	addb	%al, (%rax)
    17f1:	01 a6 06 00 00 22 	addl	%esp, 570425350(%rsi)
    17f7:	75 00 	jne	0 <video.c+0x17f9>
    17f9:	00 00 	addb	%al, (%rax)
    17fb:	01 00 	addl	%eax, (%rax)
    17fd:	05 72 77 00 23 	addl	$587233138, %eax
    1802:	75 00 	jne	0 <video.c+0x1804>
    1804:	00 00 	addb	%al, (%rax)
    1806:	01 01 	addl	%eax, (%rcx)
    1808:	d7 	xlatb
    1809:	05 00 00 24 75 	addl	$1965293568, %eax
    180e:	00 00 	addb	%al, (%rax)
    1810:	00 01 	addb	%al, (%rcx)
    1812:	02 05 70 77 74 00 	addb	7632752(%rip), %al
    1818:	25 75 00 00 00 	andl	$117, %eax
    181d:	03 05 70 63 64 00 	addl	6579056(%rip), %eax
    1823:	26 75 00 	jne	0 <video.c+0x1826>
    1826:	00 00 	addb	%al, (%rax)
    1828:	04 01 	addb	$1, %al
    182a:	47 05 00 00 27 75 	addl	$1965490176, %eax
    1830:	00 00 	addb	%al, (%rax)
    1832:	00 01 	addb	%al, (%rcx)
    1834:	05 01 0e 05 00 	addl	$331265, %eax
    1839:	00 28 	addb	%ch, (%rax)
    183b:	75 00 	jne	0 <video.c+0x183d>
    183d:	00 00 	addb	%al, (%rax)
    183f:	01 06 	addl	%eax, (%rsi)
    1841:	01 cc 	addl	%ecx, %esp
    1843:	06  <unknown>
    1844:	00 00 	addb	%al, (%rax)
    1846:	29 75 00 	subl	%esi, (%rbp)
    1849:	00 00 	addb	%al, (%rax)
    184b:	01 07 	addl	%eax, (%rdi)
    184d:	01 17 	addl	%edx, (%rdi)
    184f:	05 00 00 2a 75 	addl	$1965686784, %eax
    1854:	00 00 	addb	%al, (%rax)
    1856:	00 04 08 	addb	%al, (%rax,%rcx)
    1859:	01 1f 	addl	%ebx, (%rdi)
    185b:	04 00 	addb	$0, %al
    185d:	00 2b 	addb	%ch, (%rbx)
    185f:	75 00 	jne	0 <video.c+0x1861>
    1861:	00 00 	addb	%al, (%rax)
    1863:	1c 0c 	sbbb	$12, %al
    1865:	01 ab 05 00 00 2c 	addl	%ebp, 738197509(%rbx)
    186b:	75 00 	jne	0 <video.c+0x186d>
    186d:	00 00 	addb	%al, (%rax)
    186f:	0c 28 	orb	$40, %al
    1871:	01 20 	addl	%esp, (%rax)
    1873:	05 00 00 2d 75 	addl	$1965883392, %eax
    1878:	00 00 	addb	%al, (%rax)
    187a:	00 0b 	addb	%cl, (%rbx)
    187c:	34 01 	xorb	$1, %al
    187e:	0c 06 	orb	$6, %al
    1880:	00 00 	addb	%al, (%rax)
    1882:	2e 75 00 	jne	0 <video.c+0x1885>
    1885:	00 00 	addb	%al, (%rax)
    1887:	01 3f 	addl	%edi, (%rdi)
    1889:	00 04 8c 	addb	%al, (%rsp,%rcx,4)
    188c:	05 00 00 03 2f 	addl	$788725760, %eax
    1891:	1b 9a 01 00 00 0b 	sbbl	184549377(%rdx), %ebx
    1897:	31 5b 02 	xorl	%ebx, 2(%rbx)
    189a:	00 00 	addb	%al, (%rax)
    189c:	02 cf 	addb	%bh, %cl
    189e:	04 00 	addb	$0, %al
    18a0:	00 03 	addb	%al, (%rbx)
    18a2:	33 1a 	xorl	(%rdx), %ebx
    18a4:	5b 	popq	%rbx
    18a5:	02 00 	addb	(%rax), %al
    18a7:	00 00 	addb	%al, (%rax)
    18a9:	00 09 	addb	%cl, (%rcx)
    18ab:	3b 02 	cmpl	(%rdx), %eax
    18ad:	00 00 	addb	%al, (%rax)
    18af:	6a 02 	pushq	$2
    18b1:	00 00 	addb	%al, (%rax)
    18b3:	0c 67 	orb	$103, %al
    18b5:	00 00 	addb	%al, (%rax)
    18b7:	00 00 	addb	%al, (%rax)
    18b9:	04 6d 	addb	$109, %al
    18bb:	05 00 00 03 34 	addl	$872611840, %eax
    18c0:	1b 47 02 	sbbl	2(%rdi), %eax
    18c3:	00 00 	addb	%al, (%rax)
    18c5:	08 08 	orb	%cl, (%rax)
    18c7:	03 36 	addl	(%rsi), %esi
    18c9:	17  <unknown>
    18ca:	03 00 	addl	(%rax), %eax
    18cc:	00 01 	addb	%al, (%rcx)
    18ce:	a6 	cmpsb	%es:(%rdi), (%rsi)
    18cf:	06  <unknown>
    18d0:	00 00 	addb	%al, (%rax)
    18d2:	38 75 00 	cmpb	%dh, (%rbp)
    18d5:	00 00 	addb	%al, (%rax)
    18d7:	01 00 	addl	%eax, (%rax)
    18d9:	05 72 77 00 39 	addl	$956331890, %eax
    18de:	75 00 	jne	0 <video.c+0x18e0>
    18e0:	00 00 	addb	%al, (%rax)
    18e2:	01 01 	addl	%eax, (%rcx)
    18e4:	d7 	xlatb
    18e5:	05 00 00 3a 75 	addl	$1966735360, %eax
    18ea:	00 00 	addb	%al, (%rax)
    18ec:	00 01 	addb	%al, (%rcx)
    18ee:	02 05 70 77 74 00 	addb	7632752(%rip), %al
    18f4:	3b 75 00 	cmpl	(%rbp), %esi
    18f7:	00 00 	addb	%al, (%rax)
    18f9:	03 05 70 63 64 00 	addl	6579056(%rip), %eax
    18ff:	3c 75 	cmpb	$117, %al
    1901:	00 00 	addb	%al, (%rax)
    1903:	00 04 01 	addb	%al, (%rcx,%rax)
    1906:	47 05 00 00 3d 75 	addl	$1966931968, %eax
    190c:	00 00 	addb	%al, (%rax)
    190e:	00 01 	addb	%al, (%rcx)
    1910:	05 01 0e 05 00 	addl	$331265, %eax
    1915:	00 3e 	addb	%bh, (%rsi)
    1917:	75 00 	jne	0 <video.c+0x1919>
    1919:	00 00 	addb	%al, (%rax)
    191b:	01 06 	addl	%eax, (%rsi)
    191d:	01 cc 	addl	%ecx, %esp
    191f:	06  <unknown>
    1920:	00 00 	addb	%al, (%rax)
    1922:	3f  <unknown>
    1923:	75 00 	jne	0 <video.c+0x1925>
    1925:	00 00 	addb	%al, (%rax)
    1927:	01 07 	addl	%eax, (%rdi)
    1929:	01 17 	addl	%edx, (%rdi)
    192b:	05 00 00 40 75 	addl	$1967128576, %eax
    1930:	00 00 	addb	%al, (%rax)
    1932:	00 04 08 	addb	%al, (%rax,%rcx)
    1935:	01 1f 	addl	%ebx, (%rdi)
    1937:	04 00 	addb	$0, %al
    1939:	00 41 75 	addb	%al, 117(%rcx)
    193c:	00 00 	addb	%al, (%rax)
    193e:	00 1c 0c 	addb	%bl, (%rsp,%rcx)
    1941:	01 ab 05 00 00 42 	addl	%ebp, 1107296261(%rbx)
    1947:	75 00 	jne	0 <video.c+0x1949>
    1949:	00 00 	addb	%al, (%rax)
    194b:	0c 28 	orb	$40, %al
    194d:	01 20 	addl	%esp, (%rax)
    194f:	05 00 00 43 75 	addl	$1967325184, %eax
    1954:	00 00 	addb	%al, (%rax)
    1956:	00 0b 	addb	%cl, (%rbx)
    1958:	34 01 	xorb	$1, %al
    195a:	0c 06 	orb	$6, %al
    195c:	00 00 	addb	%al, (%rax)
    195e:	44 75 00 	jne	0 <video.c+0x1961>
    1961:	00 00 	addb	%al, (%rax)
    1963:	01 3f 	addl	%edi, (%rdi)
    1965:	00 04 29 	addb	%al, (%rcx,%rbp)
    1968:	06  <unknown>
    1969:	00 00 	addb	%al, (%rax)
    196b:	03 45 1b 	addl	27(%rbp), %eax
    196e:	76 02 	jbe	2 <video.c+0x1972>
    1970:	00 00 	addb	%al, (%rax)
    1972:	0b 47 37 	orl	55(%rdi), %eax
    1975:	03 00 	addl	(%rax), %eax
    1977:	00 02 	addb	%al, (%rdx)
    1979:	cf 	iretl
    197a:	04 00 	addb	$0, %al
    197c:	00 03 	addb	%al, (%rbx)
    197e:	49 26 	es
    1980:	37  <unknown>
    1981:	03 00 	addl	(%rax), %eax
    1983:	00 00 	addb	%al, (%rax)
    1985:	00 09 	addb	%cl, (%rcx)
    1987:	17  <unknown>
    1988:	03 00 	addl	(%rax), %eax
    198a:	00 46 03 	addb	%al, 3(%rsi)
    198d:	00 00 	addb	%al, (%rax)
    198f:	0c 67 	orb	$103, %al
    1991:	00 00 	addb	%al, (%rax)
    1993:	00 00 	addb	%al, (%rax)
    1995:	04 8a 	addb	$-118, %al
    1997:	06  <unknown>
    1998:	00 00 	addb	%al, (%rax)
    199a:	03 4a 1b 	addl	27(%rdx), %ecx
    199d:	23 03 	andl	(%rbx), %eax
    199f:	00 00 	addb	%al, (%rax)
    19a1:	08 08 	orb	%cl, (%rax)
    19a3:	03 4c f3 03 	addl	3(%rbx,%rsi,8), %ecx
    19a7:	00 00 	addb	%al, (%rax)
    19a9:	01 a6 06 00 00 4e 	addl	%esp, 1308622854(%rsi)
    19af:	75 00 	jne	0 <video.c+0x19b1>
    19b1:	00 00 	addb	%al, (%rax)
    19b3:	01 00 	addl	%eax, (%rax)
    19b5:	05 72 77 00 4f 	addl	$1325430642, %eax
    19ba:	75 00 	jne	0 <video.c+0x19bc>
    19bc:	00 00 	addb	%al, (%rax)
    19be:	01 01 	addl	%eax, (%rcx)
    19c0:	d7 	xlatb
    19c1:	05 00 00 50 75 	addl	$1968177152, %eax
    19c6:	00 00 	addb	%al, (%rax)
    19c8:	00 01 	addb	%al, (%rcx)
    19ca:	02 05 70 77 74 00 	addb	7632752(%rip), %al
    19d0:	51 	pushq	%rcx
    19d1:	75 00 	jne	0 <video.c+0x19d3>
    19d3:	00 00 	addb	%al, (%rax)
    19d5:	03 05 70 63 64 00 	addl	6579056(%rip), %eax
    19db:	52 	pushq	%rdx
    19dc:	75 00 	jne	0 <video.c+0x19de>
    19de:	00 00 	addb	%al, (%rax)
    19e0:	04 01 	addb	$1, %al
    19e2:	47 05 00 00 53 75 	addl	$1968373760, %eax
    19e8:	00 00 	addb	%al, (%rax)
    19ea:	00 01 	addb	%al, (%rcx)
    19ec:	05 01 0e 05 00 	addl	$331265, %eax
    19f1:	00 54 75 00 	addb	%dl, (%rbp,%rsi,2)
    19f5:	00 00 	addb	%al, (%rax)
    19f7:	01 06 	addl	%eax, (%rsi)
    19f9:	01 cc 	addl	%ecx, %esp
    19fb:	06  <unknown>
    19fc:	00 00 	addb	%al, (%rax)
    19fe:	55 	pushq	%rbp
    19ff:	75 00 	jne	0 <video.c+0x1a01>
    1a01:	00 00 	addb	%al, (%rax)
    1a03:	01 07 	addl	%eax, (%rdi)
    1a05:	01 17 	addl	%edx, (%rdi)
    1a07:	05 00 00 56 75 	addl	$1968570368, %eax
    1a0c:	00 00 	addb	%al, (%rax)
    1a0e:	00 04 08 	addb	%al, (%rax,%rcx)
    1a11:	01 1f 	addl	%ebx, (%rdi)
    1a13:	04 00 	addb	$0, %al
    1a15:	00 57 75 	addb	%dl, 117(%rdi)
    1a18:	00 00 	addb	%al, (%rax)
    1a1a:	00 1c 0c 	addb	%bl, (%rsp,%rcx)
    1a1d:	01 ab 05 00 00 58 	addl	%ebp, 1476395013(%rbx)
    1a23:	75 00 	jne	0 <video.c+0x1a25>
    1a25:	00 00 	addb	%al, (%rax)
    1a27:	0c 28 	orb	$40, %al
    1a29:	01 20 	addl	%esp, (%rax)
    1a2b:	05 00 00 59 75 	addl	$1968766976, %eax
    1a30:	00 00 	addb	%al, (%rax)
    1a32:	00 0b 	addb	%cl, (%rbx)
    1a34:	34 01 	xorb	$1, %al
    1a36:	0c 06 	orb	$6, %al
    1a38:	00 00 	addb	%al, (%rax)
    1a3a:	5a 	popq	%rdx
    1a3b:	75 00 	jne	0 <video.c+0x1a3d>
    1a3d:	00 00 	addb	%al, (%rax)
    1a3f:	01 3f 	addl	%edi, (%rdi)
    1a41:	00 04 50 	addb	%al, (%rax,%rdx,2)
    1a44:	05 00 00 03 5b 	addl	$1526923264, %eax
    1a49:	1b 52 03 	sbbl	3(%rdx), %edx
    1a4c:	00 00 	addb	%al, (%rax)
    1a4e:	0b 5d 13 	orl	19(%rbp), %ebx
    1a51:	04 00 	addb	$0, %al
    1a53:	00 02 	addb	%al, (%rdx)
    1a55:	cf 	iretl
    1a56:	04 00 	addb	$0, %al
    1a58:	00 03 	addb	%al, (%rbx)
    1a5a:	5f 	popq	%rdi
    1a5b:	11 13 	adcl	%edx, (%rbx)
    1a5d:	04 00 	addb	$0, %al
    1a5f:	00 00 	addb	%al, (%rax)
    1a61:	00 09 	addb	%cl, (%rcx)
    1a63:	f3 03 00 	rep		addl	(%rax), %eax
    1a66:	00 22 	addb	%ah, (%rdx)
    1a68:	04 00 	addb	$0, %al
    1a6a:	00 0c 67 	addb	%cl, (%rdi,%riz,2)
    1a6d:	00 00 	addb	%al, (%rax)
    1a6f:	00 00 	addb	%al, (%rax)
    1a71:	04 7d 	addb	$125, %al
    1a73:	05 00 00 03 60 	addl	$1610809344, %eax
    1a78:	1b ff 	sbbl	%edi, %edi
    1a7a:	03 00 	addl	(%rax), %eax
    1a7c:	00 11 	addb	%dl, (%rcx)
    1a7e:	b5 05 	movb	$5, %ch
    1a80:	00 00 	addb	%al, (%rax)
    1a82:	03 62 10 	addl	16(%rdx), %esp
    1a85:	3a 04 00 	cmpb	(%rax,%rax), %al
    1a88:	00 0a 	addb	%cl, (%rdx)
    1a8a:	22 04 00 	andb	(%rax,%rax), %al
    1a8d:	00 08 	addb	%cl, (%rax)
    1a8f:	21 04 0a 	andl	%eax, (%rdx,%rcx)
    1a92:	fe 04 00 	incb	(%rax,%rax)
    1a95:	00 02 	addb	%al, (%rdx)
    1a97:	28 00 	subb	%al, (%rax)
    1a99:	00 00 	addb	%al, (%rax)
    1a9b:	04 0c 	addb	$12, %al
    1a9d:	0e  <unknown>
    1a9e:	48 00 00 	addb	%al, (%rax)
    1aa1:	00 00 	addb	%al, (%rax)
    1aa3:	02 13 	addb	(%rbx), %dl
    1aa5:	01 00 	addl	%eax, (%rax)
    1aa7:	00 04 0d 0e 48 00 00 	addb	%al, 18446(,%rcx)
    1aae:	00 02 	addb	%al, (%rdx)
    1ab0:	02 88 01 00 00 04 	addb	67108865(%rax), %cl
    1ab6:	0e  <unknown>
    1ab7:	0e  <unknown>
    1ab8:	48 00 00 	addb	%al, (%rax)
    1abb:	00 04 17 	addb	%al, (%rdi,%rdx)
    1abe:	62  <unknown>
    1abf:	70 70 	jo	112 <video.c+0x1b31>
    1ac1:	00 04 0f 	addb	%al, (%rdi,%rcx)
    1ac4:	0d 35 00 00 00 	orl	$53, %eax
    1ac9:	06  <unknown>
    1aca:	02 2d 00 00 00 04 	addb	67108864(%rip), %ch
    1ad0:	10 0d 35 00 00 00 	adcb	%cl, 53(%rip)
    1ad6:	07  <unknown>
    1ad7:	02 21 	addb	(%rcx), %ah
    1ad9:	00 00 	addb	%al, (%rax)
    1adb:	00 04 11 	addb	%al, (%rcx,%rdx)
    1ade:	0d 35 00 00 00 	orl	$53, %eax
    1ae3:	08 02 	orb	%al, (%rdx)
    1ae5:	f0 	lock
    1ae6:	01 00 	addl	%eax, (%rax)
    1ae8:	00 04 12 	addb	%al, (%rdx,%rdx)
    1aeb:	0d 35 00 00 00 	orl	$53, %eax
    1af0:	09 02 	orl	%eax, (%rdx)
    1af2:	e9 01 00 00 04 	jmp	67108865 <_bss_end+0x3fedaf8>
    1af7:	13 0d 35 00 00 00 	adcl	53(%rip), %ecx
    1afd:	0a 02 	orb	(%rdx), %al
    1aff:	09 02 	orl	%eax, (%rdx)
    1b01:	00 00 	addb	%al, (%rax)
    1b03:	04 14 	addb	$20, %al
    1b05:	0d 35 00 00 00 	orl	$53, %eax
    1b0a:	0b 02 	orl	(%rdx), %eax
    1b0c:	02 02 	addb	(%rdx), %al
    1b0e:	00 00 	addb	%al, (%rax)
    1b10:	04 15 	addb	$21, %al
    1b12:	0d 35 00 00 00 	orl	$53, %eax
    1b17:	0c 02 	orb	$2, %al
    1b19:	e8 00 00 00 04 	callq	67108864 <_bss_end+0x3fedb1e>
    1b1e:	16  <unknown>
    1b1f:	0e  <unknown>
    1b20:	5b 	popq	%rbx
    1b21:	00 00 	addb	%al, (%rax)
    1b23:	00 0d 02 32 01 00 	addb	%cl, 78338(%rip)
    1b29:	00 04 17 	addb	%al, (%rdi,%rdx)
    1b2c:	0e  <unknown>
    1b2d:	48 00 00 	addb	%al, (%rax)
    1b30:	00 11 	addb	%dl, (%rcx)
    1b32:	02 f7 	addb	%bh, %dh
    1b34:	01 00 	addl	%eax, (%rax)
    1b36:	00 04 18 	addb	%al, (%rax,%rbx)
    1b39:	0e  <unknown>
    1b3a:	48 00 00 	addb	%al, (%rax)
    1b3d:	00 13 	addb	%dl, (%rbx)
    1b3f:	02 2e 	addb	(%rsi), %ch
    1b41:	02 00 	addb	(%rax), %al
    1b43:	00 04 19 	addb	%al, (%rcx,%rbx)
    1b46:	0d fe 04 00 00 	orl	$1278, %eax
    1b4b:	15 00 09 35 00 	adcl	$3475712, %eax
    1b50:	00 00 	addb	%al, (%rax)
    1b52:	0e  <unknown>
    1b53:	05 00 00 18 67 	addl	$1729626112, %eax
    1b58:	00 00 	addb	%al, (%rax)
    1b5a:	00 0b 	addb	%cl, (%rbx)
    1b5c:	00 04 10 	addb	%al, (%rax,%rdx)
    1b5f:	02 00 	addb	(%rax), %al
    1b61:	00 04 1a 	addb	%al, (%rdx,%rbx)
    1b64:	1b 3f 	sbbl	(%rdi), %edi
    1b66:	04 00 	addb	$0, %al
    1b68:	00 11 	addb	%dl, (%rcx)
    1b6a:	fc 	cld
    1b6b:	00 00 	addb	%al, (%rax)
    1b6d:	00 04 1c 	addb	%al, (%rsp,%rbx)
    1b70:	1e  <unknown>
    1b71:	0e  <unknown>
    1b72:	05 00 00 19 2e 	addl	$773390336, %eax
    1b77:	04 00 	addb	$0, %al
    1b79:	00 01 	addb	%al, (%rcx)
    1b7b:	07  <unknown>
    1b7c:	09 09 	orl	%ecx, (%rcx)
    1b7e:	03 48 34 	addl	52(%rax), %ecx
    1b81:	01 00 	addl	%eax, (%rax)
    1b83:	00 00 	addb	%al, (%rax)
    1b85:	00 00 	addb	%al, (%rax)
    1b87:	1a bf 02 00 00 05 	sbbb	83886082(%rdi), %bh
    1b8d:	28 06 	subb	%al, (%rsi)
    1b8f:	54 	pushq	%rsp
    1b90:	05 00 00 0e 54 	addl	$1410203648, %eax
    1b95:	05 00 00 0e 2e 	addl	$772669440, %eax
    1b9a:	00 00 	addb	%al, (%rax)
    1b9c:	00 0e 	addb	%cl, (%rsi)
    1b9e:	75 00 	jne	0 <video.c+0x1ba0>
    1ba0:	00 00 	addb	%al, (%rax)
    1ba2:	00 0a 	addb	%cl, (%rdx)
    1ba4:	2e 00 00 	addb	%al, %cs:(%rax)
    1ba7:	00 12 	addb	%dl, (%rdx)
    1ba9:	d3 03 	roll	%cl, (%rbx)
    1bab:	00 00 	addb	%al, (%rax)
    1bad:	06  <unknown>
    1bae:	19 07 	sbbl	%eax, (%rdi)
    1bb0:	a4 	movsb	(%rsi), %es:(%rdi)
    1bb1:	00 00 	addb	%al, (%rax)
    1bb3:	00 6b 05 	addb	%ch, 5(%rbx)
    1bb6:	00 00 	addb	%al, (%rax)
    1bb8:	0d 00 0f 69 06 	orl	$107548416, %eax
    1bbd:	00 00 	addb	%al, (%rax)
    1bbf:	98 	cwtl
    1bc0:	d9 19 	fstps	(%rcx)
    1bc2:	01 00 	addl	%eax, (%rax)
    1bc4:	00 00 	addb	%al, (%rax)
    1bc6:	00 00 	addb	%al, (%rax)
    1bc8:	12 00 	adcb	(%rax), %al
    1bca:	00 00 	addb	%al, (%rax)
    1bcc:	00 00 	addb	%al, (%rax)
    1bce:	00 00 	addb	%al, (%rax)
    1bd0:	01 9c 96 05 00 00 07 	addl	%ebx, 117440517(%rsi,%rdx,4)
    1bd7:	29 05 00 00 98 1e 	subl	%eax, 513277952(%rip)
    1bdd:	3a 04 00 	cmpb	(%rax,%rax), %al
    1be0:	00 02 	addb	%al, (%rdx)
    1be2:	91 	xchgl	%ecx, %eax
    1be3:	68 00 1b e1 05 	pushq	$98638592
    1be8:	00 00 	addb	%al, (%rax)
    1bea:	01 93 09 3a 04 00 	addl	%edx, 277001(%rbx)
    1bf0:	00 cc 	addb	%cl, %ah
    1bf2:	19 01 	sbbl	%eax, (%rcx)
    1bf4:	00 00 	addb	%al, (%rax)
    1bf6:	00 00 	addb	%al, (%rax)
    1bf8:	00 0d 00 00 00 00 	addb	%cl, (%rip)
    1bfe:	00 00 	addb	%al, (%rax)
    1c00:	00 01 	addb	%al, (%rcx)
    1c02:	9c 	pushfq
    1c03:	0f c1 05 00 00 8f b6 	xaddl	%eax, -1232142336(%rip)
    1c0a:	19 01 	sbbl	%eax, (%rcx)
    1c0c:	00 00 	addb	%al, (%rax)
    1c0e:	00 00 	addb	%al, (%rax)
    1c10:	00 16 	addb	%dl, (%rsi)
    1c12:	00 00 	addb	%al, (%rax)
    1c14:	00 00 	addb	%al, (%rax)
    1c16:	00 00 	addb	%al, (%rax)
    1c18:	00 01 	addb	%al, (%rcx)
    1c1a:	9c 	pushfq
    1c1b:	df 05 00 00 07 29 	filds	688324608(%rip)
    1c21:	05 00 00 8f 1f 	addl	$529465344, %eax
    1c26:	3a 04 00 	cmpb	(%rax,%rax), %al
    1c29:	00 02 	addb	%al, (%rdx)
    1c2b:	91 	xchgl	%ecx, %eax
    1c2c:	68 00 0f 4a 06 	pushq	$105516800
    1c31:	00 00 	addb	%al, (%rax)
    1c33:	89 a5 19 01 00 00 	movl	%esp, 281(%rbp)
    1c39:	00 00 	addb	%al, (%rax)
    1c3b:	00 11 	addb	%dl, (%rcx)
    1c3d:	00 00 	addb	%al, (%rax)
    1c3f:	00 00 	addb	%al, (%rax)
    1c41:	00 00 	addb	%al, (%rax)
    1c43:	00 01 	addb	%al, (%rcx)
    1c45:	9c 	pushfq
    1c46:	0a 06 	orb	(%rsi), %al
    1c48:	00 00 	addb	%al, (%rax)
    1c4a:	07  <unknown>
    1c4b:	e4 06 	inb	$6, %al
    1c4d:	00 00 	addb	%al, (%rax)
    1c4f:	89 2d 54 00 00 00 	movl	%ebp, 84(%rip)
    1c55:	02 91 6c 00 1c ae 	addb	-1373896596(%rcx), %dl
    1c5b:	06  <unknown>
    1c5c:	00 00 	addb	%al, (%rax)
    1c5e:	01 72 0a 	addl	%esi, 10(%rdx)
    1c61:	75 00 	jne	0 <video.c+0x1c63>
    1c63:	00 00 	addb	%al, (%rax)
    1c65:	56 	pushq	%rsi
    1c66:	18 01 	sbbb	%al, (%rcx)
    1c68:	00 00 	addb	%al, (%rax)
    1c6a:	00 00 	addb	%al, (%rax)
    1c6c:	00 4f 01 	addb	%cl, 1(%rdi)
    1c6f:	00 00 	addb	%al, (%rax)
    1c71:	00 00 	addb	%al, (%rax)
    1c73:	00 00 	addb	%al, (%rax)
    1c75:	01 9c ad 06 00 00 07 	addl	%ebx, 117440518(%rbp,%rbp,4)
    1c7c:	29 05 00 00 72 25 	subl	%eax, 628228096(%rip)
    1c82:	3a 04 00 	cmpb	(%rax,%rax), %al
    1c85:	00 03 	addb	%al, (%rbx)
    1c87:	91 	xchgl	%ecx, %eax
    1c88:	a8 7f 	testb	$127, %al
    1c8a:	07  <unknown>
    1c8b:	18 06 	sbbb	%al, (%rsi)
    1c8d:	00 00 	addb	%al, (%rax)
    1c8f:	72 34 	jb	52 <video.c+0x1cc5>
    1c91:	75 00 	jne	0 <video.c+0x1c93>
    1c93:	00 00 	addb	%al, (%rax)
    1c95:	03 91 a0 7f 03 84 	addl	-2080145504(%rcx), %edx
    1c9b:	05 00 00 74 0e 	addl	$242483200, %eax
    1ca0:	75 00 	jne	0 <video.c+0x1ca2>
    1ca2:	00 00 	addb	%al, (%rax)
    1ca4:	02 91 60 03 5e 05 	addb	90047328(%rcx), %dl
    1caa:	00 00 	addb	%al, (%rax)
    1cac:	75 0e 	jne	14 <video.c+0x1cbc>
    1cae:	75 00 	jne	0 <video.c+0x1cb0>
    1cb0:	00 00 	addb	%al, (%rax)
    1cb2:	02 91 68 03 5c 05 	addb	89916264(%rcx), %dl
    1cb8:	00 00 	addb	%al, (%rax)
    1cba:	76 0e 	jbe	14 <video.c+0x1cca>
    1cbc:	75 00 	jne	0 <video.c+0x1cbe>
    1cbe:	00 00 	addb	%al, (%rax)
    1cc0:	02 91 58 03 f0 05 	addb	99615576(%rcx), %dl
    1cc6:	00 00 	addb	%al, (%rax)
    1cc8:	77 0e 	ja	14 <video.c+0x1cd8>
    1cca:	75 00 	jne	0 <video.c+0x1ccc>
    1ccc:	00 00 	addb	%al, (%rax)
    1cce:	02 91 50 03 d2 05 	addb	97649488(%rcx), %dl
    1cd4:	00 00 	addb	%al, (%rax)
    1cd6:	82  <unknown>
    1cd7:	22 ad 06 00 00 02 	andb	33554438(%rbp), %ch
    1cdd:	91 	xchgl	%ecx, %eax
    1cde:	48 03 a1 05 00 00 83 	addq	-2097151995(%rcx), %rsp
    1ce5:	16  <unknown>
    1ce6:	b2 06 	movb	$6, %dl
    1ce8:	00 00 	addb	%al, (%rax)
    1cea:	02 91 40 10 70 74 	addb	1953501248(%rcx), %dl
    1cf0:	00 84 12 b7 06 00 00 	addb	%al, 1719(%rdx,%rdx)
    1cf7:	03 91 b8 7f 00 0a 	addl	167804856(%rcx), %edx
    1cfd:	46 03 00 	addl	(%rax), %r8d
    1d00:	00 0a 	addb	%cl, (%rdx)
    1d02:	6a 02 	pushq	$2
    1d04:	00 00 	addb	%al, (%rax)
    1d06:	0a 8e 01 00 00 1d 	orb	486539265(%rsi), %cl
    1d0c:	2e 05 00 00 01 23 	addl	$587268096, %eax
    1d12:	06  <unknown>
    1d13:	a6 	cmpsb	%es:(%rdi), (%rsi)
    1d14:	12 01 	adcb	(%rcx), %al
    1d16:	00 00 	addb	%al, (%rax)
    1d18:	00 00 	addb	%al, (%rax)
    1d1a:	00 b0 05 00 00 00 	addb	%dh, 5(%rax)
    1d20:	00 00 	addb	%al, (%rax)
    1d22:	00 01 	addb	%al, (%rcx)
    1d24:	9c 	pushfq
    1d25:	84 07 	testb	%al, (%rdi)
    1d27:	00 00 	addb	%al, (%rax)
    1d29:	07  <unknown>
    1d2a:	29 05 00 00 23 27 	subl	%eax, 656605184(%rip)
    1d30:	3a 04 00 	cmpb	(%rax,%rax), %al
    1d33:	00 03 	addb	%al, (%rbx)
    1d35:	91 	xchgl	%ecx, %eax
    1d36:	b8 7f 07 08 05 	movl	$84412287, %eax
    1d3b:	00 00 	addb	%al, (%rax)
    1d3d:	23 36 	andl	(%rsi), %esi
    1d3f:	75 00 	jne	0 <video.c+0x1d41>
    1d41:	00 00 	addb	%al, (%rax)
    1d43:	03 91 b0 7f 07 18 	addl	403144624(%rcx), %edx
    1d49:	06  <unknown>
    1d4a:	00 00 	addb	%al, (%rax)
    1d4c:	23 46 75 	andl	117(%rsi), %eax
    1d4f:	00 00 	addb	%al, (%rax)
    1d51:	00 03 	addb	%al, (%rbx)
    1d53:	91 	xchgl	%ecx, %eax
    1d54:	a8 7f 	testb	$127, %al
    1d56:	07  <unknown>
    1d57:	5a 	popq	%rdx
    1d58:	09 00 	orl	%eax, (%rax)
    1d5a:	00 23 	addb	%ah, (%rbx)
    1d5c:	56 	pushq	%rsi
    1d5d:	5b 	popq	%rbx
    1d5e:	00 00 	addb	%al, (%rax)
    1d60:	00 03 	addb	%al, (%rbx)
    1d62:	91 	xchgl	%ecx, %eax
    1d63:	a4 	movsb	(%rsi), %es:(%rdi)
    1d64:	7f 03 	jg	3 <video.c+0x1d69>
    1d66:	84 05 00 00 28 12 	testb	%al, 304611328(%rip)
    1d6c:	54 	pushq	%rsp
    1d6d:	00 00 	addb	%al, (%rax)
    1d6f:	00 02 	addb	%al, (%rdx)
    1d71:	91 	xchgl	%ecx, %eax
    1d72:	50 	pushq	%rax
    1d73:	03 5e 05 	addl	5(%rsi), %ebx
    1d76:	00 00 	addb	%al, (%rax)
    1d78:	29 12 	subl	%edx, (%rdx)
    1d7a:	54 	pushq	%rsp
    1d7b:	00 00 	addb	%al, (%rax)
    1d7d:	00 02 	addb	%al, (%rdx)
    1d7f:	91 	xchgl	%ecx, %eax
    1d80:	54 	pushq	%rsp
    1d81:	03 5c 05 00 	addl	(%rbp,%rax), %ebx
    1d85:	00 2a 	addb	%ch, (%rdx)
    1d87:	12 54 00 00 	adcb	(%rax,%rax), %dl
    1d8b:	00 02 	addb	%al, (%rdx)
    1d8d:	91 	xchgl	%ecx, %eax
    1d8e:	4c 03 f0 	addq	%rax, %r14
    1d91:	05 00 00 2b 12 	addl	$304807936, %eax
    1d96:	54 	pushq	%rsp
    1d97:	00 00 	addb	%al, (%rax)
    1d99:	00 02 	addb	%al, (%rdx)
    1d9b:	91 	xchgl	%ecx, %eax
    1d9c:	48 03 d2 	addq	%rdx, %rdx
    1d9f:	05 00 00 36 22 	addl	$573964288, %eax
    1da4:	ad 	lodsl	(%rsi), %eax
    1da5:	06  <unknown>
    1da6:	00 00 	addb	%al, (%rax)
    1da8:	02 91 68 03 a1 05 	addb	94438248(%rcx), %dl
    1dae:	00 00 	addb	%al, (%rax)
    1db0:	45 16  <unknown>
    1db2:	b2 06 	movb	$6, %dl
    1db4:	00 00 	addb	%al, (%rax)
    1db6:	02 91 60 10 70 74 	addb	1953501280(%rcx), %dl
    1dbc:	00 54 12 b7 	addb	%dl, -73(%rdx,%rdx)
    1dc0:	06  <unknown>
    1dc1:	00 00 	addb	%al, (%rax)
    1dc3:	02 91 58 13 4a 06 	addb	105517912(%rcx), %dl
    1dc9:	00 00 	addb	%al, (%rax)
    1dcb:	6f 	outsl	(%rsi), %dx
    1dcc:	8f 00 	popq	(%rax)
    1dce:	00 00 	addb	%al, (%rax)
    1dd0:	0d 00 00 1e de 	orl	$3726508032, %eax
    1dd5:	01 00 	addl	%eax, (%rax)
    1dd7:	00 01 	addb	%al, (%rcx)
    1dd9:	09 06 	orl	%eax, (%rsi)
    1ddb:	8b 11 	movl	(%rcx), %edx
    1ddd:	01 00 	addl	%eax, (%rax)
    1ddf:	00 00 	addb	%al, (%rax)
    1de1:	00 00 	addb	%al, (%rax)
    1de3:	1b 01 	sbbl	(%rcx), %eax
    1de5:	00 00 	addb	%al, (%rax)
    1de7:	00 00 	addb	%al, (%rax)
    1de9:	00 00 	addb	%al, (%rax)
    1deb:	01 9c 03 1e 06 00 00 	addl	%ebx, 1566(%rbx,%rax)
    1df2:	0c 0d 	orb	$13, %al
    1df4:	3a 04 00 	cmpb	(%rax,%rax), %al
    1df7:	00 02 	addb	%al, (%rdx)
    1df9:	91 	xchgl	%ecx, %eax
    1dfa:	50 	pushq	%rax
    1dfb:	12 c1 	adcb	%cl, %al
    1dfd:	05 00 00 01 0d 	addl	$218169344, %eax
    1e02:	05 8f 00 00 00 	addl	$143, %eax
    1e07:	be 07 00 00 0d 	movl	$218103815, %esi
    1e0c:	00 03 	addb	%al, (%rbx)
    1e0e:	64 06  <unknown>
    1e10:	00 00 	addb	%al, (%rax)
    1e12:	0f 0e 	femms
    1e14:	75 00 	jne	0 <video.c+0x1e16>
    1e16:	00 00 	addb	%al, (%rax)
    1e18:	02 91 68 03 c5 03 	addb	63243112(%rcx), %dl
    1e1e:	00 00 	addb	%al, (%rax)
    1e20:	0f 1e  <unknown>
    1e22:	75 00 	jne	0 <video.c+0x1e24>
    1e24:	00 00 	addb	%al, (%rax)
    1e26:	02 91 60 10 7a 7a 	addb	2054819936(%rcx), %dl
    1e2c:	00 0f 	addb	%cl, (%rdi)
    1e2e:	2f  <unknown>
    1e2f:	75 00 	jne	0 <video.c+0x1e31>
    1e31:	00 00 	addb	%al, (%rax)
    1e33:	02 91 58 13 69 06 	addb	107549528(%rcx), %dl
    1e39:	00 00 	addb	%al, (%rax)
    1e3b:	1f  <unknown>
    1e3c:	8f 00 	popq	(%rax)
    1e3e:	00 00 	addb	%al, (%rax)
    1e40:	0d 00 00 00 a7 	orl	$2801795072, %eax
    1e45:	04 00 	addb	$0, %al
    1e47:	00 05 00 01 08 1d 	addb	%al, 487063808(%rip)
    1e4d:	0a 00 	orb	(%rax), %al
    1e4f:	00 11 	addb	%dl, (%rcx)
    1e51:	3b 00 	cmpl	(%rax), %eax
    1e53:	00 00 	addb	%al, (%rax)
    1e55:	1d 94 04 00 00 	sbbl	$1172, %eax
    1e5a:	19 00 	sbbl	%eax, (%rax)
    1e5c:	00 00 	addb	%al, (%rax)
    1e5e:	eb 19 	jmp	25 <video.c+0x1e79>
    1e60:	01 00 	addl	%eax, (%rax)
    1e62:	00 00 	addb	%al, (%rax)
    1e64:	00 00 	addb	%al, (%rax)
    1e66:	35 06 00 00 00 	xorl	$6, %eax
    1e6b:	00 00 	addb	%al, (%rax)
    1e6d:	00 52 0d 	addb	%dl, 13(%rdx)
    1e70:	00 00 	addb	%al, (%rax)
    1e72:	03 01 	addl	(%rcx), %eax
    1e74:	08 5a 01 	orb	%bl, 1(%rdx)
    1e77:	00 00 	addb	%al, (%rax)
    1e79:	04 f4 	addb	$-12, %al
    1e7b:	00 00 	addb	%al, (%rax)
    1e7d:	00 02 	addb	%al, (%rdx)
    1e7f:	05 17 2e 00 00 	addl	$11799, %eax
    1e84:	00 03 	addb	%al, (%rbx)
    1e86:	02 07 	addb	(%rdi), %al
    1e88:	b8 01 00 00 03 	movl	$50331649, %eax
    1e8d:	04 07 	addb	$7, %al
    1e8f:	72 01 	jb	1 <video.c+0x1e92>
    1e91:	00 00 	addb	%al, (%rax)
    1e93:	04 7f 	addb	$127, %al
    1e95:	01 00 	addl	%eax, (%rax)
    1e97:	00 02 	addb	%al, (%rdx)
    1e99:	0b 16 	orl	(%rsi), %edx
    1e9b:	48 00 00 	addb	%al, (%rax)
    1e9e:	00 03 	addb	%al, (%rbx)
    1ea0:	08 07 	orb	%al, (%rdi)
    1ea2:	6d 	insl	%dx, %es:(%rdi)
    1ea3:	01 00 	addl	%eax, (%rax)
    1ea5:	00 03 	addb	%al, (%rbx)
    1ea7:	08 07 	orb	%al, (%rdi)
    1ea9:	68 01 00 00 04 	pushq	$67108865
    1eae:	0e  <unknown>
    1eaf:	00 00 	addb	%al, (%rax)
    1eb1:	00 02 	addb	%al, (%rdx)
    1eb3:	11 1c 62 	adcl	%ebx, (%rdx,%riz,2)
    1eb6:	00 00 	addb	%al, (%rax)
    1eb8:	00 03 	addb	%al, (%rbx)
    1eba:	01 06 	addl	%eax, (%rsi)
    1ebc:	5c 	popq	%rsp
    1ebd:	01 00 	addl	%eax, (%rax)
    1ebf:	00 03 	addb	%al, (%rbx)
    1ec1:	02 05 17 00 00 00 	addb	23(%rip), %al
    1ec7:	12 04 05 69 6e 74 00 	adcb	7630441(,%rax), %al
    1ece:	03 08 	addl	(%rax), %ecx
    1ed0:	05 1e 01 00 00 	addl	$286, %eax
    1ed5:	03 08 	addl	(%rax), %ecx
    1ed7:	05 19 01 00 00 	addl	$281, %eax
    1edc:	13 08 	adcl	(%rax), %ecx
    1ede:	14 3a 	adcb	$58, %al
    1ee0:	07  <unknown>
    1ee1:	00 00 	addb	%al, (%rax)
    1ee3:	0d 03 0f 10 cf 	orl	$3473936131, %eax
    1ee8:	00 00 	addb	%al, (%rax)
    1eea:	00 05 d8 06 00 00 	addb	%al, 1752(%rip)
    1ef0:	03 11 	addl	(%rcx), %edx
    1ef2:	0d 35 00 00 00 	orl	$53, %eax
    1ef7:	00 05 c5 03 00 00 	addb	%al, 965(%rip)
    1efd:	03 12 	addl	(%rdx), %edx
    1eff:	0e  <unknown>
    1f00:	4f 00 00 	addb	%r8b, (%r8)
    1f03:	00 01 	addb	%al, (%rcx)
    1f05:	05 83 07 00 00 	addl	$1923, %eax
    1f0a:	03 13 	addl	(%rbx), %edx
    1f0c:	17  <unknown>
    1f0d:	cf 	iretl
    1f0e:	00 00 	addb	%al, (%rax)
    1f10:	00 05 00 09 9a 00 	addb	%al, 10094848(%rip)
    1f16:	00 00 	addb	%al, (%rax)
    1f18:	04 0e 	addb	$14, %al
    1f1a:	07  <unknown>
    1f1b:	00 00 	addb	%al, (%rax)
    1f1d:	03 14 1b 	addl	(%rbx,%rbx), %edx
    1f20:	9a  <unknown>
    1f21:	00 00 	addb	%al, (%rax)
    1f23:	00 0c 18 	addb	%cl, (%rax,%rbx)
    1f26:	03 16 	addl	(%rsi), %edx
    1f28:	10 01 	adcb	%al, (%rcx)
    1f2a:	00 00 	addb	%al, (%rax)
    1f2c:	05 f3 06 00 00 	addl	$1779, %eax
    1f31:	03 18 	addl	(%rax), %ebx
    1f33:	12 10 	adcb	(%rax), %dl
    1f35:	01 00 	addl	%eax, (%rax)
    1f37:	00 00 	addb	%al, (%rax)
    1f39:	05 4c 07 00 00 	addl	$1868, %eax
    1f3e:	03 19 	addl	(%rcx), %ebx
    1f40:	0e  <unknown>
    1f41:	69 00 00 00 08 05 	imull	$84410368, (%rax), %eax
    1f47:	c5 03 00  <unknown>
    1f4a:	00 03 	addb	%al, (%rbx)
    1f4c:	1a 0e 	sbbb	(%rsi), %cl
    1f4e:	69 00 00 00 10 00 	imull	$1048576, (%rax), %eax
    1f54:	09 d4 	orl	%edx, %esp
    1f56:	00 00 	addb	%al, (%rax)
    1f58:	00 04 d1 	addb	%al, (%rcx,%rdx,8)
    1f5b:	06  <unknown>
    1f5c:	00 00 	addb	%al, (%rax)
    1f5e:	03 1b 	addl	(%rbx), %ebx
    1f60:	1b e0 	sbbl	%eax, %esp
    1f62:	00 00 	addb	%al, (%rax)
    1f64:	00 0d 1a 07 00 00 	addb	%cl, 1818(%rip)
    1f6a:	03 1d 2c 01 00 00 	addl	300(%rip), %ebx
    1f70:	09 15 01 00 00 0c 	orl	%edx, 201326593(%rip)
    1f76:	08 04 4c 	orb	%al, (%rsp,%rcx,2)
    1f79:	d2 01 	rolb	%cl, (%rcx)
    1f7b:	00 00 	addb	%al, (%rax)
    1f7d:	01 a6 06 00 00 4e 	addl	%esp, 1308622854(%rsi)
    1f83:	69 00 00 00 01 00 	imull	$65536, (%rax), %eax
    1f89:	0b 72 77 	orl	119(%rdx), %esi
    1f8c:	00 4f 69 	addb	%cl, 105(%rdi)
    1f8f:	00 00 	addb	%al, (%rax)
    1f91:	00 01 	addb	%al, (%rcx)
    1f93:	01 d7 	addl	%edx, %edi
    1f95:	05 00 00 50 69 	addl	$1766850560, %eax
    1f9a:	00 00 	addb	%al, (%rax)
    1f9c:	00 01 	addb	%al, (%rcx)
    1f9e:	02 0b 	addb	(%rbx), %cl
    1fa0:	70 77 	jo	119 <video.c+0x2019>
    1fa2:	74 00 	je	0 <video.c+0x1fa4>
    1fa4:	51 	pushq	%rcx
    1fa5:	69 00 00 00 03 0b 	imull	$184745984, (%rax), %eax
    1fab:	70 63 	jo	99 <video.c+0x2010>
    1fad:	64 00 52 69 	addb	%dl, %fs:105(%rdx)
    1fb1:	00 00 	addb	%al, (%rax)
    1fb3:	00 04 01 	addb	%al, (%rcx,%rax)
    1fb6:	47 05 00 00 53 69 	addl	$1767047168, %eax
    1fbc:	00 00 	addb	%al, (%rax)
    1fbe:	00 01 	addb	%al, (%rcx)
    1fc0:	05 01 0e 05 00 	addl	$331265, %eax
    1fc5:	00 54 69 00 	addb	%dl, (%rcx,%rbp,2)
    1fc9:	00 00 	addb	%al, (%rax)
    1fcb:	01 06 	addl	%eax, (%rsi)
    1fcd:	01 cc 	addl	%ecx, %esp
    1fcf:	06  <unknown>
    1fd0:	00 00 	addb	%al, (%rax)
    1fd2:	55 	pushq	%rbp
    1fd3:	69 00 00 00 01 07 	imull	$117506048, (%rax), %eax
    1fd9:	01 17 	addl	%edx, (%rdi)
    1fdb:	05 00 00 56 69 	addl	$1767243776, %eax
    1fe0:	00 00 	addb	%al, (%rax)
    1fe2:	00 04 08 	addb	%al, (%rax,%rcx)
    1fe5:	01 1f 	addl	%ebx, (%rdi)
    1fe7:	04 00 	addb	$0, %al
    1fe9:	00 57 69 	addb	%dl, 105(%rdi)
    1fec:	00 00 	addb	%al, (%rax)
    1fee:	00 1c 0c 	addb	%bl, (%rsp,%rcx)
    1ff1:	01 ab 05 00 00 58 	addl	%ebp, 1476395013(%rbx)
    1ff7:	69 00 00 00 0c 28 	imull	$671875072, (%rax), %eax
    1ffd:	01 20 	addl	%esp, (%rax)
    1fff:	05 00 00 59 69 	addl	$1767440384, %eax
    2004:	00 00 	addb	%al, (%rax)
    2006:	00 0b 	addb	%cl, (%rbx)
    2008:	34 01 	xorb	$1, %al
    200a:	0c 06 	orb	$6, %al
    200c:	00 00 	addb	%al, (%rax)
    200e:	5a 	popq	%rdx
    200f:	69 00 00 00 01 3f 	imull	$1057030144, (%rax), %eax
    2015:	00 04 50 	addb	%al, (%rax,%rdx,2)
    2018:	05 00 00 04 5b 	addl	$1526988800, %eax
    201d:	1b 31 	sbbl	(%rcx), %esi
    201f:	01 00 	addl	%eax, (%rax)
    2021:	00 15 00 10 04 5d 	addb	%dl, 1560547328(%rip)
    2027:	09 f6 	orl	%esi, %esi
    2029:	01 00 	addl	%eax, (%rax)
    202b:	00 05 cf 04 00 00 	addb	%al, 1231(%rip)
    2031:	04 5f 	addb	$95, %al
    2033:	11 f6 	adcl	%esi, %esi
    2035:	01 00 	addl	%eax, (%rax)
    2037:	00 00 	addb	%al, (%rax)
    2039:	00 16 	addb	%dl, (%rsi)
    203b:	d2 01 	rolb	%cl, (%rcx)
    203d:	00 00 	addb	%al, (%rax)
    203f:	07  <unknown>
    2040:	02 00 	addb	(%rax), %al
    2042:	00 17 	addb	%dl, (%rdi)
    2044:	5b 	popq	%rbx
    2045:	00 00 	addb	%al, (%rax)
    2047:	00 ff 	addb	%bh, %bh
    2049:	01 00 	addl	%eax, (%rax)
    204b:	04 7d 	addb	$125, %al
    204d:	05 00 00 04 60 	addl	$1610874880, %eax
    2052:	1b de 	sbbl	%esi, %ebx
    2054:	01 00 	addl	%eax, (%rax)
    2056:	00 0d b5 05 00 00 	addb	%cl, 1461(%rip)
    205c:	04 62 	addb	$98, %al
    205e:	1e  <unknown>
    205f:	02 00 	addb	(%rax), %al
    2061:	00 09 	addb	%cl, (%rcx)
    2063:	07  <unknown>
    2064:	02 00 	addb	(%rax), %al
    2066:	00 18 	addb	%bl, (%rax)
    2068:	21 01 	andl	%eax, (%rcx)
    206a:	00 00 	addb	%al, (%rax)
    206c:	01 06 	addl	%eax, (%rsi)
    206e:	09 09 	orl	%ecx, (%rcx)
    2070:	03 50 34 	addl	52(%rax), %edx
    2073:	01 00 	addl	%eax, (%rax)
    2075:	00 00 	addb	%al, (%rax)
    2077:	00 00 	addb	%al, (%rax)
    2079:	0e  <unknown>
    207a:	bf 02 00 00 05 	movl	$83886082, %edi
    207f:	28 50 02 	subb	%dl, 2(%rax)
    2082:	00 00 	addb	%al, (%rax)
    2084:	06  <unknown>
    2085:	50 	pushq	%rax
    2086:	02 00 	addb	(%rax), %al
    2088:	00 06 	addb	%al, (%rsi)
    208a:	2e 00 00 	addb	%al, %cs:(%rax)
    208d:	00 06 	addb	%al, (%rsi)
    208f:	69 00 00 00 00 09 	imull	$150994944, (%rax), %eax
    2095:	2e 00 00 	addb	%al, %cs:(%rax)
    2098:	00 0e 	addb	%cl, (%rsi)
    209a:	2e 05 00 00 04 65 	addl	$1694760960, %eax
    20a0:	75 02 	jne	2 <video.c+0x20a4>
    20a2:	00 00 	addb	%al, (%rax)
    20a4:	06  <unknown>
    20a5:	1e  <unknown>
    20a6:	02 00 	addb	(%rax), %al
    20a8:	00 06 	addb	%al, (%rsi)
    20aa:	69 00 00 00 06 69 	imull	$1762000896, (%rax), %eax
    20b0:	00 00 	addb	%al, (%rax)
    20b2:	00 06 	addb	%al, (%rsi)
    20b4:	4f 00 00 	addb	%r8b, (%r8)
    20b7:	00 00 	addb	%al, (%rax)
    20b9:	19 d3 	sbbl	%edx, %ebx
    20bb:	03 00 	addl	(%rax), %eax
    20bd:	00 06 	addb	%al, (%rsi)
    20bf:	19 07 	sbbl	%eax, (%rdi)
    20c1:	98 	cwtl
    20c2:	00 00 	addb	%al, (%rax)
    20c4:	00 87 02 00 00 1a 	addb	%al, 436207618(%rdi)
    20ca:	00 0f 	addb	%cl, (%rdi)
    20cc:	4b 07  <unknown>
    20ce:	00 00 	addb	%al, (%rax)
    20d0:	7b 2e 	jnp	46 <video.c+0x2100>
    20d2:	1e  <unknown>
    20d3:	01 00 	addl	%eax, (%rax)
    20d5:	00 00 	addb	%al, (%rax)
    20d7:	00 00 	addb	%al, (%rax)
    20d9:	f2 01 00 	repne		addl	%eax, (%rax)
    20dc:	00 00 	addb	%al, (%rax)
    20de:	00 00 	addb	%al, (%rax)
    20e0:	00 01 	addb	%al, (%rcx)
    20e2:	9c 	pushfq
    20e3:	fa 	cli
    20e4:	02 00 	addb	(%rax), %al
    20e6:	00 07 	addb	%al, (%rdi)
    20e8:	e4 06 	inb	$6, %al
    20ea:	00 00 	addb	%al, (%rax)
    20ec:	7b 12 	jnp	18 <video.c+0x2100>
    20ee:	98 	cwtl
    20ef:	00 00 	addb	%al, (%rax)
    20f1:	00 02 	addb	%al, (%rdx)
    20f3:	91 	xchgl	%ecx, %eax
    20f4:	48 02 44 07 00 	addb	(%rdi,%rax), %al
    20f9:	00 80 12 10 01 00 	addb	%al, 69650(%rax)
    20ff:	00 02 	addb	%al, (%rdx)
    2101:	91 	xchgl	%ecx, %eax
    2102:	68 02 fe 06 00 	pushq	$458242
    2107:	00 81 09 83 00 00 	addb	%al, 33545(%rcx)
    210d:	00 02 	addb	%al, (%rdx)
    210f:	91 	xchgl	%ecx, %eax
    2110:	5c 	popq	%rsp
    2111:	02 e9 	addb	%cl, %ch
    2113:	06  <unknown>
    2114:	00 00 	addb	%al, (%rax)
    2116:	81 19 83 00 00 00 	sbbl	$131, (%rcx)
    211c:	02 91 58 08 63 1e 	addb	509806680(%rcx), %dl
    2122:	01 00 	addl	%eax, (%rax)
    2124:	00 00 	addb	%al, (%rax)
    2126:	00 00 	addb	%al, (%rax)
    2128:	ba 01 00 00 00 	movl	$1, %edx
    212d:	00 00 	addb	%al, (%rax)
    212f:	00 0a 	addb	%cl, (%rdx)
    2131:	69 00 82 17 10 01 	imull	$17831810, (%rax), %eax
    2137:	00 00 	addb	%al, (%rax)
    2139:	02 91 60 00 00 1b 	addb	452984928(%rcx), %dl
    213f:	68 07 00 00 01 	pushq	$16777223
    2144:	24 07 	andb	$7, %al
    2146:	98 	cwtl
    2147:	00 00 	addb	%al, (%rax)
    2149:	00 33 	addb	%dh, (%rbx)
    214b:	1b 01 	sbbl	(%rcx), %eax
    214d:	00 00 	addb	%al, (%rax)
    214f:	00 00 	addb	%al, (%rax)
    2151:	00 fb 	addb	%bh, %bl
    2153:	02 00 	addb	(%rax), %al
    2155:	00 00 	addb	%al, (%rax)
    2157:	00 00 	addb	%al, (%rax)
    2159:	00 01 	addb	%al, (%rcx)
    215b:	9c 	pushfq
    215c:	f0 	lock
    215d:	03 00 	addl	(%rax), %eax
    215f:	00 07 	addb	%al, (%rdi)
    2161:	c5 03 00  <unknown>
    2164:	00 24 18 	addb	%ah, (%rax,%rbx)
    2167:	69 00 00 00 03 91 	imull	$2432892928, (%rax), %eax
    216d:	b8 7f 08 55 1b 	movl	$458557567, %eax
    2172:	01 00 	addl	%eax, (%rax)
    2174:	00 00 	addb	%al, (%rax)
    2176:	00 00 	addb	%al, (%rax)
    2178:	d2 02 	rolb	%cl, (%rdx)
    217a:	00 00 	addb	%al, (%rax)
    217c:	00 00 	addb	%al, (%rax)
    217e:	00 00 	addb	%al, (%rax)
    2180:	0a 69 00 	orb	(%rcx), %ch
    2183:	2a 17 	subb	(%rdi), %dl
    2185:	10 01 	adcb	%al, (%rcx)
    2187:	00 00 	addb	%al, (%rax)
    2189:	02 91 68 10 8e 1b 	addb	462295144(%rcx), %dl
    218f:	01 00 	addl	%eax, (%rax)
    2191:	00 00 	addb	%al, (%rax)
    2193:	00 00 	addb	%al, (%rax)
    2195:	64 01 00 	addl	%eax, %fs:(%rax)
    2198:	00 00 	addb	%al, (%rax)
    219a:	00 00 	addb	%al, (%rax)
    219c:	00 ce 	addb	%cl, %dh
    219e:	03 00 	addl	(%rax), %eax
    21a0:	00 02 	addb	%al, (%rdx)
    21a2:	51 	pushq	%rcx
    21a3:	07  <unknown>
    21a4:	00 00 	addb	%al, (%rax)
    21a6:	32 1a 	xorb	(%rdx), %bl
    21a8:	69 00 00 00 02 91 	imull	$2432827392, (%rax), %eax
    21ae:	50 	pushq	%rax
    21af:	10 af 1b 01 00 00 	adcb	%ch, 283(%rdi)
    21b5:	00 00 	addb	%al, (%rax)
    21b7:	00 88 00 00 00 00 	addb	%cl, (%rax)
    21bd:	00 00 	addb	%al, (%rax)
    21bf:	00 8f 03 00 00 02 	addb	%cl, 33554435(%rdi)
    21c5:	70 07 	jo	7 <video.c+0x21ce>
    21c7:	00 00 	addb	%al, (%rax)
    21c9:	38 22 	cmpb	%ah, (%rdx)
    21cb:	10 01 	adcb	%al, (%rcx)
    21cd:	00 00 	addb	%al, (%rax)
    21cf:	02 91 40 00 08 37 	addb	923271232(%rcx), %dl
    21d5:	1c 01 	sbbb	$1, %al
    21d7:	00 00 	addb	%al, (%rax)
    21d9:	00 00 	addb	%al, (%rax)
    21db:	00 bb 00 00 00 00 	addb	%bh, (%rbx)
    21e1:	00 00 	addb	%al, (%rax)
    21e3:	00 02 	addb	%al, (%rdx)
    21e5:	70 07 	jo	7 <video.c+0x21ee>
    21e7:	00 00 	addb	%al, (%rax)
    21e9:	48 22 10 	andb	(%rax), %dl
    21ec:	01 00 	addl	%eax, (%rax)
    21ee:	00 02 	addb	%al, (%rdx)
    21f0:	91 	xchgl	%ecx, %eax
    21f1:	48 08 37 	orb	%sil, (%rdi)
    21f4:	1c 01 	sbbb	$1, %al
    21f6:	00 00 	addb	%al, (%rax)
    21f8:	00 00 	addb	%al, (%rax)
    21fa:	00 33 	addb	%dh, (%rbx)
    21fc:	00 00 	addb	%al, (%rax)
    21fe:	00 00 	addb	%al, (%rax)
    2200:	00 00 	addb	%al, (%rax)
    2202:	00 0a 	addb	%cl, (%rdx)
    2204:	7a 00 	jp	0 <video.c+0x2206>
    2206:	43 1e  <unknown>
    2208:	83 00 00 	addl	$0, (%rax)
    220b:	00 02 	addb	%al, (%rdx)
    220d:	91 	xchgl	%ecx, %eax
    220e:	64 00 00 	addb	%al, %fs:(%rax)
    2211:	00 08 	addb	%cl, (%rax)
    2213:	58 	popq	%rax
    2214:	1d 01 00 00 00 	sbbl	$1, %eax
    2219:	00 00 	addb	%al, (%rax)
    221b:	b4 00 	movb	$0, %ah
    221d:	00 00 	addb	%al, (%rax)
    221f:	00 00 	addb	%al, (%rax)
    2221:	00 00 	addb	%al, (%rax)
    2223:	02 70 07 	addb	7(%rax), %dh
    2226:	00 00 	addb	%al, (%rax)
    2228:	66 1e  <unknown>
    222a:	10 01 	adcb	%al, (%rcx)
    222c:	00 00 	addb	%al, (%rax)
    222e:	02 91 58 00 00 00 	addb	88(%rcx), %dl
    2234:	0f 26  <unknown>
    2236:	07  <unknown>
    2237:	00 00 	addb	%al, (%rax)
    2239:	1d bf 1a 01 00 	sbbl	$72383, %eax
    223e:	00 00 	addb	%al, (%rax)
    2240:	00 00 	addb	%al, (%rax)
    2242:	74 00 	je	0 <video.c+0x2244>
    2244:	00 00 	addb	%al, (%rax)
    2246:	00 00 	addb	%al, (%rax)
    2248:	00 00 	addb	%al, (%rax)
    224a:	01 9c 37 04 00 00 07 	addl	%ebx, 117440516(%rdi,%rsi)
    2251:	09 07 	orl	%eax, (%rdi)
    2253:	00 00 	addb	%al, (%rax)
    2255:	1d 19 2c 01 00 	sbbl	$76825, %eax
    225a:	00 02 	addb	%al, (%rdx)
    225c:	91 	xchgl	%ecx, %eax
    225d:	58 	popq	%rax
    225e:	07  <unknown>
    225f:	c5 03 00  <unknown>
    2262:	00 1d 28 4f 00 00 	addb	%bl, 20264(%rip)
    2268:	00 02 	addb	%al, (%rdx)
    226a:	91 	xchgl	%ecx, %eax
    226b:	54 	pushq	%rsp
    226c:	02 31 	addb	(%rcx), %dh
    226e:	07  <unknown>
    226f:	00 00 	addb	%al, (%rax)
    2271:	1f  <unknown>
    2272:	0e  <unknown>
    2273:	69 00 00 00 02 91 	imull	$2432827392, (%rax), %eax
    2279:	68 00 1c df 00 	pushq	$14621696
    227e:	00 00 	addb	%al, (%rax)
    2280:	01 08 	addl	%ecx, (%rax)
    2282:	06  <unknown>
    2283:	eb 19 	jmp	25 <video.c+0x229e>
    2285:	01 00 	addl	%eax, (%rax)
    2287:	00 00 	addb	%al, (%rax)
    2289:	00 00 	addb	%al, (%rax)
    228b:	d4  <unknown>
    228c:	00 00 	addb	%al, (%rax)
    228e:	00 00 	addb	%al, (%rax)
    2290:	00 00 	addb	%al, (%rax)
    2292:	00 01 	addb	%al, (%rcx)
    2294:	9c 	pushfq
    2295:	07  <unknown>
    2296:	e3 06 	jrcxz	6 <video.c+0x229e>
    2298:	00 00 	addb	%al, (%rax)
    229a:	08 18 	orb	%bl, (%rax)
    229c:	69 00 00 00 03 91 	imull	$2432892928, (%rax), %eax
    22a2:	b8 7f 07 c5 03 	movl	$63244159, %eax
    22a7:	00 00 	addb	%al, (%rax)
    22a9:	08 28 	orb	%ch, (%rax)
    22ab:	69 00 00 00 03 91 	imull	$2432892928, (%rax), %eax
    22b1:	b0 7f 	movb	$127, %al
    22b3:	02 5d 07 	addb	7(%rbp), %bl
    22b6:	00 00 	addb	%al, (%rax)
    22b8:	10 0d 2c 01 00 00 	adcb	%cl, 300(%rip)
    22be:	02 91 50 02 79 07 	addb	125370960(%rcx), %dl
    22c4:	00 00 	addb	%al, (%rax)
    22c6:	14 12 	adcb	$18, %al
    22c8:	10 01 	adcb	%al, (%rcx)
    22ca:	00 00 	addb	%al, (%rax)
    22cc:	02 91 48 08 fc 19 	addb	435947592(%rcx), %dl
    22d2:	01 00 	addl	%eax, (%rax)
    22d4:	00 00 	addb	%al, (%rax)
    22d6:	00 00 	addb	%al, (%rax)
    22d8:	4d 00 00 	addb	%r8b, (%r8)
    22db:	00 00 	addb	%al, (%rax)
    22dd:	00 00 	addb	%al, (%rax)
    22df:	00 0a 	addb	%cl, (%rdx)
    22e1:	69 00 0b 0e 83 00 	imull	$8588811, (%rax), %eax
    22e7:	00 00 	addb	%al, (%rax)
    22e9:	02 91 5c 00 00 00 	addb	92(%rcx), %dl
    22ef:	3f  <unknown>
    22f0:	01 00 	addl	%eax, (%rax)
    22f2:	00 05 00 01 08 dc 	addb	%al, -603455232(%rip)
    22f8:	0b 00 	orl	(%rax), %eax
    22fa:	00 05 3b 00 00 00 	addb	%al, 59(%rip)
    2300:	1d d4 04 00 00 	sbbl	$1236, %eax
    2305:	19 00 	sbbl	%eax, (%rax)
    2307:	00 00 	addb	%al, (%rax)
    2309:	20 20 	andb	%ah, (%rax)
    230b:	01 00 	addl	%eax, (%rax)
    230d:	00 00 	addb	%al, (%rax)
    230f:	00 00 	addb	%al, (%rax)
    2311:	7e 00 	jle	0 <video.c+0x2313>
    2313:	00 00 	addb	%al, (%rax)
    2315:	00 00 	addb	%al, (%rax)
    2317:	00 00 	addb	%al, (%rax)
    2319:	77 10 	ja	16 <video.c+0x232b>
    231b:	00 00 	addb	%al, (%rax)
    231d:	06  <unknown>
    231e:	8d 07 	leal	(%rdi), %eax
    2320:	00 00 	addb	%al, (%rax)
    2322:	01 21 	addl	%esp, (%rcx)
    2324:	06  <unknown>
    2325:	90 	nop
    2326:	20 01 	andb	%al, (%rcx)
    2328:	00 00 	addb	%al, (%rax)
    232a:	00 00 	addb	%al, (%rax)
    232c:	00 0e 	addb	%cl, (%rsi)
    232e:	00 00 	addb	%al, (%rax)
    2330:	00 00 	addb	%al, (%rax)
    2332:	00 00 	addb	%al, (%rax)
    2334:	00 01 	addb	%al, (%rcx)
    2336:	9c 	pushfq
    2337:	02 a6 07 00 00 1b 	addb	452984839(%rsi), %ah
    233d:	73 20 	jae	32 <video.c+0x235f>
    233f:	01 00 	addl	%eax, (%rax)
    2341:	00 00 	addb	%al, (%rax)
    2343:	00 00 	addb	%al, (%rax)
    2345:	1d 00 00 00 00 	sbbl	$0, %eax
    234a:	00 00 	addb	%al, (%rax)
    234c:	00 01 	addb	%al, (%rcx)
    234e:	9c 	pushfq
    234f:	81 00 00 00 01 9c 	addl	$2617311232, (%rax)
    2355:	07  <unknown>
    2356:	00 00 	addb	%al, (%rax)
    2358:	1b 1a 	sbbl	(%rdx), %ebx
    235a:	81 00 00 00 02 91 	addl	$2432827392, (%rax)
    2360:	6c 	insb	%dx, %es:(%rdi)
    2361:	01 a1 07 00 00 1b 	addl	%esp, 452984839(%rcx)
    2367:	2f  <unknown>
    2368:	81 00 00 00 02 91 	addl	$2432827392, (%rax)
    236e:	68 00 03 02 07 	pushq	$117572352
    2373:	b8 01 00 00 07 	movl	$117440513, %eax
    2378:	69 6e 77 00 01 13 10 	imull	$269680896, 119(%rsi), %ebp
    237f:	81 00 00 00 57 20 	addl	$542572544, (%rax)
    2385:	01 00 	addl	%eax, (%rax)
    2387:	00 00 	addb	%al, (%rax)
    2389:	00 00 	addb	%al, (%rax)
    238b:	1c 00 	sbbb	$0, %al
    238d:	00 00 	addb	%al, (%rax)
    238f:	00 00 	addb	%al, (%rax)
    2391:	00 00 	addb	%al, (%rax)
    2393:	01 9c c7 00 00 00 01 	addl	%ebx, 16777216(%rdi,%rax,8)
    239a:	9c 	pushfq
    239b:	07  <unknown>
    239c:	00 00 	addb	%al, (%rax)
    239e:	13 23 	adcl	(%rbx), %esp
    23a0:	81 00 00 00 02 91 	addl	$2432827392, (%rax)
    23a6:	5c 	popq	%rsp
    23a7:	04 95 	addb	$-107, %al
    23a9:	07  <unknown>
    23aa:	00 00 	addb	%al, (%rax)
    23ac:	15 14 81 00 00 	adcl	$33044, %eax
    23b1:	00 02 	addb	%al, (%rdx)
    23b3:	91 	xchgl	%ecx, %eax
    23b4:	6e 	outsb	(%rsi), %dx
    23b5:	00 02 	addb	%al, (%rdx)
    23b7:	88 07 	movb	%al, (%rdi)
    23b9:	00 00 	addb	%al, (%rax)
    23bb:	0c 3a 	orb	$58, %al
    23bd:	20 01 	andb	%al, (%rcx)
    23bf:	00 00 	addb	%al, (%rax)
    23c1:	00 00 	addb	%al, (%rax)
    23c3:	00 1d 00 00 00 00 	addb	%bl, (%rip)
    23c9:	00 00 	addb	%al, (%rax)
    23cb:	00 01 	addb	%al, (%rcx)
    23cd:	9c 	pushfq
    23ce:	00 01 	addb	%al, (%rcx)
    23d0:	00 00 	addb	%al, (%rax)
    23d2:	01 9c 07 00 00 0c 1a 	addl	%ebx, 436994048(%rdi,%rax)
    23d9:	81 00 00 00 02 91 	addl	$2432827392, (%rax)
    23df:	6c 	insb	%dx, %es:(%rdi)
    23e0:	01 a1 07 00 00 0c 	addl	%esp, 201326599(%rcx)
    23e6:	2e 00 01 	addb	%al, %cs:(%rcx)
    23e9:	00 00 	addb	%al, (%rax)
    23eb:	02 91 68 00 03 01 	addb	16973928(%rcx), %dl
    23f1:	08 5a 01 	orb	%bl, 1(%rdx)
    23f4:	00 00 	addb	%al, (%rax)
    23f6:	08 69 6e 	orb	%ch, 110(%rcx)
    23f9:	62  <unknown>
    23fa:	00 01 	addb	%al, (%rcx)
    23fc:	03 0f 	addl	(%rdi), %ecx
    23fe:	00 01 	addb	%al, (%rcx)
    2400:	00 00 	addb	%al, (%rax)
    2402:	20 20 	andb	%ah, (%rax)
    2404:	01 00 	addl	%eax, (%rax)
    2406:	00 00 	addb	%al, (%rax)
    2408:	00 00 	addb	%al, (%rax)
    240a:	1a 00 	sbbb	(%rax), %al
    240c:	00 00 	addb	%al, (%rax)
    240e:	00 00 	addb	%al, (%rax)
    2410:	00 00 	addb	%al, (%rax)
    2412:	01 9c 01 9c 07 00 00 	addl	%ebx, 1948(%rcx,%rax)
    2419:	03 22 	addl	(%rdx), %esp
    241b:	81 00 00 00 02 91 	addl	$2432827392, (%rax)
    2421:	5c 	popq	%rsp
    2422:	04 95 	addb	$-107, %al
    2424:	07  <unknown>
    2425:	00 00 	addb	%al, (%rax)
    2427:	05 13 00 01 00 	addl	$65555, %eax
    242c:	00 02 	addb	%al, (%rdx)
    242e:	91 	xchgl	%ecx, %eax
    242f:	6f 	outsl	(%rsi), %dx
    2430:	00 00 	addb	%al, (%rax)
    2432:	c0 03 00 	rolb	$0, (%rbx)
    2435:	00 05 00 01 08 8b 	addb	%al, -1962409728(%rip)
    243b:	0c 00 	orb	$0, %al
    243d:	00 0f 	addb	%cl, (%rdi)
    243f:	3b 00 	cmpl	(%rax), %eax
    2441:	00 00 	addb	%al, (%rax)
    2443:	1d f5 04 00 00 	sbbl	$1269, %eax
    2448:	19 00 	sbbl	%eax, (%rax)
    244a:	00 00 	addb	%al, (%rax)
    244c:	9e 	sahf
    244d:	20 01 	andb	%al, (%rcx)
    244f:	00 00 	addb	%al, (%rax)
    2451:	00 00 	addb	%al, (%rax)
    2453:	00 d4 	addb	%dl, %ah
    2455:	06  <unknown>
    2456:	00 00 	addb	%al, (%rax)
    2458:	00 00 	addb	%al, (%rax)
    245a:	00 00 	addb	%al, (%rax)
    245c:	ed 	inl	%dx, %eax
    245d:	10 00 	adcb	%al, (%rax)
    245f:	00 02 	addb	%al, (%rdx)
    2461:	01 08 	addl	%ecx, (%rax)
    2463:	5a 	popq	%rdx
    2464:	01 00 	addl	%eax, (%rax)
    2466:	00 04 f4 	addb	%al, (%rsp,%rsi,8)
    2469:	00 00 	addb	%al, (%rax)
    246b:	00 02 	addb	%al, (%rdx)
    246d:	05 17 2e 00 00 	addl	$11799, %eax
    2472:	00 02 	addb	%al, (%rdx)
    2474:	02 07 	addb	(%rdi), %al
    2476:	b8 01 00 00 04 	movl	$67108865, %eax
    247b:	8f 01 	popq	(%rcx)
    247d:	00 00 	addb	%al, (%rax)
    247f:	02 08 	addb	(%rax), %cl
    2481:	18 41 00 	sbbb	%al, (%rcx)
    2484:	00 00 	addb	%al, (%rax)
    2486:	02 04 07 	addb	(%rdi,%rax), %al
    2489:	72 01 	jb	1 <video.c+0x248c>
    248b:	00 00 	addb	%al, (%rax)
    248d:	04 7f 	addb	$127, %al
    248f:	01 00 	addl	%eax, (%rax)
    2491:	00 02 	addb	%al, (%rdx)
    2493:	0b 16 	orl	(%rsi), %edx
    2495:	54 	pushq	%rsp
    2496:	00 00 	addb	%al, (%rax)
    2498:	00 02 	addb	%al, (%rdx)
    249a:	08 07 	orb	%al, (%rdi)
    249c:	6d 	insl	%dx, %es:(%rdi)
    249d:	01 00 	addl	%eax, (%rax)
    249f:	00 02 	addb	%al, (%rdx)
    24a1:	08 07 	orb	%al, (%rdi)
    24a3:	68 01 00 00 04 	pushq	$67108865
    24a8:	0e  <unknown>
    24a9:	00 00 	addb	%al, (%rax)
    24ab:	00 02 	addb	%al, (%rdx)
    24ad:	11 1c 6e 	adcl	%ebx, (%rsi,%rbp,2)
    24b0:	00 00 	addb	%al, (%rax)
    24b2:	00 02 	addb	%al, (%rdx)
    24b4:	01 06 	addl	%eax, (%rsi)
    24b6:	5c 	popq	%rsp
    24b7:	01 00 	addl	%eax, (%rax)
    24b9:	00 02 	addb	%al, (%rdx)
    24bb:	02 05 17 00 00 00 	addb	23(%rip), %al
    24c1:	10 04 05 69 6e 74 00 	adcb	%al, 7630441(,%rax)
    24c8:	02 08 	addb	(%rax), %cl
    24ca:	05 1e 01 00 00 	addl	$286, %eax
    24cf:	02 08 	addb	(%rax), %cl
    24d1:	05 19 01 00 00 	addl	$281, %eax
    24d6:	11 08 	adcl	%ecx, (%rax)
    24d8:	0a 10 	orb	(%rax), %dl
    24da:	06  <unknown>
    24db:	02 01 	addb	(%rcx), %al
    24dd:	00 00 	addb	%al, (%rax)
    24df:	03 85 08 00 00 08 	addl	134217736(%rbp), %eax
    24e5:	0e  <unknown>
    24e6:	48 00 00 	addb	%al, (%rax)
    24e9:	00 00 	addb	%al, (%rax)
    24eb:	03 41 08 	addl	8(%rcx), %eax
    24ee:	00 00 	addb	%al, (%rax)
    24f0:	09 0e 	orl	%ecx, (%rsi)
    24f2:	48 00 00 	addb	%al, (%rax)
    24f5:	00 02 	addb	%al, (%rdx)
    24f7:	03 cc 	addl	%esp, %ecx
    24f9:	06  <unknown>
    24fa:	00 00 	addb	%al, (%rax)
    24fc:	0a 0d 35 00 00 00 	orb	53(%rip), %cl
    2502:	04 03 	addb	$3, %al
    2504:	d8 06 	fadds	(%rsi)
    2506:	00 00 	addb	%al, (%rax)
    2508:	0b 0d 35 00 00 00 	orl	53(%rip), %ecx
    250e:	05 03 5b 08 00 	addl	$547587, %eax
    2513:	00 0c 0e 	addb	%cl, (%rsi,%rcx)
    2516:	48 00 00 	addb	%al, (%rax)
    2519:	00 06 	addb	%al, (%rsi)
    251b:	03 c5 	addl	%ebp, %eax
    251d:	07  <unknown>
    251e:	00 00 	addb	%al, (%rax)
    2520:	0d 0e 5b 00 00 	orl	$23310, %eax
    2525:	00 08 	addb	%cl, (%rax)
    2527:	03 eb 	addl	%ebx, %ebp
    2529:	07  <unknown>
    252a:	00 00 	addb	%al, (%rax)
    252c:	0e  <unknown>
    252d:	0e  <unknown>
    252e:	5b 	popq	%rbx
    252f:	00 00 	addb	%al, (%rax)
    2531:	00 0c 00 	addb	%cl, (%rax,%rax)
    2534:	04 e7 	addb	$-25, %al
    2536:	08 00 	orb	%al, (%rax)
    2538:	00 03 	addb	%al, (%rbx)
    253a:	0f 1b a6 00 00 00 0a  <unknown>
    2541:	0a 11 	orb	(%rcx), %dl
    2543:	2e 01 00 	addl	%eax, %cs:(%rax)
    2546:	00 03 	addb	%al, (%rbx)
    2548:	c5 03 00  <unknown>
    254b:	00 13 	addb	%dl, (%rbx)
    254d:	0e  <unknown>
    254e:	48 00 00 	addb	%al, (%rax)
    2551:	00 00 	addb	%al, (%rax)
    2553:	03 e3 	addl	%ebx, %esp
    2555:	06  <unknown>
    2556:	00 00 	addb	%al, (%rax)
    2558:	14 0e 	adcb	$14, %al
    255a:	75 00 	jne	0 <video.c+0x255c>
    255c:	00 00 	addb	%al, (%rax)
    255e:	02 00 	addb	(%rax), %al
    2560:	04 f1 	addb	$-15, %al
    2562:	07  <unknown>
    2563:	00 00 	addb	%al, (%rax)
    2565:	03 15 1b 0e 01 00 	addl	69147(%rip), %edx
    256b:	00 12 	addb	%dl, (%rdx)
    256d:	01 08 	addl	%ecx, (%rax)
    256f:	00 00 	addb	%al, (%rax)
    2571:	03 28 	addl	(%rax), %ebp
    2573:	0e  <unknown>
    2574:	2e 01 00 	addl	%eax, %cs:(%rax)
    2577:	00 13 	addb	%dl, (%rbx)
    2579:	3a 01 	cmpb	(%rcx), %al
    257b:	00 00 	addb	%al, (%rax)
    257d:	01 07 	addl	%eax, (%rdi)
    257f:	07  <unknown>
    2580:	09 03 	orl	%eax, (%rbx)
    2582:	60  <unknown>
    2583:	34 01 	xorb	$1, %al
    2585:	00 00 	addb	%al, (%rax)
    2587:	00 00 	addb	%al, (%rax)
    2589:	00 14 50 	addb	%dl, (%rax,%rdx,2)
    258c:	08 00 	orb	%al, (%rax)
    258e:	00 01 	addb	%al, (%rcx)
    2590:	84 0d 6e 01 00 00 	testb	%cl, 366(%rip)
    2596:	09 03 	orl	%eax, (%rbx)
    2598:	f8 	clc
    2599:	3f  <unknown>
    259a:	01 00 	addl	%eax, (%rax)
    259c:	00 00 	addb	%al, (%rax)
    259e:	00 00 	addb	%al, (%rax)
    25a0:	07  <unknown>
    25a1:	02 01 	addb	(%rcx), %al
    25a3:	00 00 	addb	%al, (%rax)
    25a5:	01 7f 08 	addl	%edi, 8(%rdi)
    25a8:	00 00 	addb	%al, (%rax)
    25aa:	7d 01 	jge	1 <video.c+0x25ad>
    25ac:	79 08 	jns	8 <video.c+0x25b6>
    25ae:	00 00 	addb	%al, (%rax)
    25b0:	7c 01 	jl	1 <video.c+0x25b3>
    25b2:	73 08 	jae	8 <video.c+0x25bc>
    25b4:	00 00 	addb	%al, (%rax)
    25b6:	7b 01 	jnp	1 <video.c+0x25b9>
    25b8:	e5 07 	inl	$7, %eax
    25ba:	00 00 	addb	%al, (%rax)
    25bc:	7a 01 	jp	1 <video.c+0x25bf>
    25be:	6d 	insl	%dx, %es:(%rdi)
    25bf:	08 00 	orb	%al, (%rax)
    25c1:	00 79 01 	addb	%bh, 1(%rcx)
    25c4:	67 08 00 	orb	%al, (%eax)
    25c7:	00 78 01 	addb	%bh, 1(%rax)
    25ca:	e0 07 	loopne	7
    25cc:	00 00 	addb	%al, (%rax)
    25ce:	77 01 	ja	1 <video.c+0x25d1>
    25d0:	db 07 	fildl	(%rdi)
    25d2:	00 00 	addb	%al, (%rax)
    25d4:	76 01 	jbe	1 <video.c+0x25d7>
    25d6:	d6  <unknown>
    25d7:	07  <unknown>
    25d8:	00 00 	addb	%al, (%rax)
    25da:	75 01 	jne	1 <video.c+0x25dd>
    25dc:	d1 07 	roll	(%rdi)
    25de:	00 00 	addb	%al, (%rax)
    25e0:	74 01 	je	1 <video.c+0x25e3>
    25e2:	35 08 00 00 73 	xorl	$1929379848, %eax
    25e7:	01 c0 	addl	%eax, %eax
    25e9:	07  <unknown>
    25ea:	00 00 	addb	%al, (%rax)
    25ec:	72 01 	jb	1 <video.c+0x25ef>
    25ee:	bb 07 00 00 71 	movl	$1895825415, %ebx
    25f3:	01 b6 07 00 00 70 	addl	%esi, 1879048199(%rsi)
    25f9:	01 b1 07 00 00 6f 	addl	%esi, 1862270983(%rcx)
    25ff:	01 30 	addl	%esi, (%rax)
    2601:	08 00 	orb	%al, (%rax)
    2603:	00 6e 01 	addb	%ch, 1(%rsi)
    2606:	2a 08 	subb	(%rax), %cl
    2608:	00 00 	addb	%al, (%rax)
    260a:	6a 01 	pushq	$1
    260c:	ab 	stosl	%eax, %es:(%rdi)
    260d:	07  <unknown>
    260e:	00 00 	addb	%al, (%rax)
    2610:	68 01 c8 08 00 	pushq	$575489
    2615:	00 67 01 	addb	%ah, 1(%rdi)
    2618:	c2 08 00 	retq	$8
    261b:	00 66 01 	addb	%ah, 1(%rsi)
    261e:	bc 08 00 00 65 	movl	$1694498824, %esp
    2623:	01 b6 08 00 00 64 	addl	%esi, 1677721608(%rsi)
    2629:	01 b0 08 00 00 62 	addl	%esi, 1644167176(%rax)
    262f:	01 aa 08 00 00 61 	addl	%ebp, 1627389960(%rdx)
    2635:	01 4a 08 	addl	%ecx, 8(%rdx)
    2638:	00 00 	addb	%al, (%rax)
    263a:	60  <unknown>
    263b:	01 a4 08 00 00 5f 01 	addl	%esp, 23003136(%rax,%rcx)
    2642:	9e 	sahf
    2643:	08 00 	orb	%al, (%rax)
    2645:	00 5e 01 	addb	%bl, 1(%rsi)
    2648:	25 08 00 00 5d 	andl	$1560281096, %eax
    264d:	01 20 	addl	%esp, (%rax)
    264f:	08 00 	orb	%al, (%rax)
    2651:	00 5c 01 1b 	addb	%bl, 27(%rcx,%rax)
    2655:	08 00 	orb	%al, (%rax)
    2657:	00 5b 01 	addb	%bl, 1(%rbx)
    265a:	16  <unknown>
    265b:	08 00 	orb	%al, (%rax)
    265d:	00 5a 01 	addb	%bl, 1(%rdx)
    2660:	11 08 	adcl	%ecx, (%rax)
    2662:	00 00 	addb	%al, (%rax)
    2664:	59 	popq	%rcx
    2665:	01 0c 08 	addl	%ecx, (%rax,%rcx)
    2668:	00 00 	addb	%al, (%rax)
    266a:	58 	popq	%rax
    266b:	01 d8 	addl	%ebx, %eax
    266d:	08 00 	orb	%al, (%rax)
    266f:	00 57 01 	addb	%dl, 1(%rdi)
    2672:	d3 08 	rorl	%cl, (%rax)
    2674:	00 00 	addb	%al, (%rax)
    2676:	56 	pushq	%rsi
    2677:	01 fc 	addl	%edi, %esp
    2679:	07  <unknown>
    267a:	00 00 	addb	%al, (%rax)
    267c:	55 	pushq	%rbp
    267d:	01 f7 	addl	%esi, %edi
    267f:	07  <unknown>
    2680:	00 00 	addb	%al, (%rax)
    2682:	54 	pushq	%rsp
    2683:	0b bf 02 00 00 04 	orl	67108866(%rdi), %edi
    2689:	28 6c 02 00 	subb	%ch, (%rdx,%rax)
    268d:	00 05 6c 02 00 00 	addb	%al, 620(%rip)
    2693:	05 2e 00 00 00 	addl	$46, %eax
    2698:	05 75 00 00 00 	addl	$117, %eax
    269d:	00 07 	addb	%al, (%rdi)
    269f:	2e 00 00 	addb	%al, %cs:(%rax)
    26a2:	00 0c d3 	addb	%cl, (%rbx,%rdx,8)
    26a5:	03 00 	addl	(%rax), %eax
    26a7:	00 05 19 07 a4 00 	addb	%al, 10749721(%rip)
    26ad:	00 00 	addb	%al, (%rax)
    26af:	83 02 00 	addl	$0, (%rdx)
    26b2:	00 08 	addb	%cl, (%rax)
    26b4:	00 0b 	addb	%cl, (%rbx)
    26b6:	88 07 	movb	%al, (%rdi)
    26b8:	00 00 	addb	%al, (%rax)
    26ba:	06  <unknown>
    26bb:	05 99 02 00 00 	addl	$665, %eax
    26c0:	05 41 00 00 00 	addl	$65, %eax
    26c5:	05 2e 00 00 00 	addl	$46, %eax
    26ca:	00 0c 8d 07 00 00 01 	addb	%cl, 16777223(,%rcx,4)
    26d1:	a3 05 8f 00 00 00 ab 02 00 	movabsl	%eax, 750966441807621
    26da:	00 08 	addb	%cl, (%rax)
    26dc:	00 15 69 6e 62 00 	addb	%dl, 6450793(%rip)
    26e2:	06  <unknown>
    26e3:	04 0f 	addb	$15, %al
    26e5:	2e 00 00 	addb	%al, %cs:(%rax)
    26e8:	00 c1 	addb	%al, %cl
    26ea:	02 00 	addb	(%rax), %al
    26ec:	00 05 41 00 00 00 	addb	%al, 65(%rip)
    26f2:	00 0d 00 00 00 00 	addb	%cl, (%rip)
    26f8:	c0 b8 22 01 00 00 00 	sarb	$0, 290(%rax)
    26ff:	00 00 	addb	%al, (%rax)
    2701:	ba 04 00 00 00 	movl	$4, %edx
    2706:	00 00 	addb	%al, (%rax)
    2708:	00 01 	addb	%al, (%rcx)
    270a:	9c 	pushfq
    270b:	fc 	cld
    270c:	02 00 	addb	(%rax), %al
    270e:	00 16 	addb	%dl, (%rsi)
    2710:	01 23 	addl	%esp, (%rbx)
    2712:	01 00 	addl	%eax, (%rax)
    2714:	00 00 	addb	%al, (%rax)
    2716:	00 00 	addb	%al, (%rax)
    2718:	2f  <unknown>
    2719:	00 00 	addb	%al, (%rax)
    271b:	00 00 	addb	%al, (%rax)
    271d:	00 00 	addb	%al, (%rax)
    271f:	00 09 	addb	%cl, (%rcx)
    2721:	69 00 c8 0e 8f 00 	imull	$9375432, (%rax), %eax
    2727:	00 00 	addb	%al, (%rax)
    2729:	02 91 6c 00 00 0d 	addb	218103916(%rcx), %dl
    272f:	f2 08 00 	repne		orb	%al, (%rax)
    2732:	00 9f 8d 21 01 00 	addb	%bl, 74125(%rdi)
    2738:	00 00 	addb	%al, (%rax)
    273a:	00 00 	addb	%al, (%rax)
    273c:	2b 01 	subl	(%rcx), %eax
    273e:	00 00 	addb	%al, (%rax)
    2740:	00 00 	addb	%al, (%rax)
    2742:	00 00 	addb	%al, (%rax)
    2744:	01 9c 41 03 00 00 09 	addl	%ebx, 150994947(%rcx,%rax,2)
    274b:	61  <unknown>
    274c:	31 00 	xorl	%eax, (%rax)
    274e:	a1 13 2e 00 00 00 02 91 6f 	movabsl	8039209008856313363, %eax
    2757:	09 61 32 	orl	%esp, 50(%rcx)
    275a:	00 a1 17 2e 00 00 	addb	%ah, 11799(%rcx)
    2760:	00 02 	addb	%al, (%rdx)
    2762:	91 	xchgl	%ecx, %eax
    2763:	6e 	outsb	(%rsi), %dx
    2764:	17  <unknown>
    2765:	8d 07 	leal	(%rdi), %eax
    2767:	00 00 	addb	%al, (%rax)
    2769:	01 a3 05 8f 00 00 	addl	%esp, 36613(%rbx)
    276f:	00 08 	addb	%cl, (%rax)
    2771:	00 00 	addb	%al, (%rax)
    2773:	0e  <unknown>
    2774:	90 	nop
    2775:	08 00 	orb	%al, (%rax)
    2777:	00 86 b0 20 01 00 	addb	%al, 73904(%rsi)
    277d:	00 00 	addb	%al, (%rax)
    277f:	00 00 	addb	%al, (%rax)
    2781:	dd 00 	fldl	(%rax)
    2783:	00 00 	addb	%al, (%rax)
    2785:	00 00 	addb	%al, (%rax)
    2787:	00 00 	addb	%al, (%rax)
    2789:	01 9c 92 03 00 00 06 	addl	%ebx, 100663299(%rdx,%rdx,4)
    2790:	3a 08 	cmpb	(%rax), %cl
    2792:	00 00 	addb	%al, (%rax)
    2794:	18 8f 00 00 00 02 	sbbb	%cl, 33554432(%rdi)
    279a:	91 	xchgl	%ecx, %eax
    279b:	6c 	insb	%dx, %es:(%rdi)
    279c:	06  <unknown>
    279d:	d7 	xlatb
    279e:	04 00 	addb	$0, %al
    27a0:	00 29 	addb	%ch, (%rcx)
    27a2:	75 00 	jne	0 <video.c+0x27a4>
    27a4:	00 00 	addb	%al, (%rax)
    27a6:	02 91 60 06 41 08 	addb	138479200(%rcx), %dl
    27ac:	00 00 	addb	%al, (%rax)
    27ae:	39 35 00 00 00 02 	cmpl	%esi, 33554432(%rip)
    27b4:	91 	xchgl	%ecx, %eax
    27b5:	68 06 ce 08 00 	pushq	$577030
    27ba:	00 4b 35 	addb	%cl, 53(%rbx)
    27bd:	00 00 	addb	%al, (%rax)
    27bf:	00 02 	addb	%al, (%rdx)
    27c1:	91 	xchgl	%ecx, %eax
    27c2:	5c 	popq	%rsp
    27c3:	00 0e 	addb	%cl, (%rsi)
    27c5:	dd 08 	fisttpll	(%rax)
    27c7:	00 00 	addb	%al, (%rax)
    27c9:	7f 9e 	jg	-98 <video.c+0x2769>
    27cb:	20 01 	andb	%al, (%rcx)
    27cd:	00 00 	addb	%al, (%rax)
    27cf:	00 00 	addb	%al, (%rax)
    27d1:	00 12 	addb	%dl, (%rdx)
    27d3:	00 00 	addb	%al, (%rax)
    27d5:	00 00 	addb	%al, (%rax)
    27d7:	00 00 	addb	%al, (%rax)
    27d9:	00 01 	addb	%al, (%rcx)
    27db:	9c 	pushfq
    27dc:	be 03 00 00 18 	movl	$402653187, %esi
    27e1:	69 64 74 00 01 7f 17 be 	imull	$3189210881, (%rsp,%rsi,2), %esp
    27e9:	03 00 	addl	(%rax), %eax
    27eb:	00 02 	addb	%al, (%rdx)
    27ed:	91 	xchgl	%ecx, %eax
    27ee:	68 00 07 2e 01 	pushq	$19793664
    27f3:	00 00 	addb	%al, (%rax)
    27f5:	00 2e 	addb	%ch, (%rsi)
    27f7:	05 00 00 05 00 	addl	$327680, %eax
    27fc:	01 08 	addl	%ecx, (%rax)
    27fe:	1b 0e 	sbbl	(%rsi), %ecx
    2800:	00 00 	addb	%al, (%rax)
    2802:	07  <unknown>
    2803:	3b 00 	cmpl	(%rax), %eax
    2805:	00 00 	addb	%al, (%rax)
    2807:	1d 81 05 00 00 	sbbl	$1409, %eax
    280c:	19 00 	sbbl	%eax, (%rax)
    280e:	00 00 	addb	%al, (%rax)
    2810:	72 27 	jb	39 <video.c+0x2839>
    2812:	01 00 	addl	%eax, (%rax)
    2814:	00 00 	addb	%al, (%rax)
    2816:	00 00 	addb	%al, (%rax)
    2818:	d2 00 	rolb	%cl, (%rax)
    281a:	00 00 	addb	%al, (%rax)
    281c:	00 00 	addb	%al, (%rax)
    281e:	00 00 	addb	%al, (%rax)
    2820:	54 	pushq	%rsp
    2821:	12 00 	adcb	(%rax), %al
    2823:	00 04 01 	addb	%al, (%rcx,%rax)
    2826:	08 5a 01 	orb	%bl, 1(%rdx)
    2829:	00 00 	addb	%al, (%rax)
    282b:	04 02 	addb	$2, %al
    282d:	07  <unknown>
    282e:	b8 01 00 00 04 	movl	$67108865, %eax
    2833:	04 07 	addb	$7, %al
    2835:	72 01 	jb	1 <video.c+0x2838>
    2837:	00 00 	addb	%al, (%rax)
    2839:	04 08 	addb	$8, %al
    283b:	07  <unknown>
    283c:	6d 	insl	%dx, %es:(%rdi)
    283d:	01 00 	addl	%eax, (%rax)
    283f:	00 04 08 	addb	%al, (%rax,%rcx)
    2842:	07  <unknown>
    2843:	68 01 00 00 06 	pushq	$100663297
    2848:	0e  <unknown>
    2849:	00 00 	addb	%al, (%rax)
    284b:	00 03 	addb	%al, (%rbx)
    284d:	11 1c 4a 	adcl	%ebx, (%rdx,%rcx,2)
    2850:	00 00 	addb	%al, (%rax)
    2852:	00 04 01 	addb	%al, (%rcx,%rax)
    2855:	06  <unknown>
    2856:	5c 	popq	%rsp
    2857:	01 00 	addl	%eax, (%rax)
    2859:	00 04 02 	addb	%al, (%rdx,%rax)
    285c:	05 17 00 00 00 	addl	$23, %eax
    2861:	08 04 05 69 6e 74 00 	orb	%al, 7630441(,%rax)
    2868:	04 08 	addb	$8, %al
    286a:	05 1e 01 00 00 	addl	$286, %eax
    286f:	04 08 	addb	$8, %al
    2871:	05 19 01 00 00 	addl	$281, %eax
    2876:	09 b8 02 20 09 9a 	orl	%edi, -1710678014(%rax)
    287c:	01 00 	addl	%eax, (%rax)
    287e:	00 03 	addb	%al, (%rbx)
    2880:	72 64 	jb	100 <video.c+0x28e6>
    2882:	69 00 22 0e 51 00 	imull	$5312034, (%rax), %eax
    2888:	00 00 	addb	%al, (%rax)
    288a:	00 03 	addb	%al, (%rbx)
    288c:	72 73 	jb	115 <video.c+0x2901>
    288e:	69 00 22 13 51 00 	imull	$5313314, (%rax), %eax
    2894:	00 00 	addb	%al, (%rax)
    2896:	08 03 	orb	%al, (%rbx)
    2898:	72 62 	jb	98 <video.c+0x28fc>
    289a:	70 00 	jo	0 <video.c+0x289c>
    289c:	22 18 	andb	(%rax), %bl
    289e:	51 	pushq	%rcx
    289f:	00 00 	addb	%al, (%rax)
    28a1:	00 10 	addb	%dl, (%rax)
    28a3:	05 6e 09 00 00 	addl	$2414, %eax
    28a8:	22 1d 51 00 00 00 	andb	81(%rip), %bl
    28ae:	18 03 	sbbb	%al, (%rbx)
    28b0:	72 62 	jb	98 <video.c+0x2914>
    28b2:	78 00 	js	0 <video.c+0x28b4>
    28b4:	22 26 	andb	(%rsi), %ah
    28b6:	51 	pushq	%rcx
    28b7:	00 00 	addb	%al, (%rax)
    28b9:	00 20 	addb	%ah, (%rax)
    28bb:	03 72 64 	addl	100(%rdx), %esi
    28be:	78 00 	js	0 <video.c+0x28c0>
    28c0:	22 2b 	andb	(%rbx), %ch
    28c2:	51 	pushq	%rcx
    28c3:	00 00 	addb	%al, (%rax)
    28c5:	00 28 	addb	%ch, (%rax)
    28c7:	03 72 63 	addl	99(%rdx), %esi
    28ca:	78 00 	js	0 <video.c+0x28cc>
    28cc:	22 30 	andb	(%rax), %dh
    28ce:	51 	pushq	%rcx
    28cf:	00 00 	addb	%al, (%rax)
    28d1:	00 30 	addb	%dh, (%rax)
    28d3:	03 72 61 	addl	97(%rdx), %esi
    28d6:	78 00 	js	0 <video.c+0x28d8>
    28d8:	22 35 51 00 00 00 	andb	81(%rip), %dh
    28de:	38 03 	cmpb	%al, (%rbx)
    28e0:	72 38 	jb	56 <video.c+0x291a>
    28e2:	00 23 	addb	%ah, (%rbx)
    28e4:	0e  <unknown>
    28e5:	51 	pushq	%rcx
    28e6:	00 00 	addb	%al, (%rax)
    28e8:	00 40 03 	addb	%al, 3(%rax)
    28eb:	72 39 	jb	57 <video.c+0x2926>
    28ed:	00 23 	addb	%ah, (%rbx)
    28ef:	12 51 00 	adcb	(%rcx), %dl
    28f2:	00 00 	addb	%al, (%rax)
    28f4:	48 03 72 31 	addq	49(%rdx), %rsi
    28f8:	30 00 	xorb	%al, (%rax)
    28fa:	23 16 	andl	(%rsi), %edx
    28fc:	51 	pushq	%rcx
    28fd:	00 00 	addb	%al, (%rax)
    28ff:	00 50 03 	addb	%dl, 3(%rax)
    2902:	72 31 	jb	49 <video.c+0x2935>
    2904:	31 00 	xorl	%eax, (%rax)
    2906:	23 1b 	andl	(%rbx), %ebx
    2908:	51 	pushq	%rcx
    2909:	00 00 	addb	%al, (%rax)
    290b:	00 58 03 	addb	%bl, 3(%rax)
    290e:	72 31 	jb	49 <video.c+0x2941>
    2910:	32 00 	xorb	(%rax), %al
    2912:	23 20 	andl	(%rax), %esp
    2914:	51 	pushq	%rcx
    2915:	00 00 	addb	%al, (%rax)
    2917:	00 60 03 	addb	%ah, 3(%rax)
    291a:	72 31 	jb	49 <video.c+0x294d>
    291c:	33 00 	xorl	(%rax), %eax
    291e:	23 25 51 00 00 00 	andl	81(%rip), %esp
    2924:	68 03 72 31 34 	pushq	$875655683
    2929:	00 23 	addb	%ah, (%rbx)
    292b:	2a 51 00 	subb	(%rcx), %dl
    292e:	00 00 	addb	%al, (%rax)
    2930:	70 03 	jo	3 <video.c+0x2935>
    2932:	72 31 	jb	49 <video.c+0x2965>
    2934:	35 00 23 2f 51 	xorl	$1362043648, %eax
    2939:	00 00 	addb	%al, (%rax)
    293b:	00 78 05 	addb	%bh, 5(%rax)
    293e:	ce  <unknown>
    293f:	09 00 	orl	%eax, (%rax)
    2941:	00 24 0e 	addb	%ah, (%rsi,%rcx)
    2944:	51 	pushq	%rcx
    2945:	00 00 	addb	%al, (%rax)
    2947:	00 80 05 b8 09 00 	addb	%al, 636933(%rax)
    294d:	00 24 16 	addb	%ah, (%rsi,%rdx)
    2950:	51 	pushq	%rcx
    2951:	00 00 	addb	%al, (%rax)
    2953:	00 88 03 72 69 70 	addb	%cl, 1885958659(%rax)
    2959:	00 25 0e 51 00 00 	addb	%ah, 20750(%rip)
    295f:	00 90 03 63 73 00 	addb	%dl, 7561987(%rax)
    2965:	25 13 51 00 00 	andl	$20755, %eax
    296a:	00 98 05 59 09 00 	addb	%bl, 612613(%rax)
    2970:	00 25 17 51 00 00 	addb	%ah, 20759(%rip)
    2976:	00 a0 03 72 73 70 	addb	%ah, 1886614019(%rax)
    297c:	00 25 1f 51 00 00 	addb	%ah, 20767(%rip)
    2982:	00 a8 03 73 73 00 	addb	%ch, 7566083(%rax)
    2988:	25 24 51 00 00 	andl	$20772, %eax
    298d:	00 b0 00 06 41 09 	addb	%dh, 155256320(%rax)
    2993:	00 00 	addb	%al, (%rax)
    2995:	02 26 	addb	(%rsi), %ah
    2997:	1b 80 00 00 00 02 	sbbl	33554432(%rax), %eax
    299d:	83 09 00 	orl	$0, (%rcx)
    29a0:	00 67 3a 	addb	%ah, 58(%rdi)
    29a3:	28 01 	subb	%al, (%rcx)
    29a5:	00 00 	addb	%al, (%rax)
    29a7:	00 00 	addb	%al, (%rax)
    29a9:	00 0a 	addb	%cl, (%rdx)
    29ab:	00 00 	addb	%al, (%rax)
    29ad:	00 00 	addb	%al, (%rax)
    29af:	00 00 	addb	%al, (%rax)
    29b1:	00 01 	addb	%al, (%rcx)
    29b3:	9c 	pushfq
    29b4:	d1 01 	roll	(%rcx)
    29b6:	00 00 	addb	%al, (%rax)
    29b8:	01 53 09 	addl	%edx, 9(%rbx)
    29bb:	00 00 	addb	%al, (%rax)
    29bd:	67 27  <unknown>
    29bf:	d1 01 	roll	(%rcx)
    29c1:	00 00 	addb	%al, (%rax)
    29c3:	02 91 68 00 0a 08 	addb	134873192(%rcx), %dl
    29c9:	9a  <unknown>
    29ca:	01 00 	addl	%eax, (%rax)
    29cc:	00 02 	addb	%al, (%rdx)
    29ce:	33 09 	xorl	(%rcx), %ecx
    29d0:	00 00 	addb	%al, (%rax)
    29d2:	62  <unknown>
    29d3:	30 28 	xorb	%ch, (%rax)
    29d5:	01 00 	addl	%eax, (%rax)
    29d7:	00 00 	addb	%al, (%rax)
    29d9:	00 00 	addb	%al, (%rax)
    29db:	0a 00 	orb	(%rax), %al
    29dd:	00 00 	addb	%al, (%rax)
    29df:	00 00 	addb	%al, (%rax)
    29e1:	00 00 	addb	%al, (%rax)
    29e3:	01 9c 02 02 00 00 01 	addl	%ebx, 16777218(%rdx,%rax)
    29ea:	53 	pushq	%rbx
    29eb:	09 00 	orl	%eax, (%rax)
    29ed:	00 62 27 	addb	%ah, 39(%rdx)
    29f0:	d1 01 	roll	(%rcx)
    29f2:	00 00 	addb	%al, (%rax)
    29f4:	02 91 68 00 02 25 	addb	620888168(%rcx), %dl
    29fa:	09 00 	orl	%eax, (%rax)
    29fc:	00 5d 26 	addb	%bl, 38(%rbp)
    29ff:	28 01 	subb	%al, (%rcx)
    2a01:	00 00 	addb	%al, (%rax)
    2a03:	00 00 	addb	%al, (%rax)
    2a05:	00 0a 	addb	%cl, (%rdx)
    2a07:	00 00 	addb	%al, (%rax)
    2a09:	00 00 	addb	%al, (%rax)
    2a0b:	00 00 	addb	%al, (%rax)
    2a0d:	00 01 	addb	%al, (%rcx)
    2a0f:	9c 	pushfq
    2a10:	2d 02 00 00 01 	subl	$16777218, %eax
    2a15:	53 	pushq	%rbx
    2a16:	09 00 	orl	%eax, (%rax)
    2a18:	00 5d 27 	addb	%bl, 39(%rbp)
    2a1b:	d1 01 	roll	(%rcx)
    2a1d:	00 00 	addb	%al, (%rax)
    2a1f:	02 91 68 00 02 17 	addb	386007144(%rcx), %dl
    2a25:	09 00 	orl	%eax, (%rax)
    2a27:	00 58 1c 	addb	%bl, 28(%rax)
    2a2a:	28 01 	subb	%al, (%rcx)
    2a2c:	00 00 	addb	%al, (%rax)
    2a2e:	00 00 	addb	%al, (%rax)
    2a30:	00 0a 	addb	%cl, (%rdx)
    2a32:	00 00 	addb	%al, (%rax)
    2a34:	00 00 	addb	%al, (%rax)
    2a36:	00 00 	addb	%al, (%rax)
    2a38:	00 01 	addb	%al, (%rcx)
    2a3a:	9c 	pushfq
    2a3b:	58 	popq	%rax
    2a3c:	02 00 	addb	(%rax), %al
    2a3e:	00 01 	addb	%al, (%rcx)
    2a40:	53 	pushq	%rbx
    2a41:	09 00 	orl	%eax, (%rax)
    2a43:	00 58 27 	addb	%bl, 39(%rax)
    2a46:	d1 01 	roll	(%rcx)
    2a48:	00 00 	addb	%al, (%rax)
    2a4a:	02 91 68 00 02 09 	addb	151126120(%rcx), %dl
    2a50:	09 00 	orl	%eax, (%rax)
    2a52:	00 53 12 	addb	%dl, 18(%rbx)
    2a55:	28 01 	subb	%al, (%rcx)
    2a57:	00 00 	addb	%al, (%rax)
    2a59:	00 00 	addb	%al, (%rax)
    2a5b:	00 0a 	addb	%cl, (%rdx)
    2a5d:	00 00 	addb	%al, (%rax)
    2a5f:	00 00 	addb	%al, (%rax)
    2a61:	00 00 	addb	%al, (%rax)
    2a63:	00 01 	addb	%al, (%rcx)
    2a65:	9c 	pushfq
    2a66:	83 02 00 	addl	$0, (%rdx)
    2a69:	00 01 	addb	%al, (%rcx)
    2a6b:	53 	pushq	%rbx
    2a6c:	09 00 	orl	%eax, (%rax)
    2a6e:	00 53 27 	addb	%dl, 39(%rbx)
    2a71:	d1 01 	roll	(%rcx)
    2a73:	00 00 	addb	%al, (%rax)
    2a75:	02 91 68 00 02 fb 	addb	-83754904(%rcx), %dl
    2a7b:	08 00 	orb	%al, (%rax)
    2a7d:	00 4e 08 	addb	%cl, 8(%rsi)
    2a80:	28 01 	subb	%al, (%rcx)
    2a82:	00 00 	addb	%al, (%rax)
    2a84:	00 00 	addb	%al, (%rax)
    2a86:	00 0a 	addb	%cl, (%rdx)
    2a88:	00 00 	addb	%al, (%rax)
    2a8a:	00 00 	addb	%al, (%rax)
    2a8c:	00 00 	addb	%al, (%rax)
    2a8e:	00 01 	addb	%al, (%rcx)
    2a90:	9c 	pushfq
    2a91:	ae 	scasb	%es:(%rdi), %al
    2a92:	02 00 	addb	(%rax), %al
    2a94:	00 01 	addb	%al, (%rcx)
    2a96:	53 	pushq	%rbx
    2a97:	09 00 	orl	%eax, (%rax)
    2a99:	00 4e 27 	addb	%cl, 39(%rsi)
    2a9c:	d1 01 	roll	(%rcx)
    2a9e:	00 00 	addb	%al, (%rax)
    2aa0:	02 91 68 00 02 40 	addb	1073873000(%rcx), %dl
    2aa6:	0a 00 	orb	(%rax), %al
    2aa8:	00 49 fe 	addb	%cl, -2(%rcx)
    2aab:	27  <unknown>
    2aac:	01 00 	addl	%eax, (%rax)
    2aae:	00 00 	addb	%al, (%rax)
    2ab0:	00 00 	addb	%al, (%rax)
    2ab2:	0a 00 	orb	(%rax), %al
    2ab4:	00 00 	addb	%al, (%rax)
    2ab6:	00 00 	addb	%al, (%rax)
    2ab8:	00 00 	addb	%al, (%rax)
    2aba:	01 9c d9 02 00 00 01 	addl	%ebx, 16777218(%rcx,%rbx,8)
    2ac1:	53 	pushq	%rbx
    2ac2:	09 00 	orl	%eax, (%rax)
    2ac4:	00 49 27 	addb	%cl, 39(%rcx)
    2ac7:	d1 01 	roll	(%rcx)
    2ac9:	00 00 	addb	%al, (%rax)
    2acb:	02 91 68 00 02 60 	addb	1610743912(%rcx), %dl
    2ad1:	09 00 	orl	%eax, (%rax)
    2ad3:	00 44 f4 27 	addb	%al, 39(%rsp,%rsi,8)
    2ad7:	01 00 	addl	%eax, (%rax)
    2ad9:	00 00 	addb	%al, (%rax)
    2adb:	00 00 	addb	%al, (%rax)
    2add:	0a 00 	orb	(%rax), %al
    2adf:	00 00 	addb	%al, (%rax)
    2ae1:	00 00 	addb	%al, (%rax)
    2ae3:	00 00 	addb	%al, (%rax)
    2ae5:	01 9c 04 03 00 00 01 	addl	%ebx, 16777219(%rsp,%rax)
    2aec:	53 	pushq	%rbx
    2aed:	09 00 	orl	%eax, (%rax)
    2aef:	00 44 27 d1 	addb	%al, -47(%rdi,%riz)
    2af3:	01 00 	addl	%eax, (%rax)
    2af5:	00 02 	addb	%al, (%rdx)
    2af7:	91 	xchgl	%ecx, %eax
    2af8:	68 00 02 18 0a 	pushq	$169345536
    2afd:	00 00 	addb	%al, (%rax)
    2aff:	3f  <unknown>
    2b00:	ea  <unknown>
    2b01:	27  <unknown>
    2b02:	01 00 	addl	%eax, (%rax)
    2b04:	00 00 	addb	%al, (%rax)
    2b06:	00 00 	addb	%al, (%rax)
    2b08:	0a 00 	orb	(%rax), %al
    2b0a:	00 00 	addb	%al, (%rax)
    2b0c:	00 00 	addb	%al, (%rax)
    2b0e:	00 00 	addb	%al, (%rax)
    2b10:	01 9c 2f 03 00 00 01 	addl	%ebx, 16777219(%rdi,%rbp)
    2b17:	53 	pushq	%rbx
    2b18:	09 00 	orl	%eax, (%rax)
    2b1a:	00 3f 	addb	%bh, (%rdi)
    2b1c:	27  <unknown>
    2b1d:	d1 01 	roll	(%rcx)
    2b1f:	00 00 	addb	%al, (%rax)
    2b21:	02 91 68 00 02 fd 	addb	-50200472(%rcx), %dl
    2b27:	09 00 	orl	%eax, (%rax)
    2b29:	00 3a 	addb	%bh, (%rdx)
    2b2b:	e0 27 	loopne	39
    2b2d:	01 00 	addl	%eax, (%rax)
    2b2f:	00 00 	addb	%al, (%rax)
    2b31:	00 00 	addb	%al, (%rax)
    2b33:	0a 00 	orb	(%rax), %al
    2b35:	00 00 	addb	%al, (%rax)
    2b37:	00 00 	addb	%al, (%rax)
    2b39:	00 00 	addb	%al, (%rax)
    2b3b:	01 9c 5a 03 00 00 01 	addl	%ebx, 16777219(%rdx,%rbx,2)
    2b42:	53 	pushq	%rbx
    2b43:	09 00 	orl	%eax, (%rax)
    2b45:	00 3a 	addb	%bh, (%rdx)
    2b47:	27  <unknown>
    2b48:	d1 01 	roll	(%rcx)
    2b4a:	00 00 	addb	%al, (%rax)
    2b4c:	02 91 68 00 02 e2 	addb	-503185304(%rcx), %dl
    2b52:	09 00 	orl	%eax, (%rax)
    2b54:	00 35 d6 27 01 00 	addb	%dh, 75734(%rip)
    2b5a:	00 00 	addb	%al, (%rax)
    2b5c:	00 00 	addb	%al, (%rax)
    2b5e:	0a 00 	orb	(%rax), %al
    2b60:	00 00 	addb	%al, (%rax)
    2b62:	00 00 	addb	%al, (%rax)
    2b64:	00 00 	addb	%al, (%rax)
    2b66:	01 9c 85 03 00 00 01 	addl	%ebx, 16777219(%rbp,%rax,4)
    2b6d:	53 	pushq	%rbx
    2b6e:	09 00 	orl	%eax, (%rax)
    2b70:	00 35 27 d1 01 00 	addb	%dh, 119079(%rip)
    2b76:	00 02 	addb	%al, (%rdx)
    2b78:	91 	xchgl	%ecx, %eax
    2b79:	68 00 02 33 0a 	pushq	$171115008
    2b7e:	00 00 	addb	%al, (%rax)
    2b80:	30 cc 	xorb	%cl, %ah
    2b82:	27  <unknown>
    2b83:	01 00 	addl	%eax, (%rax)
    2b85:	00 00 	addb	%al, (%rax)
    2b87:	00 00 	addb	%al, (%rax)
    2b89:	0a 00 	orb	(%rax), %al
    2b8b:	00 00 	addb	%al, (%rax)
    2b8d:	00 00 	addb	%al, (%rax)
    2b8f:	00 00 	addb	%al, (%rax)
    2b91:	01 9c b0 03 00 00 01 	addl	%ebx, 16777219(%rax,%rsi,4)
    2b98:	53 	pushq	%rbx
    2b99:	09 00 	orl	%eax, (%rax)
    2b9b:	00 30 	addb	%dh, (%rax)
    2b9d:	26 d1 01 	roll	%es:(%rcx)
    2ba0:	00 00 	addb	%al, (%rax)
    2ba2:	02 91 68 00 02 26 	addb	637665384(%rcx), %dl
    2ba8:	0a 00 	orb	(%rax), %al
    2baa:	00 2b 	addb	%ch, (%rbx)
    2bac:	c2 27 01 	retq	$295
    2baf:	00 00 	addb	%al, (%rax)
    2bb1:	00 00 	addb	%al, (%rax)
    2bb3:	00 0a 	addb	%cl, (%rdx)
    2bb5:	00 00 	addb	%al, (%rax)
    2bb7:	00 00 	addb	%al, (%rax)
    2bb9:	00 00 	addb	%al, (%rax)
    2bbb:	00 01 	addb	%al, (%rcx)
    2bbd:	9c 	pushfq
    2bbe:	db 03 	fildl	(%rbx)
    2bc0:	00 00 	addb	%al, (%rax)
    2bc2:	01 53 09 	addl	%edx, 9(%rbx)
    2bc5:	00 00 	addb	%al, (%rax)
    2bc7:	2b 26 	subl	(%rsi), %esp
    2bc9:	d1 01 	roll	(%rcx)
    2bcb:	00 00 	addb	%al, (%rax)
    2bcd:	02 91 68 00 02 0b 	addb	184680552(%rcx), %dl
    2bd3:	0a 00 	orb	(%rax), %al
    2bd5:	00 26 	addb	%ah, (%rsi)
    2bd7:	b8 27 01 00 00 	movl	$295, %eax
    2bdc:	00 00 	addb	%al, (%rax)
    2bde:	00 0a 	addb	%cl, (%rdx)
    2be0:	00 00 	addb	%al, (%rax)
    2be2:	00 00 	addb	%al, (%rax)
    2be4:	00 00 	addb	%al, (%rax)
    2be6:	00 01 	addb	%al, (%rcx)
    2be8:	9c 	pushfq
    2be9:	06  <unknown>
    2bea:	04 00 	addb	$0, %al
    2bec:	00 01 	addb	%al, (%rcx)
    2bee:	53 	pushq	%rbx
    2bef:	09 00 	orl	%eax, (%rax)
    2bf1:	00 26 	addb	%ah, (%rsi)
    2bf3:	26 d1 01 	roll	%es:(%rcx)
    2bf6:	00 00 	addb	%al, (%rax)
    2bf8:	02 91 68 00 02 f0 	addb	-268304280(%rcx), %dl
    2bfe:	09 00 	orl	%eax, (%rax)
    2c00:	00 21 	addb	%ah, (%rcx)
    2c02:	ae 	scasb	%es:(%rdi), %al
    2c03:	27  <unknown>
    2c04:	01 00 	addl	%eax, (%rax)
    2c06:	00 00 	addb	%al, (%rax)
    2c08:	00 00 	addb	%al, (%rax)
    2c0a:	0a 00 	orb	(%rax), %al
    2c0c:	00 00 	addb	%al, (%rax)
    2c0e:	00 00 	addb	%al, (%rax)
    2c10:	00 00 	addb	%al, (%rax)
    2c12:	01 9c 31 04 00 00 01 	addl	%ebx, 16777220(%rcx,%rsi)
    2c19:	53 	pushq	%rbx
    2c1a:	09 00 	orl	%eax, (%rax)
    2c1c:	00 21 	addb	%ah, (%rcx)
    2c1e:	26 d1 01 	roll	%es:(%rcx)
    2c21:	00 00 	addb	%al, (%rax)
    2c23:	02 91 68 00 02 d5 	addb	-721289112(%rcx), %dl
    2c29:	09 00 	orl	%eax, (%rax)
    2c2b:	00 1c a4 	addb	%bl, (%rsp,%riz,4)
    2c2e:	27  <unknown>
    2c2f:	01 00 	addl	%eax, (%rax)
    2c31:	00 00 	addb	%al, (%rax)
    2c33:	00 00 	addb	%al, (%rax)
    2c35:	0a 00 	orb	(%rax), %al
    2c37:	00 00 	addb	%al, (%rax)
    2c39:	00 00 	addb	%al, (%rax)
    2c3b:	00 00 	addb	%al, (%rax)
    2c3d:	01 9c 5c 04 00 00 01 	addl	%ebx, 16777220(%rsp,%rbx,2)
    2c44:	53 	pushq	%rbx
    2c45:	09 00 	orl	%eax, (%rax)
    2c47:	00 1c 26 	addb	%bl, (%rsi,%riz)
    2c4a:	d1 01 	roll	(%rcx)
    2c4c:	00 00 	addb	%al, (%rax)
    2c4e:	02 91 68 00 02 91 	addb	-1862139800(%rcx), %dl
    2c54:	09 00 	orl	%eax, (%rax)
    2c56:	00 17 	addb	%dl, (%rdi)
    2c58:	9a  <unknown>
    2c59:	27  <unknown>
    2c5a:	01 00 	addl	%eax, (%rax)
    2c5c:	00 00 	addb	%al, (%rax)
    2c5e:	00 00 	addb	%al, (%rax)
    2c60:	0a 00 	orb	(%rax), %al
    2c62:	00 00 	addb	%al, (%rax)
    2c64:	00 00 	addb	%al, (%rax)
    2c66:	00 00 	addb	%al, (%rax)
    2c68:	01 9c 87 04 00 00 01 	addl	%ebx, 16777220(%rdi,%rax,4)
    2c6f:	53 	pushq	%rbx
    2c70:	09 00 	orl	%eax, (%rax)
    2c72:	00 17 	addb	%dl, (%rdi)
    2c74:	26 d1 01 	roll	%es:(%rcx)
    2c77:	00 00 	addb	%al, (%rax)
    2c79:	02 91 68 00 02 c1 	addb	-1056833432(%rcx), %dl
    2c7f:	09 00 	orl	%eax, (%rax)
    2c81:	00 12 	addb	%dl, (%rdx)
    2c83:	90 	nop
    2c84:	27  <unknown>
    2c85:	01 00 	addl	%eax, (%rax)
    2c87:	00 00 	addb	%al, (%rax)
    2c89:	00 00 	addb	%al, (%rax)
    2c8b:	0a 00 	orb	(%rax), %al
    2c8d:	00 00 	addb	%al, (%rax)
    2c8f:	00 00 	addb	%al, (%rax)
    2c91:	00 00 	addb	%al, (%rax)
    2c93:	01 9c b2 04 00 00 01 	addl	%ebx, 16777220(%rdx,%rsi,4)
    2c9a:	53 	pushq	%rbx
    2c9b:	09 00 	orl	%eax, (%rax)
    2c9d:	00 12 	addb	%dl, (%rdx)
    2c9f:	26 d1 01 	roll	%es:(%rcx)
    2ca2:	00 00 	addb	%al, (%rax)
    2ca4:	02 91 68 00 02 ab 	addb	-1425932184(%rcx), %dl
    2caa:	09 00 	orl	%eax, (%rax)
    2cac:	00 0d 86 27 01 00 	addb	%cl, 75654(%rip)
    2cb2:	00 00 	addb	%al, (%rax)
    2cb4:	00 00 	addb	%al, (%rax)
    2cb6:	0a 00 	orb	(%rax), %al
    2cb8:	00 00 	addb	%al, (%rax)
    2cba:	00 00 	addb	%al, (%rax)
    2cbc:	00 00 	addb	%al, (%rax)
    2cbe:	01 9c dd 04 00 00 01 	addl	%ebx, 16777220(%rbp,%rbx,8)
    2cc5:	53 	pushq	%rbx
    2cc6:	09 00 	orl	%eax, (%rax)
    2cc8:	00 0d 26 d1 01 00 	addb	%cl, 119078(%rip)
    2cce:	00 02 	addb	%al, (%rdx)
    2cd0:	91 	xchgl	%ecx, %eax
    2cd1:	68 00 02 9e 09 	pushq	$161350144
    2cd6:	00 00 	addb	%al, (%rax)
    2cd8:	08 7c 27 01 	orb	%bh, 1(%rdi,%riz)
    2cdc:	00 00 	addb	%al, (%rax)
    2cde:	00 00 	addb	%al, (%rax)
    2ce0:	00 0a 	addb	%cl, (%rdx)
    2ce2:	00 00 	addb	%al, (%rax)
    2ce4:	00 00 	addb	%al, (%rax)
    2ce6:	00 00 	addb	%al, (%rax)
    2ce8:	00 01 	addb	%al, (%rcx)
    2cea:	9c 	pushfq
    2ceb:	08 05 00 00 01 53 	orb	%al, 1392574464(%rip)
    2cf1:	09 00 	orl	%eax, (%rax)
    2cf3:	00 08 	addb	%cl, (%rax)
    2cf5:	26 d1 01 	roll	%es:(%rcx)
    2cf8:	00 00 	addb	%al, (%rax)
    2cfa:	02 91 68 00 0b 76 	addb	1980432488(%rcx), %dl
    2d00:	09 00 	orl	%eax, (%rax)
    2d02:	00 01 	addb	%al, (%rcx)
    2d04:	03 06 	addl	(%rsi), %eax
    2d06:	72 27 	jb	39 <video.c+0x2d2f>
    2d08:	01 00 	addl	%eax, (%rax)
    2d0a:	00 00 	addb	%al, (%rax)
    2d0c:	00 00 	addb	%al, (%rax)
    2d0e:	0a 00 	orb	(%rax), %al
    2d10:	00 00 	addb	%al, (%rax)
    2d12:	00 00 	addb	%al, (%rax)
    2d14:	00 00 	addb	%al, (%rax)
    2d16:	01 9c 01 53 09 00 00 	addl	%ebx, 2387(%rcx,%rax)
    2d1d:	03 26 	addl	(%rsi), %esp
    2d1f:	d1 01 	roll	(%rcx)
    2d21:	00 00 	addb	%al, (%rax)
    2d23:	02 91 68 00 00 cd 	addb	-855637912(%rcx), %dl
    2d29:	08 00 	orb	%al, (%rax)
    2d2b:	00 05 00 01 08 d8 	addb	%al, -670564096(%rip)
    2d31:	0e  <unknown>
    2d32:	00 00 	addb	%al, (%rax)
    2d34:	11 3b 	adcl	%edi, (%rbx)
    2d36:	00 00 	addb	%al, (%rax)
    2d38:	00 1d e2 05 00 00 	addb	%bl, 1506(%rip)
    2d3e:	19 00 	sbbl	%eax, (%rax)
    2d40:	00 00 	addb	%al, (%rax)
    2d42:	44 28 01 	subb	%r8b, (%rcx)
    2d45:	00 00 	addb	%al, (%rax)
    2d47:	00 00 	addb	%al, (%rax)
    2d49:	00 60 0b 	addb	%ah, 11(%rax)
    2d4c:	00 00 	addb	%al, (%rax)
    2d4e:	00 00 	addb	%al, (%rax)
    2d50:	00 00 	addb	%al, (%rax)
    2d52:	82  <unknown>
    2d53:	13 00 	adcl	(%rax), %eax
    2d55:	00 05 01 08 5a 01 	addb	%al, 22677505(%rip)
    2d5b:	00 00 	addb	%al, (%rax)
    2d5d:	08 f4 	orb	%dh, %ah
    2d5f:	00 00 	addb	%al, (%rax)
    2d61:	00 02 	addb	%al, (%rdx)
    2d63:	05 17 2e 00 00 	addl	$11799, %eax
    2d68:	00 05 02 07 b8 01 	addb	%al, 28837634(%rip)
    2d6e:	00 00 	addb	%al, (%rax)
    2d70:	08 8f 01 00 00 02 	orb	%cl, 33554433(%rdi)
    2d76:	08 18 	orb	%bl, (%rax)
    2d78:	41 00 00 	addb	%al, (%r8)
    2d7b:	00 05 04 07 72 01 	addb	%al, 24250116(%rip)
    2d81:	00 00 	addb	%al, (%rax)
    2d83:	08 7f 01 	orb	%bh, 1(%rdi)
    2d86:	00 00 	addb	%al, (%rax)
    2d88:	02 0b 	addb	(%rbx), %cl
    2d8a:	16  <unknown>
    2d8b:	54 	pushq	%rsp
    2d8c:	00 00 	addb	%al, (%rax)
    2d8e:	00 05 08 07 6d 01 	addb	%al, 23922440(%rip)
    2d94:	00 00 	addb	%al, (%rax)
    2d96:	05 08 07 68 01 	addl	$23594760, %eax
    2d9b:	00 00 	addb	%al, (%rax)
    2d9d:	08 0e 	orb	%cl, (%rsi)
    2d9f:	00 00 	addb	%al, (%rax)
    2da1:	00 02 	addb	%al, (%rdx)
    2da3:	11 1c 6e 	adcl	%ebx, (%rsi,%rbp,2)
    2da6:	00 00 	addb	%al, (%rax)
    2da8:	00 05 01 06 5c 01 	addb	%al, 22808065(%rip)
    2dae:	00 00 	addb	%al, (%rax)
    2db0:	05 02 05 17 00 	addl	$1508610, %eax
    2db5:	00 00 	addb	%al, (%rax)
    2db7:	12 04 05 69 6e 74 00 	adcb	7630441(,%rax), %al
    2dbe:	05 08 05 1e 01 	addl	$18744584, %eax
    2dc3:	00 00 	addb	%al, (%rax)
    2dc5:	05 08 05 19 01 	addl	$18416904, %eax
    2dca:	00 00 	addb	%al, (%rax)
    2dcc:	13 21 	adcl	(%rcx), %esp
    2dce:	03 0a 	addl	(%rdx), %ecx
    2dd0:	09 57 01 	orl	%edx, 1(%rdi)
    2dd3:	00 00 	addb	%al, (%rax)
    2dd5:	03 28 	addl	(%rax), %ebp
    2dd7:	00 00 	addb	%al, (%rax)
    2dd9:	00 0c 0e 	addb	%cl, (%rsi,%rcx)
    2ddc:	48 00 00 	addb	%al, (%rax)
    2ddf:	00 00 	addb	%al, (%rax)
    2de1:	03 13 	addl	(%rbx), %edx
    2de3:	01 00 	addl	%eax, (%rax)
    2de5:	00 0d 0e 48 00 00 	addb	%cl, 18446(%rip)
    2deb:	00 02 	addb	%al, (%rdx)
    2ded:	03 88 01 00 00 0e 	addl	234881025(%rax), %ecx
    2df3:	0e  <unknown>
    2df4:	48 00 00 	addb	%al, (%rax)
    2df7:	00 04 14 	addb	%al, (%rsp,%rdx)
    2dfa:	62  <unknown>
    2dfb:	70 70 	jo	112 <video.c+0x2e6d>
    2dfd:	00 03 	addb	%al, (%rbx)
    2dff:	0f 0d 35 00 00 00 06  <unknown>
    2e06:	03 2d 00 00 00 10 	addl	268435456(%rip), %ebp
    2e0c:	0d 35 00 00 00 	orl	$53, %eax
    2e11:	07  <unknown>
    2e12:	03 21 	addl	(%rcx), %esp
    2e14:	00 00 	addb	%al, (%rax)
    2e16:	00 11 	addb	%dl, (%rcx)
    2e18:	0d 35 00 00 00 	orl	$53, %eax
    2e1d:	08 03 	orb	%al, (%rbx)
    2e1f:	f0 	lock
    2e20:	01 00 	addl	%eax, (%rax)
    2e22:	00 12 	addb	%dl, (%rdx)
    2e24:	0d 35 00 00 00 	orl	$53, %eax
    2e29:	09 03 	orl	%eax, (%rbx)
    2e2b:	e9 01 00 00 13 	jmp	318767105 <_bss_end+0x12feee31>
    2e30:	0d 35 00 00 00 	orl	$53, %eax
    2e35:	0a 03 	orb	(%rbx), %al
    2e37:	09 02 	orl	%eax, (%rdx)
    2e39:	00 00 	addb	%al, (%rax)
    2e3b:	14 0d 	adcb	$13, %al
    2e3d:	35 00 00 00 0b 	xorl	$184549376, %eax
    2e42:	03 02 	addl	(%rdx), %eax
    2e44:	02 00 	addb	(%rax), %al
    2e46:	00 15 0d 35 00 00 	addb	%dl, 13581(%rip)
    2e4c:	00 0c 03 	addb	%cl, (%rbx,%rax)
    2e4f:	e8 00 00 00 16 	callq	369098752 <_bss_end+0x15feee54>
    2e54:	0e  <unknown>
    2e55:	5b 	popq	%rbx
    2e56:	00 00 	addb	%al, (%rax)
    2e58:	00 0d 03 32 01 00 	addb	%cl, 78339(%rip)
    2e5e:	00 17 	addb	%dl, (%rdi)
    2e60:	0e  <unknown>
    2e61:	48 00 00 	addb	%al, (%rax)
    2e64:	00 11 	addb	%dl, (%rcx)
    2e66:	03 f7 	addl	%edi, %esi
    2e68:	01 00 	addl	%eax, (%rax)
    2e6a:	00 18 	addb	%bl, (%rax)
    2e6c:	0e  <unknown>
    2e6d:	48 00 00 	addb	%al, (%rax)
    2e70:	00 13 	addb	%dl, (%rbx)
    2e72:	03 2e 	addl	(%rsi), %ebp
    2e74:	02 00 	addb	(%rax), %al
    2e76:	00 19 	addb	%bl, (%rcx)
    2e78:	0d 57 01 00 00 	orl	$343, %eax
    2e7d:	15 00 15 35 00 	adcl	$3478784, %eax
    2e82:	00 00 	addb	%al, (%rax)
    2e84:	67 01 00 	addl	%eax, (%eax)
    2e87:	00 16 	addb	%dl, (%rsi)
    2e89:	67 00 00 	addb	%al, (%eax)
    2e8c:	00 0b 	addb	%cl, (%rbx)
    2e8e:	00 08 	addb	%cl, (%rax)
    2e90:	10 02 	adcb	%al, (%rdx)
    2e92:	00 00 	addb	%al, (%rax)
    2e94:	03 1a 	addl	(%rdx), %ebx
    2e96:	1b a4 00 00 00 17 fc 	sbbl	-65601536(%rax,%rax), %esp
    2e9d:	00 00 	addb	%al, (%rax)
    2e9f:	00 03 	addb	%al, (%rbx)
    2ea1:	1c 1e 	sbbb	$30, %al
    2ea3:	67 01 00 	addl	%eax, (%eax)
    2ea6:	00 0f 	addb	%cl, (%rdi)
    2ea8:	61  <unknown>
    2ea9:	62  <unknown>
    2eaa:	73 00 	jae	0 <video.c+0x2eac>
    2eac:	8f 00 	popq	(%rax)
    2eae:	00 00 	addb	%al, (%rax)
    2eb0:	8e 01 	movw	(%rcx), %es
    2eb2:	00 00 	addb	%al, (%rax)
    2eb4:	10 00 	adcb	%al, (%rax)
    2eb6:	18 b4 0a 00 00 01 20 	sbbb	%dh, 536936448(%rdx,%rcx)
    2ebd:	01 06 	addl	%eax, (%rsi)
    2ebf:	40 32 01 	xorb	(%rcx), %al
    2ec2:	00 00 	addb	%al, (%rax)
    2ec4:	00 00 	addb	%al, (%rax)
    2ec6:	00 64 01 00 	addb	%ah, (%rcx,%rax)
    2eca:	00 00 	addb	%al, (%rax)
    2ecc:	00 00 	addb	%al, (%rax)
    2ece:	00 01 	addb	%al, (%rcx)
    2ed0:	9c 	pushfq
    2ed1:	3a 02 	cmpb	(%rdx), %al
    2ed3:	00 00 	addb	%al, (%rax)
    2ed5:	0c 78 	orb	$120, %al
    2ed7:	00 15 8f 00 00 00 	addb	%dl, 143(%rip)
    2edd:	02 91 4c 0c 79 00 	addb	7933004(%rcx), %dl
    2ee3:	1c 8f 	sbbb	$-113, %al
    2ee5:	00 00 	addb	%al, (%rax)
    2ee7:	00 02 	addb	%al, (%rdx)
    2ee9:	91 	xchgl	%ecx, %eax
    2eea:	48 0c 72 	orb	$114, %al
    2eed:	00 23 	addb	%ah, (%rbx)
    2eef:	8f 00 	popq	(%rax)
    2ef1:	00 00 	addb	%al, (%rax)
    2ef3:	02 91 44 0c 63 00 	addb	6491204(%rcx), %dl
    2ef9:	2f  <unknown>
    2efa:	5b 	popq	%rbx
    2efb:	00 00 	addb	%al, (%rax)
    2efd:	00 02 	addb	%al, (%rdx)
    2eff:	91 	xchgl	%ecx, %eax
    2f00:	40 07  <unknown>
    2f02:	9f 	lahf
    2f03:	0a 00 	orb	(%rax), %al
    2f05:	00 22 	addb	%ah, (%rdx)
    2f07:	01 09 	addl	%ecx, (%rcx)
    2f09:	8f 00 	popq	(%rax)
    2f0b:	00 00 	addb	%al, (%rax)
    2f0d:	02 91 58 07 59 0a 	addb	173606744(%rcx), %dl
    2f13:	00 00 	addb	%al, (%rax)
    2f15:	22 01 	andb	(%rcx), %al
    2f17:	15 8f 00 00 00 	adcl	$143, %eax
    2f1c:	02 91 54 09 66 00 	addb	6687060(%rcx), %dl
    2f22:	25 01 8f 00 00 	andl	$36609, %eax
    2f27:	00 02 	addb	%al, (%rdx)
    2f29:	91 	xchgl	%ecx, %eax
    2f2a:	6c 	insb	%dx, %es:(%rdi)
    2f2b:	07  <unknown>
    2f2c:	f5 	cmc
    2f2d:	0a 00 	orb	(%rax), %al
    2f2f:	00 26 	addb	%ah, (%rsi)
    2f31:	01 09 	addl	%ecx, (%rcx)
    2f33:	8f 00 	popq	(%rax)
    2f35:	00 00 	addb	%al, (%rax)
    2f37:	02 91 68 07 fb 0a 	addb	184223592(%rcx), %dl
    2f3d:	00 00 	addb	%al, (%rax)
    2f3f:	27  <unknown>
    2f40:	01 09 	addl	%ecx, (%rcx)
    2f42:	8f 00 	popq	(%rax)
    2f44:	00 00 	addb	%al, (%rax)
    2f46:	02 91 64 09 69 00 	addb	6883684(%rcx), %dl
    2f4c:	28 01 	subb	%al, (%rcx)
    2f4e:	8f 00 	popq	(%rax)
    2f50:	00 00 	addb	%al, (%rax)
    2f52:	02 91 60 09 6a 00 	addb	6949216(%rcx), %dl
    2f58:	29 01 	subl	%eax, (%rcx)
    2f5a:	8f 00 	popq	(%rax)
    2f5c:	00 00 	addb	%al, (%rax)
    2f5e:	02 91 5c 00 0a 4e 	addb	1309278300(%rcx), %dl
    2f64:	0a 00 	orb	(%rax), %al
    2f66:	00 fd 	addb	%bh, %ch
    2f68:	4b 30 01 	xorb	%al, (%r9)
    2f6b:	00 00 	addb	%al, (%rax)
    2f6d:	00 00 	addb	%al, (%rax)
    2f6f:	00 f5 	addb	%dh, %ch
    2f71:	01 00 	addl	%eax, (%rax)
    2f73:	00 00 	addb	%al, (%rax)
    2f75:	00 00 	addb	%al, (%rax)
    2f77:	00 01 	addb	%al, (%rcx)
    2f79:	9c 	pushfq
    2f7a:	c9 	leave
    2f7b:	02 00 	addb	(%rax), %al
    2f7d:	00 01 	addb	%al, (%rcx)
    2f7f:	78 00 	js	0 <video.c+0x2f81>
    2f81:	fd 	std
    2f82:	15 8f 00 00 00 	adcl	$143, %eax
    2f87:	02 91 4c 01 79 00 	addb	7930188(%rcx), %dl
    2f8d:	fd 	std
    2f8e:	1c 8f 	sbbb	$-113, %al
    2f90:	00 00 	addb	%al, (%rax)
    2f92:	00 02 	addb	%al, (%rdx)
    2f94:	91 	xchgl	%ecx, %eax
    2f95:	48 01 72 00 	addq	%rsi, (%rdx)
    2f99:	fd 	std
    2f9a:	23 8f 00 00 00 02 	andl	33554432(%rdi), %ecx
    2fa0:	91 	xchgl	%ecx, %eax
    2fa1:	44 01 63 00 	addl	%r12d, (%rbx)
    2fa5:	fd 	std
    2fa6:	2f  <unknown>
    2fa7:	5b 	popq	%rbx
    2fa8:	00 00 	addb	%al, (%rax)
    2faa:	00 02 	addb	%al, (%rdx)
    2fac:	91 	xchgl	%ecx, %eax
    2fad:	40 04 66 	addb	$102, %al
    2fb0:	00 ff 	addb	%bh, %bh
    2fb2:	09 8f 00 00 00 02 	orl	%ecx, 33554432(%rdi)
    2fb8:	91 	xchgl	%ecx, %eax
    2fb9:	6c 	insb	%dx, %es:(%rdi)
    2fba:	07  <unknown>
    2fbb:	f5 	cmc
    2fbc:	0a 00 	orb	(%rax), %al
    2fbe:	00 00 	addb	%al, (%rax)
    2fc0:	01 09 	addl	%ecx, (%rcx)
    2fc2:	8f 00 	popq	(%rax)
    2fc4:	00 00 	addb	%al, (%rax)
    2fc6:	02 91 68 07 fb 0a 	addb	184223592(%rcx), %dl
    2fcc:	00 00 	addb	%al, (%rax)
    2fce:	01 01 	addl	%eax, (%rcx)
    2fd0:	09 8f 00 00 00 02 	orl	%ecx, 33554432(%rdi)
    2fd6:	91 	xchgl	%ecx, %eax
    2fd7:	64 09 69 00 	orl	%ebp, %fs:(%rcx)
    2fdb:	02 01 	addb	(%rcx), %al
    2fdd:	8f 00 	popq	(%rax)
    2fdf:	00 00 	addb	%al, (%rax)
    2fe1:	02 91 60 09 6a 00 	addb	6949216(%rcx), %dl
    2fe7:	03 01 	addl	(%rcx), %eax
    2fe9:	8f 00 	popq	(%rax)
    2feb:	00 00 	addb	%al, (%rax)
    2fed:	02 91 5c 00 0a 69 	addb	1762263132(%rcx), %dl
    2ff3:	0a 00 	orb	(%rax), %al
    2ff5:	00 8e d0 2d 01 00 	addb	%cl, 77264(%rsi)
    2ffb:	00 00 	addb	%al, (%rax)
    2ffd:	00 00 	addb	%al, (%rax)
    2fff:	7b 02 	jnp	2 <video.c+0x3003>
    3001:	00 00 	addb	%al, (%rax)
    3003:	00 00 	addb	%al, (%rax)
    3005:	00 00 	addb	%al, (%rax)
    3007:	01 9c 9b 04 00 00 01 	addl	%ebx, 16777220(%rbx,%rbx,4)
    300e:	78 30 	js	48 <video.c+0x3040>
    3010:	00 8e 17 8f 00 00 	addb	%cl, 36631(%rsi)
    3016:	00 03 	addb	%al, (%rbx)
    3018:	91 	xchgl	%ecx, %eax
    3019:	9c 	pushfq
    301a:	7f 01 	jg	1 <video.c+0x301d>
    301c:	79 30 	jns	48 <video.c+0x304e>
    301e:	00 8e 1f 8f 00 00 	addb	%cl, 36639(%rsi)
    3024:	00 03 	addb	%al, (%rbx)
    3026:	91 	xchgl	%ecx, %eax
    3027:	98 	cwtl
    3028:	7f 01 	jg	1 <video.c+0x302b>
    302a:	78 31 	js	49 <video.c+0x305d>
    302c:	00 8e 27 8f 00 00 	addb	%cl, 36647(%rsi)
    3032:	00 03 	addb	%al, (%rbx)
    3034:	91 	xchgl	%ecx, %eax
    3035:	94 	xchgl	%esp, %eax
    3036:	7f 01 	jg	1 <video.c+0x3039>
    3038:	79 31 	jns	49 <video.c+0x306b>
    303a:	00 8e 2f 8f 00 00 	addb	%cl, 36655(%rsi)
    3040:	00 03 	addb	%al, (%rbx)
    3042:	91 	xchgl	%ecx, %eax
    3043:	90 	nop
    3044:	7f 01 	jg	1 <video.c+0x3047>
    3046:	78 32 	js	50 <video.c+0x307a>
    3048:	00 8e 37 8f 00 00 	addb	%cl, 36663(%rsi)
    304e:	00 03 	addb	%al, (%rbx)
    3050:	91 	xchgl	%ecx, %eax
    3051:	8c 7f 01  <unknown>
    3054:	79 32 	jns	50 <video.c+0x3088>
    3056:	00 8e 3f 8f 00 00 	addb	%cl, 36671(%rsi)
    305c:	00 03 	addb	%al, (%rbx)
    305e:	91 	xchgl	%ecx, %eax
    305f:	88 7f 01 	movb	%bh, 1(%rdi)
    3062:	63  <unknown>
    3063:	00 8e 4c 5b 00 00 	addb	%cl, 23372(%rsi)
    3069:	00 02 	addb	%al, (%rdx)
    306b:	91 	xchgl	%ecx, %eax
    306c:	00 04 61 	addb	%al, (%rcx,%riz,2)
    306f:	00 90 09 8f 00 00 	addb	%dl, 36617(%rax)
    3075:	00 02 	addb	%al, (%rdx)
    3077:	91 	xchgl	%ecx, %eax
    3078:	6c 	insb	%dx, %es:(%rdi)
    3079:	04 62 	addb	$98, %al
    307b:	00 90 0c 8f 00 00 	addb	%dl, 36620(%rax)
    3081:	00 02 	addb	%al, (%rdx)
    3083:	91 	xchgl	%ecx, %eax
    3084:	68 04 79 00 90 	pushq	$-1879017212
    3089:	0f 8f 00 00 00 02 	jg	33554432 <_bss_end+0x1fef08f>
    308f:	91 	xchgl	%ecx, %eax
    3090:	64 02 db 	addb	%bl, %bl
    3093:	0a 00 	orb	(%rax), %al
    3095:	00 90 12 8f 00 00 	addb	%dl, 36626(%rax)
    309b:	00 02 	addb	%al, (%rdx)
    309d:	91 	xchgl	%ecx, %eax
    309e:	60  <unknown>
    309f:	02 a6 0a 00 00 c4 	addb	-1006632950(%rsi), %ah
    30a5:	09 8f 00 00 00 02 	orl	%ecx, 33554432(%rdi)
    30ab:	91 	xchgl	%ecx, %eax
    30ac:	48 02 e0 	addb	%al, %spl
    30af:	0a 00 	orb	(%rax), %al
    30b1:	00 c5 	addb	%al, %ch
    30b3:	09 8f 00 00 00 02 	orl	%ecx, 33554432(%rdi)
    30b9:	91 	xchgl	%ecx, %eax
    30ba:	44 02 f0 	addb	%al, %r14b
    30bd:	0a 00 	orb	(%rax), %al
    30bf:	00 c6 	addb	%al, %dh
    30c1:	09 8f 00 00 00 02 	orl	%ecx, 33554432(%rdi)
    30c7:	91 	xchgl	%ecx, %eax
    30c8:	40 02 e5 	addb	%bpl, %spl
    30cb:	0a 00 	orb	(%rax), %al
    30cd:	00 c7 	addb	%al, %bh
    30cf:	09 8f 00 00 00 03 	orl	%ecx, 50331648(%rdi)
    30d5:	91 	xchgl	%ecx, %eax
    30d6:	bc 7f 02 0c 0b 	movl	$185336447, %esp
    30db:	00 00 	addb	%al, (%rax)
    30dd:	c8 09 8f 00 	enter	$-28919, $0
    30e1:	00 00 	addb	%al, (%rax)
    30e3:	03 91 b8 7f 02 07 	addl	117604280(%rcx), %edx
    30e9:	0b 00 	orl	(%rax), %eax
    30eb:	00 c9 	addb	%cl, %cl
    30ed:	09 8f 00 00 00 03 	orl	%ecx, 50331648(%rdi)
    30f3:	91 	xchgl	%ecx, %eax
    30f4:	b4 7f 	movb	$127, %ah
    30f6:	04 73 	addb	$115, %al
    30f8:	61  <unknown>
    30f9:	00 ca 	addb	%cl, %dl
    30fb:	09 8f 00 00 00 02 	orl	%ecx, 33554432(%rdi)
    3101:	91 	xchgl	%ecx, %eax
    3102:	5c 	popq	%rsp
    3103:	04 73 	addb	$115, %al
    3105:	62  <unknown>
    3106:	00 cb 	addb	%cl, %bl
    3108:	09 8f 00 00 00 02 	orl	%ecx, 33554432(%rdi)
    310e:	91 	xchgl	%ecx, %eax
    310f:	58 	popq	%rax
    3110:	0b f4 	orl	%esp, %esi
    3112:	2d 01 00 00 00 	subl	$1, %eax
    3117:	00 00 	addb	%al, (%rax)
    3119:	24 00 	andb	$0, %al
    311b:	00 00 	addb	%al, (%rax)
    311d:	00 00 	addb	%al, (%rax)
    311f:	00 00 	addb	%al, (%rax)
    3121:	0c 04 	orb	$4, %al
    3123:	00 00 	addb	%al, (%rax)
    3125:	02 42 02 	addb	2(%rdx), %al
    3128:	00 00 	addb	%al, (%rax)
    312a:	95 	xchgl	%ebp, %eax
    312b:	0d 8f 00 00 00 	orl	$143, %eax
    3130:	02 91 54 00 0b 20 	addb	537591892(%rcx), %dl
    3136:	2e 01 00 	addl	%eax, %cs:(%rax)
    3139:	00 00 	addb	%al, (%rax)
    313b:	00 00 	addb	%al, (%rax)
    313d:	24 00 	andb	$0, %al
    313f:	00 00 	addb	%al, (%rax)
    3141:	00 00 	addb	%al, (%rax)
    3143:	00 00 	addb	%al, (%rax)
    3145:	30 04 00 	xorb	%al, (%rax,%rax)
    3148:	00 02 	addb	%al, (%rdx)
    314a:	42 02 00 	addb	(%rax), %al
    314d:	00 9f 0d 8f 00 00 	addb	%bl, 36621(%rdi)
    3153:	00 02 	addb	%al, (%rdx)
    3155:	91 	xchgl	%ecx, %eax
    3156:	50 	pushq	%rax
    3157:	00 0b 	addb	%cl, (%rbx)
    3159:	4c 2e 	cs
    315b:	01 00 	addl	%eax, (%rax)
    315d:	00 00 	addb	%al, (%rax)
    315f:	00 00 	addb	%al, (%rax)
    3161:	24 00 	andb	$0, %al
    3163:	00 00 	addb	%al, (%rax)
    3165:	00 00 	addb	%al, (%rax)
    3167:	00 00 	addb	%al, (%rax)
    3169:	54 	pushq	%rsp
    316a:	04 00 	addb	$0, %al
    316c:	00 02 	addb	%al, (%rdx)
    316e:	42 02 00 	addb	(%rax), %al
    3171:	00 a9 0d 8f 00 00 	addb	%ch, 36621(%rcx)
    3177:	00 02 	addb	%al, (%rdx)
    3179:	91 	xchgl	%ecx, %eax
    317a:	4c 00 0b 	addb	%r9b, (%rbx)
    317d:	7d 2f 	jge	47 <video.c+0x31ae>
    317f:	01 00 	addl	%eax, (%rax)
    3181:	00 00 	addb	%al, (%rax)
    3183:	00 00 	addb	%al, (%rax)
    3185:	12 00 	adcb	(%rax), %al
    3187:	00 00 	addb	%al, (%rax)
    3189:	00 00 	addb	%al, (%rax)
    318b:	00 00 	addb	%al, (%rax)
    318d:	79 04 	jns	4 <video.c+0x3193>
    318f:	00 00 	addb	%al, (%rax)
    3191:	02 42 02 	addb	2(%rdx), %al
    3194:	00 00 	addb	%al, (%rax)
    3196:	e1 11 	loope	17
    3198:	8f 00 	popq	(%rax)
    319a:	00 00 	addb	%al, (%rax)
    319c:	03 91 ac 7f 00 0d 	addl	218136492(%rcx), %edx
    31a2:	0e  <unknown>
    31a3:	30 01 	xorb	%al, (%rcx)
    31a5:	00 00 	addb	%al, (%rax)
    31a7:	00 00 	addb	%al, (%rax)
    31a9:	00 12 	addb	%dl, (%rdx)
    31ab:	00 00 	addb	%al, (%rax)
    31ad:	00 00 	addb	%al, (%rax)
    31af:	00 00 	addb	%al, (%rax)
    31b1:	00 02 	addb	%al, (%rdx)
    31b3:	42 02 00 	addb	(%rax), %al
    31b6:	00 f5 	addb	%dh, %ch
    31b8:	11 8f 00 00 00 03 	adcl	%ecx, 50331648(%rdi)
    31be:	91 	xchgl	%ecx, %eax
    31bf:	b0 7f 	movb	$127, %al
    31c1:	00 00 	addb	%al, (%rax)
    31c3:	0a 76 0a 	orb	10(%rsi), %dh
    31c6:	00 00 	addb	%al, (%rax)
    31c8:	87 66 2d 	xchgl	%esp, 45(%rsi)
    31cb:	01 00 	addl	%eax, (%rax)
    31cd:	00 00 	addb	%al, (%rax)
    31cf:	00 00 	addb	%al, (%rax)
    31d1:	6a 00 	pushq	$0
    31d3:	00 00 	addb	%al, (%rax)
    31d5:	00 00 	addb	%al, (%rax)
    31d7:	00 00 	addb	%al, (%rax)
    31d9:	01 9c 12 05 00 00 01 	addl	%ebx, 16777221(%rdx,%rdx)
    31e0:	78 00 	js	0 <video.c+0x31e2>
    31e2:	87 17 	xchgl	%edx, (%rdi)
    31e4:	8f 00 	popq	(%rax)
    31e6:	00 00 	addb	%al, (%rax)
    31e8:	02 91 6c 01 79 00 	addb	7930220(%rcx), %dl
    31ee:	87 1e 	xchgl	%ebx, (%rsi)
    31f0:	8f 00 	popq	(%rax)
    31f2:	00 00 	addb	%al, (%rax)
    31f4:	02 91 68 01 78 31 	addb	829948264(%rcx), %dl
    31fa:	00 87 25 8f 00 00 	addb	%al, 36645(%rdi)
    3200:	00 02 	addb	%al, (%rdx)
    3202:	91 	xchgl	%ecx, %eax
    3203:	64 01 79 31 	addl	%edi, %fs:49(%rcx)
    3207:	00 87 2d 8f 00 00 	addb	%al, 36653(%rdi)
    320d:	00 02 	addb	%al, (%rdx)
    320f:	91 	xchgl	%ecx, %eax
    3210:	60  <unknown>
    3211:	01 78 32 	addl	%edi, 50(%rax)
    3214:	00 87 35 8f 00 00 	addb	%al, 36661(%rdi)
    321a:	00 02 	addb	%al, (%rdx)
    321c:	91 	xchgl	%ecx, %eax
    321d:	5c 	popq	%rsp
    321e:	01 79 32 	addl	%edi, 50(%rcx)
    3221:	00 87 3d 8f 00 00 	addb	%al, 36669(%rdi)
    3227:	00 02 	addb	%al, (%rdx)
    3229:	91 	xchgl	%ecx, %eax
    322a:	58 	popq	%rax
    322b:	06  <unknown>
    322c:	c5 0a 00  <unknown>
    322f:	00 87 45 8f 00 00 	addb	%al, 36677(%rdi)
    3235:	00 02 	addb	%al, (%rdx)
    3237:	91 	xchgl	%ecx, %eax
    3238:	00 00 	addb	%al, (%rax)
    323a:	0e  <unknown>
    323b:	96 	xchgl	%esi, %eax
    323c:	0a 00 	orb	(%rax), %al
    323e:	00 75 7a 	addb	%dh, 122(%rbp)
    3241:	2c 01 	subb	$1, %al
    3243:	00 00 	addb	%al, (%rax)
    3245:	00 00 	addb	%al, (%rax)
    3247:	00 ec 	addb	%ch, %ah
    3249:	00 00 	addb	%al, (%rax)
    324b:	00 00 	addb	%al, (%rax)
    324d:	00 00 	addb	%al, (%rax)
    324f:	00 01 	addb	%al, (%rcx)
    3251:	9c 	pushfq
    3252:	a2 05 00 00 01 78 00 75 13 	movabsb	%al, 1402027374408630277
    325b:	8f 00 	popq	(%rax)
    325d:	00 00 	addb	%al, (%rax)
    325f:	02 91 4c 01 79 00 	addb	7930188(%rcx), %dl
    3265:	75 1a 	jne	26 <video.c+0x3281>
    3267:	8f 00 	popq	(%rax)
    3269:	00 00 	addb	%al, (%rax)
    326b:	02 91 48 01 68 00 	addb	6816072(%rcx), %dl
    3271:	75 21 	jne	33 <video.c+0x3294>
    3273:	8f 00 	popq	(%rax)
    3275:	00 00 	addb	%al, (%rax)
    3277:	02 91 44 01 77 00 	addb	7799108(%rcx), %dl
    327d:	75 28 	jne	40 <video.c+0x32a7>
    327f:	8f 00 	popq	(%rax)
    3281:	00 00 	addb	%al, (%rax)
    3283:	02 91 40 06 c5 0a 	addb	180684352(%rcx), %dl
    3289:	00 00 	addb	%al, (%rax)
    328b:	75 34 	jne	52 <video.c+0x32c1>
    328d:	5b 	popq	%rbx
    328e:	00 00 	addb	%al, (%rax)
    3290:	00 03 	addb	%al, (%rbx)
    3292:	91 	xchgl	%ecx, %eax
    3293:	bc 7f 02 cb 0a 	movl	$181076607, %esp
    3298:	00 00 	addb	%al, (%rax)
    329a:	77 0e 	ja	14 <video.c+0x32aa>
    329c:	a2 05 00 00 02 91 58 02 bf 	movabsb	%al, -4683083282684837883
    32a5:	0a 00 	orb	(%rax), %al
    32a7:	00 78 0e 	addb	%bh, 14(%rax)
    32aa:	75 00 	jne	0 <video.c+0x32ac>
    32ac:	00 00 	addb	%al, (%rax)
    32ae:	02 91 68 04 69 00 	addb	6882408(%rcx), %dl
    32b4:	7a 09 	jp	9 <video.c+0x32bf>
    32b6:	8f 00 	popq	(%rax)
    32b8:	00 00 	addb	%al, (%rax)
    32ba:	02 91 64 04 6a 00 	addb	6947940(%rcx), %dl
    32c0:	7a 10 	jp	16 <video.c+0x32d2>
    32c2:	8f 00 	popq	(%rax)
    32c4:	00 00 	addb	%al, (%rax)
    32c6:	02 91 60 00 19 08 	addb	135856224(%rcx), %dl
    32cc:	35 00 00 00 0a 	xorl	$167772160, %eax
    32d1:	3c 01 	cmpb	$1, %al
    32d3:	00 00 	addb	%al, (%rax)
    32d5:	6d 	insl	%dx, %es:(%rdi)
    32d6:	07  <unknown>
    32d7:	2c 01 	subb	$1, %al
    32d9:	00 00 	addb	%al, (%rax)
    32db:	00 00 	addb	%al, (%rax)
    32dd:	00 73 00 	addb	%dh, (%rbx)
    32e0:	00 00 	addb	%al, (%rax)
    32e2:	00 00 	addb	%al, (%rax)
    32e4:	00 00 	addb	%al, (%rax)
    32e6:	01 9c 03 06 00 00 01 	addl	%ebx, 16777222(%rbx,%rax)
    32ed:	78 00 	js	0 <video.c+0x32ef>
    32ef:	6d 	insl	%dx, %es:(%rdi)
    32f0:	13 8f 00 00 00 02 	adcl	33554432(%rdi), %ecx
    32f6:	91 	xchgl	%ecx, %eax
    32f7:	6c 	insb	%dx, %es:(%rdi)
    32f8:	01 79 00 	addl	%edi, (%rcx)
    32fb:	6d 	insl	%dx, %es:(%rdi)
    32fc:	1a 8f 00 00 00 02 	sbbb	33554432(%rdi), %cl
    3302:	91 	xchgl	%ecx, %eax
    3303:	68 01 68 00 6d 	pushq	$1828743169
    3308:	21 8f 00 00 00 02 	andl	%ecx, 33554432(%rdi)
    330e:	91 	xchgl	%ecx, %eax
    330f:	64 01 77 00 	addl	%esi, %fs:(%rdi)
    3313:	6d 	insl	%dx, %es:(%rdi)
    3314:	28 8f 00 00 00 02 	subb	%cl, 33554432(%rdi)
    331a:	91 	xchgl	%ecx, %eax
    331b:	60  <unknown>
    331c:	06  <unknown>
    331d:	c5 0a 00  <unknown>
    3320:	00 6d 2f 	addb	%ch, 47(%rbp)
    3323:	8f 00 	popq	(%rax)
    3325:	00 00 	addb	%al, (%rax)
    3327:	02 91 5c 00 0e 83 	addb	-2096234404(%rcx), %dl
    332d:	0a 00 	orb	(%rax), %al
    332f:	00 60 51 	addb	%ah, 81(%rax)
    3332:	2b 01 	subl	(%rcx), %eax
    3334:	00 00 	addb	%al, (%rax)
    3336:	00 00 	addb	%al, (%rax)
    3338:	00 b6 00 00 00 00 	addb	%dh, (%rsi)
    333e:	00 00 	addb	%al, (%rax)
    3340:	00 01 	addb	%al, (%rcx)
    3342:	9c 	pushfq
    3343:	8c 06 	movw	%es, (%rsi)
    3345:	00 00 	addb	%al, (%rax)
    3347:	01 78 00 	addl	%edi, (%rax)
    334a:	60  <unknown>
    334b:	14 8f 	adcb	$-113, %al
    334d:	00 00 	addb	%al, (%rax)
    334f:	00 02 	addb	%al, (%rdx)
    3351:	91 	xchgl	%ecx, %eax
    3352:	4c 01 79 00 	addq	%r15, (%rcx)
    3356:	60  <unknown>
    3357:	1b 8f 00 00 00 02 	sbbl	33554432(%rdi), %ecx
    335d:	91 	xchgl	%ecx, %eax
    335e:	48 01 77 00 	addq	%rsi, (%rdi)
    3362:	60  <unknown>
    3363:	22 8f 00 00 00 02 	andb	33554432(%rdi), %cl
    3369:	91 	xchgl	%ecx, %eax
    336a:	44 06  <unknown>
    336c:	c5 0a 00  <unknown>
    336f:	00 60 29 	addb	%ah, 41(%rax)
    3372:	8f 00 	popq	(%rax)
    3374:	00 00 	addb	%al, (%rax)
    3376:	02 91 40 02 cb 0a 	addb	181076544(%rcx), %dl
    337c:	00 00 	addb	%al, (%rax)
    337e:	62  <unknown>
    337f:	0e  <unknown>
    3380:	a2 05 00 00 02 91 60 02 bf 	movabsb	%al, -4683074486591815675
    3389:	0a 00 	orb	(%rax), %al
    338b:	00 63 0e 	addb	%ah, 14(%rbx)
    338e:	75 00 	jne	0 <video.c+0x3390>
    3390:	00 00 	addb	%al, (%rax)
    3392:	02 91 58 0d 84 2b 	addb	730074456(%rcx), %dl
    3398:	01 00 	addl	%eax, (%rax)
    339a:	00 00 	addb	%al, (%rax)
    339c:	00 00 	addb	%al, (%rax)
    339e:	7f 00 	jg	0 <video.c+0x33a0>
    33a0:	00 00 	addb	%al, (%rax)
    33a2:	00 00 	addb	%al, (%rax)
    33a4:	00 00 	addb	%al, (%rax)
    33a6:	04 69 	addb	$105, %al
    33a8:	00 65 0e 	addb	%ah, 14(%rbp)
    33ab:	8f 00 	popq	(%rax)
    33ad:	00 00 	addb	%al, (%rax)
    33af:	02 91 6c 00 00 0e 	addb	234881132(%rcx), %dl
    33b5:	5f 	popq	%rdi
    33b6:	0a 00 	orb	(%rax), %al
    33b8:	00 53 92 	addb	%dl, -110(%rbx)
    33bb:	2a 01 	subb	(%rcx), %al
    33bd:	00 00 	addb	%al, (%rax)
    33bf:	00 00 	addb	%al, (%rax)
    33c1:	00 bf 00 00 00 00 	addb	%bh, (%rdi)
    33c7:	00 00 	addb	%al, (%rax)
    33c9:	00 01 	addb	%al, (%rcx)
    33cb:	9c 	pushfq
    33cc:	15 07 00 00 01 	adcl	$16777223, %eax
    33d1:	78 00 	js	0 <video.c+0x33d3>
    33d3:	53 	pushq	%rbx
    33d4:	14 8f 	adcb	$-113, %al
    33d6:	00 00 	addb	%al, (%rax)
    33d8:	00 02 	addb	%al, (%rdx)
    33da:	91 	xchgl	%ecx, %eax
    33db:	4c 01 79 00 	addq	%r15, (%rcx)
    33df:	53 	pushq	%rbx
    33e0:	1b 8f 00 00 00 02 	sbbl	33554432(%rdi), %ecx
    33e6:	91 	xchgl	%ecx, %eax
    33e7:	48 01 68 00 	addq	%rbp, (%rax)
    33eb:	53 	pushq	%rbx
    33ec:	22 8f 00 00 00 02 	andb	33554432(%rdi), %cl
    33f2:	91 	xchgl	%ecx, %eax
    33f3:	44 06  <unknown>
    33f5:	c5 0a 00  <unknown>
    33f8:	00 53 29 	addb	%dl, 41(%rbx)
    33fb:	8f 00 	popq	(%rax)
    33fd:	00 00 	addb	%al, (%rax)
    33ff:	02 91 40 02 cb 0a 	addb	181076544(%rcx), %dl
    3405:	00 00 	addb	%al, (%rax)
    3407:	55 	pushq	%rbp
    3408:	0e  <unknown>
    3409:	a2 05 00 00 02 91 60 02 bf 	movabsb	%al, -4683074486591815675
    3412:	0a 00 	orb	(%rax), %al
    3414:	00 56 0e 	addb	%dl, 14(%rsi)
    3417:	75 00 	jne	0 <video.c+0x3419>
    3419:	00 00 	addb	%al, (%rax)
    341b:	02 91 58 0d c5 2a 	addb	717557080(%rcx), %dl
    3421:	01 00 	addl	%eax, (%rax)
    3423:	00 00 	addb	%al, (%rax)
    3425:	00 00 	addb	%al, (%rax)
    3427:	88 00 	movb	%al, (%rax)
    3429:	00 00 	addb	%al, (%rax)
    342b:	00 00 	addb	%al, (%rax)
    342d:	00 00 	addb	%al, (%rax)
    342f:	04 69 	addb	$105, %al
    3431:	00 58 0e 	addb	%bl, 14(%rax)
    3434:	8f 00 	popq	(%rax)
    3436:	00 00 	addb	%al, (%rax)
    3438:	02 91 6c 00 00 0a 	addb	167772268(%rcx), %dl
    343e:	8d 0a 	leal	(%rdx), %ecx
    3440:	00 00 	addb	%al, (%rax)
    3442:	18 45 29 	sbbb	%al, 41(%rbp)
    3445:	01 00 	addl	%eax, (%rax)
    3447:	00 00 	addb	%al, (%rax)
    3449:	00 00 	addb	%al, (%rax)
    344b:	4d 01 00 	addq	%r8, (%r8)
    344e:	00 00 	addb	%al, (%rax)
    3450:	00 00 	addb	%al, (%rax)
    3452:	00 01 	addb	%al, (%rcx)
    3454:	9c 	pushfq
    3455:	0e  <unknown>
    3456:	08 00 	orb	%al, (%rax)
    3458:	00 01 	addb	%al, (%rcx)
    345a:	78 00 	js	0 <video.c+0x345c>
    345c:	18 13 	sbbb	%dl, (%rbx)
    345e:	8f 00 	popq	(%rax)
    3460:	00 00 	addb	%al, (%rax)
    3462:	03 91 bc 7f 01 79 	addl	2030141372(%rcx), %edx
    3468:	00 18 	addb	%bl, (%rax)
    346a:	1a 8f 00 00 00 03 	sbbb	50331648(%rdi), %cl
    3470:	91 	xchgl	%ecx, %eax
    3471:	b8 7f 01 78 31 	movl	$829948287, %eax
    3476:	00 18 	addb	%bl, (%rax)
    3478:	21 8f 00 00 00 03 	andl	%ecx, 50331648(%rdi)
    347e:	91 	xchgl	%ecx, %eax
    347f:	b4 7f 	movb	$127, %ah
    3481:	01 79 31 	addl	%edi, 49(%rcx)
    3484:	00 18 	addb	%bl, (%rax)
    3486:	29 8f 00 00 00 03 	subl	%ecx, 50331648(%rdi)
    348c:	91 	xchgl	%ecx, %eax
    348d:	b0 7f 	movb	$127, %al
    348f:	06  <unknown>
    3490:	c5 0a 00  <unknown>
    3493:	00 18 	addb	%bl, (%rax)
    3495:	36 5b 	popq	%rbx
    3497:	00 00 	addb	%al, (%rax)
    3499:	00 03 	addb	%al, (%rbx)
    349b:	91 	xchgl	%ecx, %eax
    349c:	ac 	lodsb	(%rsi), %al
    349d:	7f 02 	jg	2 <video.c+0x34a1>
    349f:	ea  <unknown>
    34a0:	0a 00 	orb	(%rax), %al
    34a2:	00 1a 	addb	%bl, (%rdx)
    34a4:	09 8f 00 00 00 02 	orl	%ecx, 33554432(%rdi)
    34aa:	91 	xchgl	%ecx, %eax
    34ab:	54 	pushq	%rsp
    34ac:	0f 61 62 73 	punpcklwd	115(%rdx), %mm4
    34b0:	00 8f 00 00 00 93 	addb	%cl, -1828716544(%rdi)
    34b6:	07  <unknown>
    34b7:	00 00 	addb	%al, (%rax)
    34b9:	10 00 	adcb	%al, (%rax)
    34bb:	04 64 	addb	$100, %al
    34bd:	78 00 	js	0 <video.c+0x34bf>
    34bf:	31 09 	xorl	%ecx, (%rcx)
    34c1:	8f 00 	popq	(%rax)
    34c3:	00 00 	addb	%al, (%rax)
    34c5:	02 91 48 04 64 79 	addb	2036597832(%rcx), %dl
    34cb:	00 31 	addb	%dh, (%rcx)
    34cd:	0d 8f 00 00 00 	orl	$143, %eax
    34d2:	02 91 44 04 65 72 	addb	1919222852(%rcx), %dl
    34d8:	72 00 	jb	0 <video.c+0x34da>
    34da:	35 09 8f 00 00 	xorl	$36617, %eax
    34df:	00 02 	addb	%al, (%rdx)
    34e1:	91 	xchgl	%ecx, %eax
    34e2:	5c 	popq	%rsp
    34e3:	02 01 	addb	(%rcx), %al
    34e5:	0b 00 	orl	(%rax), %eax
    34e7:	00 36 	addb	%dh, (%rsi)
    34e9:	09 8f 00 00 00 02 	orl	%ecx, 33554432(%rdi)
    34ef:	91 	xchgl	%ecx, %eax
    34f0:	58 	popq	%rax
    34f1:	0b 95 29 01 00 00 	orl	297(%rbp), %edx
    34f7:	00 00 	addb	%al, (%rax)
    34f9:	00 24 00 	addb	%ah, (%rax,%rax)
    34fc:	00 00 	addb	%al, (%rax)
    34fe:	00 00 	addb	%al, (%rax)
    3500:	00 00 	addb	%al, (%rax)
    3502:	ed 	inl	%dx, %eax
    3503:	07  <unknown>
    3504:	00 00 	addb	%al, (%rax)
    3506:	02 42 02 	addb	2(%rdx), %al
    3509:	00 00 	addb	%al, (%rax)
    350b:	1d 0d 8f 00 00 	sbbl	$36621, %eax
    3510:	00 02 	addb	%al, (%rdx)
    3512:	91 	xchgl	%ecx, %eax
    3513:	50 	pushq	%rax
    3514:	00 0d c1 29 01 00 	addb	%cl, 76225(%rip)
    351a:	00 00 	addb	%al, (%rax)
    351c:	00 00 	addb	%al, (%rax)
    351e:	24 00 	andb	$0, %al
    3520:	00 00 	addb	%al, (%rax)
    3522:	00 00 	addb	%al, (%rax)
    3524:	00 00 	addb	%al, (%rax)
    3526:	02 42 02 	addb	2(%rdx), %al
    3529:	00 00 	addb	%al, (%rax)
    352b:	28 0d 8f 00 00 00 	subb	%cl, 143(%rip)
    3531:	02 91 4c 00 00 1a 	addb	436207692(%rcx), %dl
    3537:	d2 0a 	rorb	%cl, (%rdx)
    3539:	00 00 	addb	%al, (%rax)
    353b:	01 0f 	addl	%ecx, (%rdi)
    353d:	0a 5b 00 	orb	(%rbx), %bl
    3540:	00 00 	addb	%al, (%rax)
    3542:	d2 28 	shrb	%cl, (%rax)
    3544:	01 00 	addl	%eax, (%rax)
    3546:	00 00 	addb	%al, (%rax)
    3548:	00 00 	addb	%al, (%rax)
    354a:	73 00 	jae	0 <video.c+0x354c>
    354c:	00 00 	addb	%al, (%rax)
    354e:	00 00 	addb	%al, (%rax)
    3550:	00 00 	addb	%al, (%rax)
    3552:	01 9c 73 08 00 00 01 	addl	%ebx, 16777224(%rbx,%rsi,2)
    3559:	78 00 	js	0 <video.c+0x355b>
    355b:	0f 17 8f 00 00 00 02 	movhps	%xmm1, 33554432(%rdi)
    3562:	91 	xchgl	%ecx, %eax
    3563:	4c 01 79 00 	addq	%r15, (%rcx)
    3567:	0f 1e  <unknown>
    3569:	8f 00 	popq	(%rax)
    356b:	00 00 	addb	%al, (%rax)
    356d:	02 91 48 02 c5 0a 	addb	180683336(%rcx), %dl
    3573:	00 00 	addb	%al, (%rax)
    3575:	11 0e 	adcl	%ecx, (%rsi)
    3577:	5b 	popq	%rbx
    3578:	00 00 	addb	%al, (%rax)
    357a:	00 02 	addb	%al, (%rdx)
    357c:	91 	xchgl	%ecx, %eax
    357d:	5c 	popq	%rsp
    357e:	02 cb 	addb	%bl, %cl
    3580:	0a 00 	orb	(%rax), %al
    3582:	00 12 	addb	%dl, (%rdx)
    3584:	0e  <unknown>
    3585:	a2 05 00 00 02 91 68 02 bf 	movabsb	%al, -4683065690498793467
    358e:	0a 00 	orb	(%rax), %al
    3590:	00 13 	addb	%dl, (%rbx)
    3592:	0e  <unknown>
    3593:	75 00 	jne	0 <video.c+0x3595>
    3595:	00 00 	addb	%al, (%rax)
    3597:	02 91 60 00 1b ab 	addb	-1424293792(%rcx), %dl
    359d:	0a 00 	orb	(%rax), %al
    359f:	00 01 	addb	%al, (%rcx)
    35a1:	05 06 44 28 01 	addl	$19416070, %eax
    35a6:	00 00 	addb	%al, (%rax)
    35a8:	00 00 	addb	%al, (%rax)
    35aa:	00 8e 00 00 00 00 	addb	%cl, (%rsi)
    35b0:	00 00 	addb	%al, (%rax)
    35b2:	00 01 	addb	%al, (%rcx)
    35b4:	9c 	pushfq
    35b5:	01 78 00 	addl	%edi, (%rax)
    35b8:	05 18 75 00 00 	addl	$29976, %eax
    35bd:	00 02 	addb	%al, (%rdx)
    35bf:	91 	xchgl	%ecx, %eax
    35c0:	58 	popq	%rax
    35c1:	01 79 00 	addl	%edi, (%rcx)
    35c4:	05 24 75 00 00 	addl	$29988, %eax
    35c9:	00 02 	addb	%al, (%rdx)
    35cb:	91 	xchgl	%ecx, %eax
    35cc:	50 	pushq	%rax
    35cd:	06  <unknown>
    35ce:	c5 0a 00  <unknown>
    35d1:	00 05 30 5b 00 00 	addb	%al, 23344(%rip)
    35d7:	00 02 	addb	%al, (%rdx)
    35d9:	91 	xchgl	%ecx, %eax
    35da:	4c 02 cb 	addb	%bl, %r9b
    35dd:	0a 00 	orb	(%rax), %al
    35df:	00 07 	addb	%al, (%rdi)
    35e1:	0e  <unknown>
    35e2:	a2 05 00 00 02 91 68 02 bf 	movabsb	%al, -4683065690498793467
    35eb:	0a 00 	orb	(%rax), %al
    35ed:	00 08 	addb	%cl, (%rax)
    35ef:	0e  <unknown>
    35f0:	75 00 	jne	0 <video.c+0x35f2>
    35f2:	00 00 	addb	%al, (%rax)
    35f4:	02 91  <unknown>
    35f6:	60  <unknown>
    35f7:	00 00 	addb	%al, (%rax)
Disassembly of section .debug_abbrev:
.debug_abbrev:
       0:	01 0d 00 03 0e 3a 	addl	%ecx, 973996800(%rip)
       6:	0b 3b 	orl	(%rbx), %edi
       8:	0b 39 	orl	(%rcx), %edi
       a:	0b 49 13 	orl	19(%rcx), %ecx
       d:	38 0b 	cmpb	%cl, (%rbx)
       f:	00 00 	addb	%al, (%rax)
      11:	02 05 00 49 13 00 	addb	1263872(%rip), %al
      17:	00 03 	addb	%al, (%rbx)
      19:	24 00 	andb	$0, %al
      1b:	0b 0b 	orl	(%rbx), %ecx
      1d:	3e 0b 03 	orl	%ds:(%rbx), %eax
      20:	0e  <unknown>
      21:	00 00 	addb	%al, (%rax)
      23:	04 16 	addb	$22, %al
      25:	00 03 	addb	%al, (%rbx)
      27:	0e  <unknown>
      28:	3a 0b 	cmpb	(%rbx), %cl
      2a:	3b 0b 	cmpl	(%rbx), %ecx
      2c:	39 0b 	cmpl	%ecx, (%rbx)
      2e:	49 13 00 	adcq	(%r8), %rax
      31:	00 05 18 00 00 00 	addb	%al, 24(%rip)
      37:	06  <unknown>
      38:	0f 00 0b 	strw	(%rbx)
      3b:	21 08 	andl	%ecx, (%rax)
      3d:	49 13 00 	adcq	(%r8), %rax
      40:	00 07 	addb	%al, (%rdi)
      42:	2e 01 3f 	addl	%edi, %cs:(%rdi)
      45:	19 03 	sbbl	%eax, (%rbx)
      47:	0e  <unknown>
      48:	3a 0b 	cmpb	(%rbx), %cl
      4a:	3b 0b 	cmpl	(%rbx), %ecx
      4c:	39 21 	cmpl	%esp, (%rcx)
      4e:	06  <unknown>
      4f:	27  <unknown>
      50:	19 3c 19 	sbbl	%edi, (%rcx,%rbx)
      53:	01 13 	addl	%edx, (%rbx)
      55:	00 00 	addb	%al, (%rax)
      57:	08 13 	orb	%dl, (%rbx)
      59:	01 0b 	addl	%ecx, (%rbx)
      5b:	0b 3a 	orl	(%rdx), %edi
      5d:	0b 3b 	orl	(%rbx), %edi
      5f:	0b 39 	orl	(%rcx), %edi
      61:	21 09 	andl	%ecx, (%rcx)
      63:	01 13 	addl	%edx, (%rbx)
      65:	00 00 	addb	%al, (%rax)
      67:	09 2e 	orl	%ebp, (%rsi)
      69:	01 3f 	addl	%edi, (%rdi)
      6b:	19 03 	sbbl	%eax, (%rbx)
      6d:	0e  <unknown>
      6e:	3a 0b 	cmpb	(%rbx), %cl
      70:	3b 0b 	cmpl	(%rbx), %ecx
      72:	39 21 	cmpl	%esp, (%rcx)
      74:	06  <unknown>
      75:	3c 19 	cmpb	$25, %al
      77:	01 13 	addl	%edx, (%rbx)
      79:	00 00 	addb	%al, (%rax)
      7b:	0a 11 	orb	(%rcx), %dl
      7d:	01 25 0e 13 0b 03 	addl	%esp, 51057422(%rip)
      83:	1f  <unknown>
      84:	1b 1f 	sbbl	(%rdi), %ebx
      86:	11 01 	adcl	%eax, (%rcx)
      88:	12 07 	adcb	(%rdi), %al
      8a:	10 17 	adcb	%dl, (%rdi)
      8c:	00 00 	addb	%al, (%rax)
      8e:	0b 26 	orl	(%rsi), %esp
      90:	00 49 13 	addb	%cl, 19(%rcx)
      93:	00 00 	addb	%al, (%rax)
      95:	0c 24 	orb	$36, %al
      97:	00 0b 	addb	%cl, (%rbx)
      99:	0b 3e 	orl	(%rsi), %edi
      9b:	0b 03 	orl	(%rbx), %eax
      9d:	08 00 	orb	%al, (%rax)
      9f:	00 0d 0d 00 03 08 	addb	%cl, 134414349(%rip)
      a5:	3a 0b 	cmpb	(%rbx), %cl
      a7:	3b 0b 	cmpl	(%rbx), %ecx
      a9:	39 0b 	cmpl	%ecx, (%rbx)
      ab:	49 13 38 	adcq	(%r8), %rdi
      ae:	0b 00 	orl	(%rax), %eax
      b0:	00 0e 	addb	%cl, (%rsi)
      b2:	01 01 	addl	%eax, (%rcx)
      b4:	49 13 01 	adcq	(%r9), %rax
      b7:	13 00 	adcl	(%rax), %eax
      b9:	00 0f 	addb	%cl, (%rdi)
      bb:	21 00 	andl	%eax, (%rax)
      bd:	49 13 2f 	adcq	(%r15), %rbp
      c0:	0b 00 	orl	(%rax), %eax
      c2:	00 10 	addb	%dl, (%rax)
      c4:	34 00 	xorb	$0, %al
      c6:	03 0e 	addl	(%rsi), %ecx
      c8:	3a 0b 	cmpb	(%rbx), %cl
      ca:	3b 0b 	cmpl	(%rbx), %ecx
      cc:	39 0b 	cmpl	%ecx, (%rbx)
      ce:	49 13 3f 	adcq	(%r15), %rdi
      d1:	19 3c 19 	sbbl	%edi, (%rcx,%rbx)
      d4:	00 00 	addb	%al, (%rax)
      d6:	11 34 00 	adcl	%esi, (%rax,%rax)
      d9:	47 13 3a 	adcl	(%r10), %r15d
      dc:	0b 3b 	orl	(%rbx), %edi
      de:	0b 39 	orl	(%rcx), %edi
      e0:	0b 02 	orl	(%rdx), %eax
      e2:	18 00 	sbbb	%al, (%rax)
      e4:	00 12 	addb	%dl, (%rdx)
      e6:	2e 01 3f 	addl	%edi, %cs:(%rdi)
      e9:	19 03 	sbbl	%eax, (%rbx)
      eb:	0e  <unknown>
      ec:	3a 0b 	cmpb	(%rbx), %cl
      ee:	3b 0b 	cmpl	(%rbx), %ecx
      f0:	39 0b 	cmpl	%ecx, (%rbx)
      f2:	49 13 3c 19 	adcq	(%r9,%rbx), %rdi
      f6:	01 13 	addl	%edx, (%rbx)
      f8:	00 00 	addb	%al, (%rax)
      fa:	13 2e 	adcl	(%rsi), %ebp
      fc:	01 3f 	addl	%edi, (%rdi)
      fe:	19 03 	sbbl	%eax, (%rbx)
     100:	0e  <unknown>
     101:	3a 0b 	cmpb	(%rbx), %cl
     103:	3b 0b 	cmpl	(%rbx), %ecx
     105:	39 0b 	cmpl	%ecx, (%rbx)
     107:	27  <unknown>
     108:	19 49 13 	sbbl	%ecx, 19(%rcx)
     10b:	11 01 	adcl	%eax, (%rcx)
     10d:	12 07 	adcb	(%rdi), %al
     10f:	40 18 7c 19 01 	sbbb	%dil, 1(%rcx,%rbx)
     114:	13 00 	adcl	(%rax), %eax
     116:	00 14 05 00 03 0e 3a 	addb	%dl, 973996800(,%rax)
     11d:	0b 3b 	orl	(%rbx), %edi
     11f:	0b 39 	orl	(%rcx), %edi
     121:	0b 49 13 	orl	19(%rcx), %ecx
     124:	02 18 	addb	(%rax), %bl
     126:	00 00 	addb	%al, (%rax)
     128:	15 2e 01 3f 19 	adcl	$423559470, %eax
     12d:	03 0e 	addl	(%rsi), %ecx
     12f:	3a 0b 	cmpb	(%rbx), %cl
     131:	3b 0b 	cmpl	(%rbx), %ecx
     133:	39 0b 	cmpl	%ecx, (%rbx)
     135:	49 13 3c 19 	adcq	(%r9,%rbx), %rdi
     139:	00 00 	addb	%al, (%rax)
     13b:	00 01 	addb	%al, (%rcx)
     13d:	05 00 03 08 3a 	addl	$973603584, %eax
     142:	21 01 	andl	%eax, (%rcx)
     144:	3b 0b 	cmpl	(%rbx), %ecx
     146:	39 0b 	cmpl	%ecx, (%rbx)
     148:	49 13 02 	adcq	(%r10), %rax
     14b:	18 00 	sbbb	%al, (%rax)
     14d:	00 02 	addb	%al, (%rdx)
     14f:	24 00 	andb	$0, %al
     151:	0b 0b 	orl	(%rbx), %ecx
     153:	3e 0b 03 	orl	%ds:(%rbx), %eax
     156:	0e  <unknown>
     157:	00 00 	addb	%al, (%rax)
     159:	03 2e 	addl	(%rsi), %ebp
     15b:	01 3f 	addl	%edi, (%rdi)
     15d:	19 03 	sbbl	%eax, (%rbx)
     15f:	08 3a 	orb	%bh, (%rdx)
     161:	21 01 	andl	%eax, (%rcx)
     163:	3b 0b 	cmpl	(%rbx), %ecx
     165:	39 0b 	cmpl	%ecx, (%rbx)
     167:	27  <unknown>
     168:	19 49 13 	sbbl	%ecx, 19(%rcx)
     16b:	11 01 	adcl	%eax, (%rcx)
     16d:	12 07 	adcb	(%rdi), %al
     16f:	40 18 7a 19 	sbbb	%dil, 25(%rdx)
     173:	01 13 	addl	%edx, (%rbx)
     175:	00 00 	addb	%al, (%rax)
     177:	04 16 	addb	$22, %al
     179:	00 03 	addb	%al, (%rbx)
     17b:	0e  <unknown>
     17c:	3a 21 	cmpb	(%rcx), %ah
     17e:	02 3b 	addb	(%rbx), %bh
     180:	0b 39 	orl	(%rcx), %edi
     182:	0b 49 13 	orl	19(%rcx), %ecx
     185:	00 00 	addb	%al, (%rax)
     187:	05 2e 01 3f 19 	addl	$423559470, %eax
     18c:	03 0e 	addl	(%rsi), %ecx
     18e:	3a 21 	cmpb	(%rcx), %ah
     190:	01 3b 	addl	%edi, (%rbx)
     192:	0b 39 	orl	(%rcx), %edi
     194:	0b 27 	orl	(%rdi), %esp
     196:	19 49 13 	sbbl	%ecx, 19(%rcx)
     199:	11 01 	adcl	%eax, (%rcx)
     19b:	12 07 	adcb	(%rdi), %al
     19d:	40 18 7a 19 	sbbb	%dil, 25(%rdx)
     1a1:	01 13 	addl	%edx, (%rbx)
     1a3:	00 00 	addb	%al, (%rax)
     1a5:	06  <unknown>
     1a6:	34 00 	xorb	$0, %al
     1a8:	03 08 	addl	(%rax), %ecx
     1aa:	3a 21 	cmpb	(%rcx), %ah
     1ac:	01 3b 	addl	%edi, (%rbx)
     1ae:	0b 39 	orl	(%rcx), %edi
     1b0:	0b 49 13 	orl	19(%rcx), %ecx
     1b3:	02 18 	addb	(%rax), %bl
     1b5:	00 00 	addb	%al, (%rax)
     1b7:	07  <unknown>
     1b8:	11 01 	adcl	%eax, (%rcx)
     1ba:	25 0e 13 0b 03 	andl	$51057422, %eax
     1bf:	1f  <unknown>
     1c0:	1b 1f 	sbbl	(%rdi), %ebx
     1c2:	11 01 	adcl	%eax, (%rcx)
     1c4:	12 07 	adcb	(%rdi), %al
     1c6:	10 17 	adcb	%dl, (%rdi)
     1c8:	00 00 	addb	%al, (%rax)
     1ca:	08 24 00 	orb	%ah, (%rax,%rax)
     1cd:	0b 0b 	orl	(%rbx), %ecx
     1cf:	3e 0b 03 	orl	%ds:(%rbx), %eax
     1d2:	08 00 	orb	%al, (%rax)
     1d4:	00 09 	addb	%cl, (%rcx)
     1d6:	2e 01 3f 	addl	%edi, %cs:(%rdi)
     1d9:	19 03 	sbbl	%eax, (%rbx)
     1db:	0e  <unknown>
     1dc:	3a 0b 	cmpb	(%rbx), %cl
     1de:	3b 0b 	cmpl	(%rbx), %ecx
     1e0:	39 0b 	cmpl	%ecx, (%rbx)
     1e2:	27  <unknown>
     1e3:	19 49 13 	sbbl	%ecx, 19(%rcx)
     1e6:	11 01 	adcl	%eax, (%rcx)
     1e8:	12 07 	adcb	(%rdi), %al
     1ea:	40 18 7c 19 01 	sbbb	%dil, 1(%rcx,%rbx)
     1ef:	13 00 	adcl	(%rax), %eax
     1f1:	00 0a 	addb	%cl, (%rdx)
     1f3:	2e 01 3f 	addl	%edi, %cs:(%rdi)
     1f6:	19 03 	sbbl	%eax, (%rbx)
     1f8:	08 3a 	orb	%bh, (%rdx)
     1fa:	0b 3b 	orl	(%rbx), %edi
     1fc:	0b 39 	orl	(%rcx), %edi
     1fe:	0b 27 	orl	(%rdi), %esp
     200:	19 49 13 	sbbl	%ecx, 19(%rcx)
     203:	11 01 	adcl	%eax, (%rcx)
     205:	12 07 	adcb	(%rdi), %al
     207:	40 18 7c 19 01 	sbbb	%dil, 1(%rcx,%rbx)
     20c:	13 00 	adcl	(%rax), %eax
     20e:	00 0b 	addb	%cl, (%rbx)
     210:	34 00 	xorb	$0, %al
     212:	03 0e 	addl	(%rsi), %ecx
     214:	3a 0b 	cmpb	(%rbx), %cl
     216:	3b 0b 	cmpl	(%rbx), %ecx
     218:	39 0b 	cmpl	%ecx, (%rbx)
     21a:	49 13 02 	adcq	(%r10), %rax
     21d:	18 00 	sbbb	%al, (%rax)
     21f:	00 0c 0b 	addb	%cl, (%rbx,%rcx)
     222:	01 11 	addl	%edx, (%rcx)
     224:	01 12 	addl	%edx, (%rdx)
     226:	07  <unknown>
     227:	00 00 	addb	%al, (%rax)
     229:	0d 2e 01 3f 19 	orl	$423559470, %eax
     22e:	03 0e 	addl	(%rsi), %ecx
     230:	3a 0b 	cmpb	(%rbx), %cl
     232:	3b 0b 	cmpl	(%rbx), %ecx
     234:	39 0b 	cmpl	%ecx, (%rbx)
     236:	27  <unknown>
     237:	19 49 13 	sbbl	%ecx, 19(%rcx)
     23a:	11 01 	adcl	%eax, (%rcx)
     23c:	12 07 	adcb	(%rdi), %al
     23e:	40 18 7a 19 	sbbb	%dil, 25(%rdx)
     242:	00 00 	addb	%al, (%rax)
     244:	00 01 	addb	%al, (%rcx)
     246:	05 00 03 08 3a 	addl	$973603584, %eax
     24b:	21 01 	andl	%eax, (%rcx)
     24d:	3b 0b 	cmpl	(%rbx), %ecx
     24f:	39 0b 	cmpl	%ecx, (%rbx)
     251:	49 13 02 	adcq	(%r10), %rax
     254:	18 00 	sbbb	%al, (%rax)
     256:	00 02 	addb	%al, (%rdx)
     258:	34 00 	xorb	$0, %al
     25a:	03 08 	addl	(%rax), %ecx
     25c:	3a 21 	cmpb	(%rcx), %ah
     25e:	01 3b 	addl	%edi, (%rbx)
     260:	0b 39 	orl	(%rcx), %edi
     262:	0b 49 13 	orl	19(%rcx), %ecx
     265:	02 18 	addb	(%rax), %bl
     267:	00 00 	addb	%al, (%rax)
     269:	03 05 00 03 0e 3a 	addl	973996800(%rip), %eax
     26f:	21 01 	andl	%eax, (%rcx)
     271:	3b 0b 	cmpl	(%rbx), %ecx
     273:	39 0b 	cmpl	%ecx, (%rbx)
     275:	49 13 02 	adcq	(%r10), %rax
     278:	18 00 	sbbb	%al, (%rax)
     27a:	00 04 24 	addb	%al, (%rsp)
     27d:	00 0b 	addb	%cl, (%rbx)
     27f:	0b 3e 	orl	(%rsi), %edi
     281:	0b 03 	orl	(%rbx), %eax
     283:	0e  <unknown>
     284:	00 00 	addb	%al, (%rax)
     286:	05 2e 01 3f 19 	addl	$423559470, %eax
     28b:	03 0e 	addl	(%rsi), %ecx
     28d:	3a 21 	cmpb	(%rcx), %ah
     28f:	01 3b 	addl	%edi, (%rbx)
     291:	0b 39 	orl	(%rcx), %edi
     293:	0b 27 	orl	(%rdi), %esp
     295:	19 49 13 	sbbl	%ecx, 19(%rcx)
     298:	11 01 	adcl	%eax, (%rcx)
     29a:	12 07 	adcb	(%rdi), %al
     29c:	40 18 7c 19 01 	sbbb	%dil, 1(%rcx,%rbx)
     2a1:	13 00 	adcl	(%rax), %eax
     2a3:	00 06 	addb	%al, (%rsi)
     2a5:	0b 01 	orl	(%rcx), %eax
     2a7:	11 01 	adcl	%eax, (%rcx)
     2a9:	12 07 	adcb	(%rdi), %al
     2ab:	00 00 	addb	%al, (%rax)
     2ad:	07  <unknown>
     2ae:	2e 01 3f 	addl	%edi, %cs:(%rdi)
     2b1:	19 03 	sbbl	%eax, (%rbx)
     2b3:	0e  <unknown>
     2b4:	3a 21 	cmpb	(%rcx), %ah
     2b6:	01 3b 	addl	%edi, (%rbx)
     2b8:	0b 39 	orl	(%rcx), %edi
     2ba:	0b 27 	orl	(%rdi), %esp
     2bc:	19 49 13 	sbbl	%ecx, 19(%rcx)
     2bf:	11 01 	adcl	%eax, (%rcx)
     2c1:	12 07 	adcb	(%rdi), %al
     2c3:	40 18 7a 19 	sbbb	%dil, 25(%rdx)
     2c7:	01 13 	addl	%edx, (%rbx)
     2c9:	00 00 	addb	%al, (%rax)
     2cb:	08 0f 	orb	%cl, (%rdi)
     2cd:	00 0b 	addb	%cl, (%rbx)
     2cf:	21 08 	andl	%ecx, (%rax)
     2d1:	49 13 00 	adcq	(%r8), %rax
     2d4:	00 09 	addb	%cl, (%rcx)
     2d6:	34 00 	xorb	$0, %al
     2d8:	03 0e 	addl	(%rsi), %ecx
     2da:	3a 21 	cmpb	(%rcx), %ah
     2dc:	01 3b 	addl	%edi, (%rbx)
     2de:	0b 39 	orl	(%rcx), %edi
     2e0:	0b 49 13 	orl	19(%rcx), %ecx
     2e3:	02 18 	addb	(%rax), %bl
     2e5:	00 00 	addb	%al, (%rax)
     2e7:	0a 16 	orb	(%rsi), %dl
     2e9:	00 03 	addb	%al, (%rbx)
     2eb:	0e  <unknown>
     2ec:	3a 21 	cmpb	(%rcx), %ah
     2ee:	02 3b 	addb	(%rbx), %bh
     2f0:	0b 39 	orl	(%rcx), %edi
     2f2:	0b 49 13 	orl	19(%rcx), %ecx
     2f5:	00 00 	addb	%al, (%rax)
     2f7:	0b 2e 	orl	(%rsi), %ebp
     2f9:	01 3f 	addl	%edi, (%rdi)
     2fb:	19 03 	sbbl	%eax, (%rbx)
     2fd:	0e  <unknown>
     2fe:	3a 21 	cmpb	(%rcx), %ah
     300:	01 3b 	addl	%edi, (%rbx)
     302:	0b 39 	orl	(%rcx), %edi
     304:	21 06 	andl	%eax, (%rsi)
     306:	27  <unknown>
     307:	19 11 	sbbl	%edx, (%rcx)
     309:	01 12 	addl	%edx, (%rdx)
     30b:	07  <unknown>
     30c:	40 18 7a 19 	sbbb	%dil, 25(%rdx)
     310:	01 13 	addl	%edx, (%rbx)
     312:	00 00 	addb	%al, (%rax)
     314:	0c 26 	orb	$38, %al
     316:	00 49 13 	addb	%cl, 19(%rcx)
     319:	00 00 	addb	%al, (%rax)
     31b:	0d 11 01 25 0e 	orl	$237306129, %eax
     320:	13 0b 	adcl	(%rbx), %ecx
     322:	03 1f 	addl	(%rdi), %ebx
     324:	1b 1f 	sbbl	(%rdi), %ebx
     326:	11 01 	adcl	%eax, (%rcx)
     328:	12 07 	adcb	(%rdi), %al
     32a:	10 17 	adcb	%dl, (%rdi)
     32c:	00 00 	addb	%al, (%rax)
     32e:	0e  <unknown>
     32f:	24 00 	andb	$0, %al
     331:	0b 0b 	orl	(%rbx), %ecx
     333:	3e 0b 03 	orl	%ds:(%rbx), %eax
     336:	08 00 	orb	%al, (%rax)
     338:	00 0f 	addb	%cl, (%rdi)
     33a:	2e 01 3f 	addl	%edi, %cs:(%rdi)
     33d:	19 03 	sbbl	%eax, (%rbx)
     33f:	0e  <unknown>
     340:	3a 0b 	cmpb	(%rbx), %cl
     342:	3b 0b 	cmpl	(%rbx), %ecx
     344:	39 0b 	cmpl	%ecx, (%rbx)
     346:	27  <unknown>
     347:	19 49 13 	sbbl	%ecx, 19(%rcx)
     34a:	11 01 	adcl	%eax, (%rcx)
     34c:	12 07 	adcb	(%rdi), %al
     34e:	40 18 7a 19 	sbbb	%dil, 25(%rdx)
     352:	00 00 	addb	%al, (%rax)
     354:	00 01 	addb	%al, (%rcx)
     356:	24 00 	andb	$0, %al
     358:	0b 0b 	orl	(%rbx), %ecx
     35a:	3e 0b 03 	orl	%ds:(%rbx), %eax
     35d:	0e  <unknown>
     35e:	00 00 	addb	%al, (%rax)
     360:	02 34 00 	addb	(%rax,%rax), %dh
     363:	03 0e 	addl	(%rsi), %ecx
     365:	3a 21 	cmpb	(%rcx), %ah
     367:	01 3b 	addl	%edi, (%rbx)
     369:	0b 39 	orl	(%rcx), %edi
     36b:	0b 49 13 	orl	19(%rcx), %ecx
     36e:	02 18 	addb	(%rax), %bl
     370:	00 00 	addb	%al, (%rax)
     372:	03 16 	addl	(%rsi), %edx
     374:	00 03 	addb	%al, (%rbx)
     376:	0e  <unknown>
     377:	3a 0b 	cmpb	(%rbx), %cl
     379:	3b 0b 	cmpl	(%rbx), %ecx
     37b:	39 0b 	cmpl	%ecx, (%rbx)
     37d:	49 13 00 	adcq	(%r8), %rax
     380:	00 04 0d 00 03 0e 3a 	addb	%al, 973996800(,%rcx)
     387:	21 03 	andl	%eax, (%rbx)
     389:	3b 0b 	cmpl	(%rbx), %ecx
     38b:	39 21 	cmpl	%esp, (%rcx)
     38d:	0e  <unknown>
     38e:	49 13 38 	adcq	(%r8), %rdi
     391:	0b 00 	orl	(%rax), %eax
     393:	00 05 0b 01 11 01 	addb	%al, 17891595(%rip)
     399:	12 07 	adcb	(%rdi), %al
     39b:	00 00 	addb	%al, (%rax)
     39d:	06  <unknown>
     39e:	05 00 03 0e 3a 	addl	$973996800, %eax
     3a3:	21 01 	andl	%eax, (%rcx)
     3a5:	3b 0b 	cmpl	(%rbx), %ecx
     3a7:	39 0b 	cmpl	%ecx, (%rbx)
     3a9:	49 13 02 	adcq	(%r10), %rax
     3ac:	18 00 	sbbb	%al, (%rax)
     3ae:	00 07 	addb	%al, (%rdi)
     3b0:	2e 01 3f 	addl	%edi, %cs:(%rdi)
     3b3:	19 03 	sbbl	%eax, (%rbx)
     3b5:	0e  <unknown>
     3b6:	3a 21 	cmpb	(%rcx), %ah
     3b8:	01 3b 	addl	%edi, (%rbx)
     3ba:	0b 39 	orl	(%rcx), %edi
     3bc:	21 0a 	andl	%ecx, (%rdx)
     3be:	49 13 11 	adcq	(%r9), %rdx
     3c1:	01 12 	addl	%edx, (%rdx)
     3c3:	07  <unknown>
     3c4:	40 18 7a 19 	sbbb	%dil, 25(%rdx)
     3c8:	01 13 	addl	%edx, (%rbx)
     3ca:	00 00 	addb	%al, (%rax)
     3cc:	08 34 00 	orb	%dh, (%rax,%rax)
     3cf:	03 08 	addl	(%rax), %ecx
     3d1:	3a 21 	cmpb	(%rcx), %ah
     3d3:	01 3b 	addl	%edi, (%rbx)
     3d5:	0b 39 	orl	(%rcx), %edi
     3d7:	21 13 	andl	%edx, (%rbx)
     3d9:	49 13 02 	adcq	(%r10), %rax
     3dc:	18 00 	sbbb	%al, (%rax)
     3de:	00 09 	addb	%cl, (%rcx)
     3e0:	11 01 	adcl	%eax, (%rcx)
     3e2:	25 0e 13 0b 03 	andl	$51057422, %eax
     3e7:	1f  <unknown>
     3e8:	1b 1f 	sbbl	(%rdi), %ebx
     3ea:	11 01 	adcl	%eax, (%rcx)
     3ec:	12 07 	adcb	(%rdi), %al
     3ee:	10 17 	adcb	%dl, (%rdi)
     3f0:	00 00 	addb	%al, (%rax)
     3f2:	0a 24 00 	orb	(%rax,%rax), %ah
     3f5:	0b 0b 	orl	(%rbx), %ecx
     3f7:	3e 0b 03 	orl	%ds:(%rbx), %eax
     3fa:	08 00 	orb	%al, (%rax)
     3fc:	00 0b 	addb	%cl, (%rbx)
     3fe:	13 01 	adcl	(%rcx), %eax
     400:	0b 0b 	orl	(%rbx), %ecx
     402:	3a 0b 	cmpb	(%rbx), %cl
     404:	3b 0b 	cmpl	(%rbx), %ecx
     406:	39 0b 	cmpl	%ecx, (%rbx)
     408:	01 13 	addl	%edx, (%rbx)
     40a:	00 00 	addb	%al, (%rax)
     40c:	0c 0f 	orb	$15, %al
     40e:	00 0b 	addb	%cl, (%rbx)
     410:	0b 49 13 	orl	19(%rcx), %ecx
     413:	00 00 	addb	%al, (%rax)
     415:	0d 34 00 03 0e 	orl	$235077684, %eax
     41a:	3a 0b 	cmpb	(%rbx), %cl
     41c:	3b 0b 	cmpl	(%rbx), %ecx
     41e:	39 0b 	cmpl	%ecx, (%rbx)
     420:	49 13 3f 	adcq	(%r15), %rdi
     423:	19 3c 19 	sbbl	%edi, (%rcx,%rbx)
     426:	00 00 	addb	%al, (%rax)
     428:	0e  <unknown>
     429:	34 00 	xorb	$0, %al
     42b:	47 13 3a 	adcl	(%r10), %r15d
     42e:	0b 3b 	orl	(%rbx), %edi
     430:	0b 39 	orl	(%rcx), %edi
     432:	0b 02 	orl	(%rdx), %eax
     434:	18 00 	sbbb	%al, (%rax)
     436:	00 0f 	addb	%cl, (%rdi)
     438:	2e 01 3f 	addl	%edi, %cs:(%rdi)
     43b:	19 03 	sbbl	%eax, (%rbx)
     43d:	0e  <unknown>
     43e:	3a 0b 	cmpb	(%rbx), %cl
     440:	3b 0b 	cmpl	(%rbx), %ecx
     442:	39 0b 	cmpl	%ecx, (%rbx)
     444:	27  <unknown>
     445:	19 49 13 	sbbl	%ecx, 19(%rcx)
     448:	11 01 	adcl	%eax, (%rcx)
     44a:	12 07 	adcb	(%rdi), %al
     44c:	40 18 7a 19 	sbbb	%dil, 25(%rdx)
     450:	01 13 	addl	%edx, (%rbx)
     452:	00 00 	addb	%al, (%rax)
     454:	10 2e 	adcb	%ch, (%rsi)
     456:	01 3f 	addl	%edi, (%rdi)
     458:	19 03 	sbbl	%eax, (%rbx)
     45a:	0e  <unknown>
     45b:	3a 0b 	cmpb	(%rbx), %cl
     45d:	3b 0b 	cmpl	(%rbx), %ecx
     45f:	39 0b 	cmpl	%ecx, (%rbx)
     461:	27  <unknown>
     462:	19 11 	sbbl	%edx, (%rcx)
     464:	01 12 	addl	%edx, (%rdx)
     466:	07  <unknown>
     467:	40 18 7a 19 	sbbb	%dil, 25(%rdx)
     46b:	00 00 	addb	%al, (%rax)
     46d:	00 01 	addb	%al, (%rcx)
     46f:	24 00 	andb	$0, %al
     471:	0b 0b 	orl	(%rbx), %ecx
     473:	3e 0b 03 	orl	%ds:(%rbx), %eax
     476:	0e  <unknown>
     477:	00 00 	addb	%al, (%rax)
     479:	02 05 00 03 0e 3a 	addb	973996800(%rip), %al
     47f:	21 01 	andl	%eax, (%rcx)
     481:	3b 0b 	cmpl	(%rbx), %ecx
     483:	39 0b 	cmpl	%ecx, (%rbx)
     485:	49 13 02 	adcq	(%r10), %rax
     488:	18 00 	sbbb	%al, (%rax)
     48a:	00 03 	addb	%al, (%rbx)
     48c:	34 00 	xorb	$0, %al
     48e:	03 08 	addl	(%rax), %ecx
     490:	3a 21 	cmpb	(%rcx), %ah
     492:	01 3b 	addl	%edi, (%rbx)
     494:	0b 39 	orl	(%rcx), %edi
     496:	0b 49 13 	orl	19(%rcx), %ecx
     499:	02 18 	addb	(%rax), %bl
     49b:	00 00 	addb	%al, (%rax)
     49d:	04 16 	addb	$22, %al
     49f:	00 03 	addb	%al, (%rbx)
     4a1:	0e  <unknown>
     4a2:	3a 0b 	cmpb	(%rbx), %cl
     4a4:	3b 0b 	cmpl	(%rbx), %ecx
     4a6:	39 0b 	cmpl	%ecx, (%rbx)
     4a8:	49 13 00 	adcq	(%r8), %rax
     4ab:	00 05 0d 00 03 0e 	addb	%al, 235077645(%rip)
     4b1:	3a 21 	cmpb	(%rcx), %ah
     4b3:	02 3b 	addb	(%rbx), %bh
     4b5:	0b 39 	orl	(%rcx), %edi
     4b7:	0b 49 13 	orl	19(%rcx), %ecx
     4ba:	38 0b 	cmpb	%cl, (%rbx)
     4bc:	00 00 	addb	%al, (%rax)
     4be:	06  <unknown>
     4bf:	11 01 	adcl	%eax, (%rcx)
     4c1:	25 0e 13 0b 03 	andl	$51057422, %eax
     4c6:	1f  <unknown>
     4c7:	1b 1f 	sbbl	(%rdi), %ebx
     4c9:	11 01 	adcl	%eax, (%rcx)
     4cb:	12 07 	adcb	(%rdi), %al
     4cd:	10 17 	adcb	%dl, (%rdi)
     4cf:	00 00 	addb	%al, (%rax)
     4d1:	07  <unknown>
     4d2:	24 00 	andb	$0, %al
     4d4:	0b 0b 	orl	(%rbx), %ecx
     4d6:	3e 0b 03 	orl	%ds:(%rbx), %eax
     4d9:	08 00 	orb	%al, (%rax)
     4db:	00 08 	addb	%cl, (%rax)
     4dd:	13 01 	adcl	(%rcx), %eax
     4df:	0b 0b 	orl	(%rbx), %ecx
     4e1:	3a 0b 	cmpb	(%rbx), %cl
     4e3:	3b 0b 	cmpl	(%rbx), %ecx
     4e5:	39 0b 	cmpl	%ecx, (%rbx)
     4e7:	01 13 	addl	%edx, (%rbx)
     4e9:	00 00 	addb	%al, (%rax)
     4eb:	09 0f 	orl	%ecx, (%rdi)
     4ed:	00 0b 	addb	%cl, (%rbx)
     4ef:	0b 49 13 	orl	19(%rcx), %ecx
     4f2:	00 00 	addb	%al, (%rax)
     4f4:	0a 2e 	orb	(%rsi), %ch
     4f6:	01 3f 	addl	%edi, (%rdi)
     4f8:	19 03 	sbbl	%eax, (%rbx)
     4fa:	0e  <unknown>
     4fb:	3a 0b 	cmpb	(%rbx), %cl
     4fd:	3b 0b 	cmpl	(%rbx), %ecx
     4ff:	39 0b 	cmpl	%ecx, (%rbx)
     501:	27  <unknown>
     502:	19 49 13 	sbbl	%ecx, 19(%rcx)
     505:	11 01 	adcl	%eax, (%rcx)
     507:	12 07 	adcb	(%rdi), %al
     509:	40 18 7a 19 	sbbb	%dil, 25(%rdx)
     50d:	01 13 	addl	%edx, (%rbx)
     50f:	00 00 	addb	%al, (%rax)
     511:	0b 0b 	orl	(%rbx), %ecx
     513:	01 11 	addl	%edx, (%rcx)
     515:	01 12 	addl	%edx, (%rdx)
     517:	07  <unknown>
     518:	00 00 	addb	%al, (%rax)
     51a:	0c 34 	orb	$52, %al
     51c:	00 03 	addb	%al, (%rbx)
     51e:	0e  <unknown>
     51f:	3a 0b 	cmpb	(%rbx), %cl
     521:	3b 0b 	cmpl	(%rbx), %ecx
     523:	39 0b 	cmpl	%ecx, (%rbx)
     525:	49 13 02 	adcq	(%r10), %rax
     528:	18 00 	sbbb	%al, (%rax)
     52a:	00 0d 2e 01 3f 19 	addb	%cl, 423559470(%rip)
     530:	03 0e 	addl	(%rsi), %ecx
     532:	3a 0b 	cmpb	(%rbx), %cl
     534:	3b 0b 	cmpl	(%rbx), %ecx
     536:	39 0b 	cmpl	%ecx, (%rbx)
     538:	27  <unknown>
     539:	19 11 	sbbl	%edx, (%rcx)
     53b:	01 12 	addl	%edx, (%rdx)
     53d:	07  <unknown>
     53e:	40 18 7a 19 	sbbb	%dil, 25(%rdx)
     542:	01 13 	addl	%edx, (%rbx)
     544:	00 00 	addb	%al, (%rax)
     546:	0e  <unknown>
     547:	2e 01 3f 	addl	%edi, %cs:(%rdi)
     54a:	19 03 	sbbl	%eax, (%rbx)
     54c:	0e  <unknown>
     54d:	3a 0b 	cmpb	(%rbx), %cl
     54f:	3b 0b 	cmpl	(%rbx), %ecx
     551:	39 0b 	cmpl	%ecx, (%rbx)
     553:	27  <unknown>
     554:	19 49 13 	sbbl	%ecx, 19(%rcx)
     557:	11 01 	adcl	%eax, (%rcx)
     559:	12 07 	adcb	(%rdi), %al
     55b:	40 18 7a 19 	sbbb	%dil, 25(%rdx)
     55f:	00 00 	addb	%al, (%rax)
     561:	00 01 	addb	%al, (%rcx)
     563:	24 00 	andb	$0, %al
     565:	0b 0b 	orl	(%rbx), %ecx
     567:	3e 0b 03 	orl	%ds:(%rbx), %eax
     56a:	0e  <unknown>
     56b:	00 00 	addb	%al, (%rax)
     56d:	02 05 00 49 13 00 	addb	1263872(%rip), %al
     573:	00 03 	addb	%al, (%rbx)
     575:	05 00 03 0e 3a 	addl	$973996800, %eax
     57a:	21 01 	andl	%eax, (%rcx)
     57c:	3b 0b 	cmpl	(%rbx), %ecx
     57e:	39 0b 	cmpl	%ecx, (%rbx)
     580:	49 13 02 	adcq	(%r10), %rax
     583:	18 00 	sbbb	%al, (%rax)
     585:	00 04 0b 	addb	%al, (%rbx,%rcx)
     588:	01 11 	addl	%edx, (%rcx)
     58a:	01 12 	addl	%edx, (%rdx)
     58c:	07  <unknown>
     58d:	00 00 	addb	%al, (%rax)
     58f:	05 16 00 03 0e 	addl	$235077654, %eax
     594:	3a 0b 	cmpb	(%rbx), %cl
     596:	3b 0b 	cmpl	(%rbx), %ecx
     598:	39 0b 	cmpl	%ecx, (%rbx)
     59a:	49 13 00 	adcq	(%r8), %rax
     59d:	00 06 	addb	%al, (%rsi)
     59f:	34 00 	xorb	$0, %al
     5a1:	03 0e 	addl	(%rsi), %ecx
     5a3:	3a 21 	cmpb	(%rcx), %ah
     5a5:	01 3b 	addl	%edi, (%rbx)
     5a7:	0b 39 	orl	(%rcx), %edi
     5a9:	0b 49 13 	orl	19(%rcx), %ecx
     5ac:	02 18 	addb	(%rax), %bl
     5ae:	00 00 	addb	%al, (%rax)
     5b0:	07  <unknown>
     5b1:	0d 00 03 0e 3a 	orl	$973996800, %eax
     5b6:	21 03 	andl	%eax, (%rbx)
     5b8:	3b 0b 	cmpl	(%rbx), %ecx
     5ba:	39 0b 	cmpl	%ecx, (%rbx)
     5bc:	49 13 38 	adcq	(%r8), %rdi
     5bf:	0b 00 	orl	(%rax), %eax
     5c1:	00 08 	addb	%cl, (%rax)
     5c3:	0f 00 0b 	strw	(%rbx)
     5c6:	21 08 	andl	%ecx, (%rax)
     5c8:	49 13 00 	adcq	(%r8), %rax
     5cb:	00 09 	addb	%cl, (%rcx)
     5cd:	34 00 	xorb	$0, %al
     5cf:	03 0e 	addl	(%rsi), %ecx
     5d1:	3a 21 	cmpb	(%rcx), %ah
     5d3:	04 3b 	addb	$59, %al
     5d5:	0b 39 	orl	(%rcx), %edi
     5d7:	21 11 	andl	%edx, (%rcx)
     5d9:	49 13 3f 	adcq	(%r15), %rdi
     5dc:	19 3c 19 	sbbl	%edi, (%rcx,%rbx)
     5df:	00 00 	addb	%al, (%rax)
     5e1:	0a 34 00 	orb	(%rax,%rax), %dh
     5e4:	47 13 3a 	adcl	(%r10), %r15d
     5e7:	21 01 	andl	%eax, (%rcx)
     5e9:	3b 0b 	cmpl	(%rbx), %ecx
     5eb:	39 21 	cmpl	%esp, (%rcx)
     5ed:	0a 02 	orb	(%rdx), %al
     5ef:	18 00 	sbbb	%al, (%rax)
     5f1:	00 0b 	addb	%cl, (%rbx)
     5f3:	2e 01 3f 	addl	%edi, %cs:(%rdi)
     5f6:	19 03 	sbbl	%eax, (%rbx)
     5f8:	0e  <unknown>
     5f9:	3a 21 	cmpb	(%rcx), %ah
     5fb:	03 3b 	addl	(%rbx), %edi
     5fd:	0b 39 	orl	(%rcx), %edi
     5ff:	0b 27 	orl	(%rdi), %esp
     601:	19 49 13 	sbbl	%ecx, 19(%rcx)
     604:	3c 19 	cmpb	$25, %al
     606:	01 13 	addl	%edx, (%rbx)
     608:	00 00 	addb	%al, (%rax)
     60a:	0c 2e 	orb	$46, %al
     60c:	01 3f 	addl	%edi, (%rdi)
     60e:	19 03 	sbbl	%eax, (%rbx)
     610:	0e  <unknown>
     611:	3a 0b 	cmpb	(%rbx), %cl
     613:	3b 0b 	cmpl	(%rbx), %ecx
     615:	39 21 	cmpl	%esp, (%rcx)
     617:	06  <unknown>
     618:	27  <unknown>
     619:	19 3c 19 	sbbl	%edi, (%rcx,%rbx)
     61c:	01 13 	addl	%edx, (%rbx)
     61e:	00 00 	addb	%al, (%rax)
     620:	0d 2e 01 3f 19 	orl	$423559470, %eax
     625:	03 0e 	addl	(%rsi), %ecx
     627:	3a 21 	cmpb	(%rcx), %ah
     629:	01 3b 	addl	%edi, (%rbx)
     62b:	0b 39 	orl	(%rcx), %edi
     62d:	21 06 	andl	%eax, (%rsi)
     62f:	27  <unknown>
     630:	19 11 	sbbl	%edx, (%rcx)
     632:	01 12 	addl	%edx, (%rdx)
     634:	07  <unknown>
     635:	40 18 7c 19 01 	sbbb	%dil, 1(%rcx,%rbx)
     63a:	13 00 	adcl	(%rax), %eax
     63c:	00 0e 	addb	%cl, (%rsi)
     63e:	34 00 	xorb	$0, %al
     640:	03 08 	addl	(%rax), %ecx
     642:	3a 21 	cmpb	(%rcx), %ah
     644:	01 3b 	addl	%edi, (%rbx)
     646:	0b 39 	orl	(%rcx), %edi
     648:	21 13 	andl	%edx, (%rbx)
     64a:	49 13 02 	adcq	(%r10), %rax
     64d:	18 00 	sbbb	%al, (%rax)
     64f:	00 0f 	addb	%cl, (%rdi)
     651:	11 01 	adcl	%eax, (%rcx)
     653:	25 0e 13 0b 03 	andl	$51057422, %eax
     658:	1f  <unknown>
     659:	1b 1f 	sbbl	(%rdi), %ebx
     65b:	11 01 	adcl	%eax, (%rcx)
     65d:	12 07 	adcb	(%rdi), %al
     65f:	10 17 	adcb	%dl, (%rdi)
     661:	00 00 	addb	%al, (%rax)
     663:	10 24 00 	adcb	%ah, (%rax,%rax)
     666:	0b 0b 	orl	(%rbx), %ecx
     668:	3e 0b 03 	orl	%ds:(%rbx), %eax
     66b:	08 00 	orb	%al, (%rax)
     66d:	00 11 	addb	%dl, (%rcx)
     66f:	0f 00 0b 	strw	(%rbx)
     672:	0b 00 	orl	(%rax), %eax
     674:	00 12 	addb	%dl, (%rdx)
     676:	13 01 	adcl	(%rcx), %eax
     678:	0b 0b 	orl	(%rbx), %ecx
     67a:	3a 0b 	cmpb	(%rbx), %cl
     67c:	3b 0b 	cmpl	(%rbx), %ecx
     67e:	39 0b 	cmpl	%ecx, (%rbx)
     680:	01 13 	addl	%edx, (%rbx)
     682:	00 00 	addb	%al, (%rax)
     684:	13 2e 	adcl	(%rsi), %ebp
     686:	01 3f 	addl	%edi, (%rdi)
     688:	19 03 	sbbl	%eax, (%rbx)
     68a:	0e  <unknown>
     68b:	3a 0b 	cmpb	(%rbx), %cl
     68d:	3b 0b 	cmpl	(%rbx), %ecx
     68f:	39 0b 	cmpl	%ecx, (%rbx)
     691:	49 13 3c 19 	adcq	(%r9,%rbx), %rdi
     695:	01 13 	addl	%edx, (%rbx)
     697:	00 00 	addb	%al, (%rax)
     699:	14 18 	adcb	$24, %al
     69b:	00 00 	addb	%al, (%rax)
     69d:	00 15 2e 01 3f 19 	addb	%dl, 423559470(%rip)
     6a3:	03 0e 	addl	(%rsi), %ecx
     6a5:	3a 0b 	cmpb	(%rbx), %cl
     6a7:	3b 0b 	cmpl	(%rbx), %ecx
     6a9:	39 0b 	cmpl	%ecx, (%rbx)
     6ab:	49 13 11 	adcq	(%r9), %rdx
     6ae:	01 12 	addl	%edx, (%rdx)
     6b0:	07  <unknown>
     6b1:	40 18 7c 19 01 	sbbb	%dil, 1(%rcx,%rbx)
     6b6:	13 00 	adcl	(%rax), %eax
     6b8:	00 16 	addb	%dl, (%rsi)
     6ba:	2e 00 3f 	addb	%bh, %cs:(%rdi)
     6bd:	19 03 	sbbl	%eax, (%rbx)
     6bf:	0e  <unknown>
     6c0:	3a 0b 	cmpb	(%rbx), %cl
     6c2:	3b 0b 	cmpl	(%rbx), %ecx
     6c4:	39 0b 	cmpl	%ecx, (%rbx)
     6c6:	49 13 11 	adcq	(%r9), %rdx
     6c9:	01 12 	addl	%edx, (%rdx)
     6cb:	07  <unknown>
     6cc:	40 18 7c 19 00 	sbbb	%dil, (%rcx,%rbx)
     6d1:	00 17 	addb	%dl, (%rdi)
     6d3:	2e 01 3f 	addl	%edi, %cs:(%rdi)
     6d6:	19 03 	sbbl	%eax, (%rbx)
     6d8:	0e  <unknown>
     6d9:	3a 0b 	cmpb	(%rbx), %cl
     6db:	3b 0b 	cmpl	(%rbx), %ecx
     6dd:	39 0b 	cmpl	%ecx, (%rbx)
     6df:	27  <unknown>
     6e0:	19 49 13 	sbbl	%ecx, 19(%rcx)
     6e3:	11 01 	adcl	%eax, (%rcx)
     6e5:	12 07 	adcb	(%rdi), %al
     6e7:	40 18 7c 19 01 	sbbb	%dil, 1(%rcx,%rbx)
     6ec:	13 00 	adcl	(%rax), %eax
     6ee:	00 18 	addb	%bl, (%rax)
     6f0:	2e 01 3f 	addl	%edi, %cs:(%rdi)
     6f3:	19 03 	sbbl	%eax, (%rbx)
     6f5:	0e  <unknown>
     6f6:	3a 0b 	cmpb	(%rbx), %cl
     6f8:	3b 0b 	cmpl	(%rbx), %ecx
     6fa:	39 0b 	cmpl	%ecx, (%rbx)
     6fc:	27  <unknown>
     6fd:	19 11 	sbbl	%edx, (%rcx)
     6ff:	01 12 	addl	%edx, (%rdx)
     701:	07  <unknown>
     702:	40 18 7c 19 00 	sbbb	%dil, (%rcx,%rbx)
     707:	00 00 	addb	%al, (%rax)
     709:	01 24 00 	addl	%esp, (%rax,%rax)
     70c:	0b 0b 	orl	(%rbx), %ecx
     70e:	3e 0b 03 	orl	%ds:(%rbx), %eax
     711:	0e  <unknown>
     712:	00 00 	addb	%al, (%rax)
     714:	02 0d 00 03 0e 3a 	addb	973996800(%rip), %cl
     71a:	21 03 	andl	%eax, (%rbx)
     71c:	3b 0b 	cmpl	(%rbx), %ecx
     71e:	39 0b 	cmpl	%ecx, (%rbx)
     720:	49 13 38 	adcq	(%r8), %rdi
     723:	0b 00 	orl	(%rax), %eax
     725:	00 03 	addb	%al, (%rbx)
     727:	16  <unknown>
     728:	00 03 	addb	%al, (%rbx)
     72a:	0e  <unknown>
     72b:	3a 0b 	cmpb	(%rbx), %cl
     72d:	3b 0b 	cmpl	(%rbx), %ecx
     72f:	39 0b 	cmpl	%ecx, (%rbx)
     731:	49 13 00 	adcq	(%r8), %rax
     734:	00 04 05 00 03 0e 3a 	addb	%al, 973996800(,%rax)
     73b:	21 01 	andl	%eax, (%rcx)
     73d:	3b 21 	cmpl	(%rcx), %esp
     73f:	17  <unknown>
     740:	39 0b 	cmpl	%ecx, (%rbx)
     742:	49 13 02 	adcq	(%r10), %rax
     745:	18 00 	sbbb	%al, (%rax)
     747:	00 05 13 01 0b 0b 	addb	%al, 185270547(%rip)
     74d:	3a 21 	cmpb	(%rcx), %ah
     74f:	03 3b 	addl	(%rbx), %edi
     751:	0b 39 	orl	(%rcx), %edi
     753:	21 09 	andl	%ecx, (%rcx)
     755:	01 13 	addl	%edx, (%rbx)
     757:	00 00 	addb	%al, (%rax)
     759:	06  <unknown>
     75a:	0f 00 0b 	strw	(%rbx)
     75d:	21 08 	andl	%ecx, (%rax)
     75f:	49 13 00 	adcq	(%r8), %rax
     762:	00 07 	addb	%al, (%rdi)
     764:	11 01 	adcl	%eax, (%rcx)
     766:	25 0e 13 0b 03 	andl	$51057422, %eax
     76b:	1f  <unknown>
     76c:	1b 1f 	sbbl	(%rdi), %ebx
     76e:	11 01 	adcl	%eax, (%rcx)
     770:	12 07 	adcb	(%rdi), %al
     772:	10 17 	adcb	%dl, (%rdi)
     774:	00 00 	addb	%al, (%rax)
     776:	08 24 00 	orb	%ah, (%rax,%rax)
     779:	0b 0b 	orl	(%rbx), %ecx
     77b:	3e 0b 03 	orl	%ds:(%rbx), %eax
     77e:	08 00 	orb	%al, (%rax)
     780:	00 09 	addb	%cl, (%rcx)
     782:	01 01 	addl	%eax, (%rcx)
     784:	49 13 01 	adcq	(%r9), %rax
     787:	13 00 	adcl	(%rax), %eax
     789:	00 0a 	addb	%cl, (%rdx)
     78b:	21 00 	andl	%eax, (%rax)
     78d:	49 13 2f 	adcq	(%r15), %rbp
     790:	0b 00 	orl	(%rax), %eax
     792:	00 0b 	addb	%cl, (%rbx)
     794:	34 00 	xorb	$0, %al
     796:	03 0e 	addl	(%rsi), %ecx
     798:	3a 0b 	cmpb	(%rbx), %cl
     79a:	3b 0b 	cmpl	(%rbx), %ecx
     79c:	39 0b 	cmpl	%ecx, (%rbx)
     79e:	49 13 3f 	adcq	(%r15), %rdi
     7a1:	19 02 	sbbl	%eax, (%rdx)
     7a3:	18 00 	sbbb	%al, (%rax)
     7a5:	00 0c 2e 	addb	%cl, (%rsi,%rbp)
     7a8:	01 3f 	addl	%edi, (%rdi)
     7aa:	19 03 	sbbl	%eax, (%rbx)
     7ac:	0e  <unknown>
     7ad:	3a 0b 	cmpb	(%rbx), %cl
     7af:	3b 0b 	cmpl	(%rbx), %ecx
     7b1:	39 0b 	cmpl	%ecx, (%rbx)
     7b3:	27  <unknown>
     7b4:	19 3c 19 	sbbl	%edi, (%rcx,%rbx)
     7b7:	01 13 	addl	%edx, (%rbx)
     7b9:	00 00 	addb	%al, (%rax)
     7bb:	0d 05 00 49 13 	orl	$323551237, %eax
     7c0:	00 00 	addb	%al, (%rax)
     7c2:	0e  <unknown>
     7c3:	2e 01 3f 	addl	%edi, %cs:(%rdi)
     7c6:	19 03 	sbbl	%eax, (%rbx)
     7c8:	0e  <unknown>
     7c9:	3a 0b 	cmpb	(%rbx), %cl
     7cb:	3b 0b 	cmpl	(%rbx), %ecx
     7cd:	39 0b 	cmpl	%ecx, (%rbx)
     7cf:	27  <unknown>
     7d0:	19 11 	sbbl	%edx, (%rcx)
     7d2:	01 12 	addl	%edx, (%rdx)
     7d4:	07  <unknown>
     7d5:	40 18 7a 19 	sbbb	%dil, 25(%rdx)
     7d9:	01 13 	addl	%edx, (%rbx)
     7db:	00 00 	addb	%al, (%rax)
     7dd:	0f 2e 01 	ucomiss	(%rcx), %xmm0
     7e0:	3f  <unknown>
     7e1:	19 03 	sbbl	%eax, (%rbx)
     7e3:	0e  <unknown>
     7e4:	3a 0b 	cmpb	(%rbx), %cl
     7e6:	3b 0b 	cmpl	(%rbx), %ecx
     7e8:	39 0b 	cmpl	%ecx, (%rbx)
     7ea:	11 01 	adcl	%eax, (%rcx)
     7ec:	12 07 	adcb	(%rdi), %al
     7ee:	40 18 7c 19 00 	sbbb	%dil, (%rcx,%rbx)
     7f3:	00 10 	addb	%dl, (%rax)
     7f5:	34 00 	xorb	$0, %al
     7f7:	03 0e 	addl	(%rsi), %ecx
     7f9:	3a 0b 	cmpb	(%rbx), %cl
     7fb:	3b 0b 	cmpl	(%rbx), %ecx
     7fd:	39 0b 	cmpl	%ecx, (%rbx)
     7ff:	49 13 02 	adcq	(%r10), %rax
     802:	18 00 	sbbb	%al, (%rax)
     804:	00 11 	addb	%dl, (%rcx)
     806:	2e 01 3f 	addl	%edi, %cs:(%rdi)
     809:	19 03 	sbbl	%eax, (%rbx)
     80b:	0e  <unknown>
     80c:	3a 0b 	cmpb	(%rbx), %cl
     80e:	3b 0b 	cmpl	(%rbx), %ecx
     810:	39 0b 	cmpl	%ecx, (%rbx)
     812:	49 13 3c 19 	adcq	(%r9,%rbx), %rdi
     816:	00 00 	addb	%al, (%rax)
     818:	12 18 	adcb	(%rax), %bl
     81a:	00 00 	addb	%al, (%rax)
     81c:	00 00 	addb	%al, (%rax)
     81e:	01 0d 00 03 0e 3a 	addl	%ecx, 973996800(%rip)
     824:	21 03 	andl	%eax, (%rbx)
     826:	3b 0b 	cmpl	(%rbx), %ecx
     828:	39 21 	cmpl	%esp, (%rcx)
     82a:	0e  <unknown>
     82b:	49 13 0d 0b 6b 0b 00 	adcq	748299(%rip), %rcx
     832:	00 02 	addb	%al, (%rdx)
     834:	0d 00 03 0e 3a 	orl	$973996800, %eax
     839:	0b 3b 	orl	(%rbx), %edi
     83b:	0b 39 	orl	(%rcx), %edi
     83d:	0b 49 13 	orl	19(%rcx), %ecx
     840:	38 0b 	cmpb	%cl, (%rbx)
     842:	00 00 	addb	%al, (%rax)
     844:	03 34 00 	addl	(%rax,%rax), %esi
     847:	03 0e 	addl	(%rsi), %ecx
     849:	3a 21 	cmpb	(%rcx), %ah
     84b:	01 3b 	addl	%edi, (%rbx)
     84d:	0b 39 	orl	(%rcx), %edi
     84f:	0b 49 13 	orl	19(%rcx), %ecx
     852:	02 18 	addb	(%rax), %bl
     854:	00 00 	addb	%al, (%rax)
     856:	04 16 	addb	$22, %al
     858:	00 03 	addb	%al, (%rbx)
     85a:	0e  <unknown>
     85b:	3a 0b 	cmpb	(%rbx), %cl
     85d:	3b 0b 	cmpl	(%rbx), %ecx
     85f:	39 0b 	cmpl	%ecx, (%rbx)
     861:	49 13 00 	adcq	(%r8), %rax
     864:	00 05 0d 00 03 08 	addb	%al, 134414349(%rip)
     86a:	3a 21 	cmpb	(%rcx), %ah
     86c:	03 3b 	addl	(%rbx), %edi
     86e:	0b 39 	orl	(%rcx), %edi
     870:	21 0e 	andl	%ecx, (%rsi)
     872:	49 13 0d 21 01 6b 0b 	adcq	191562017(%rip), %rcx
     879:	00 00 	addb	%al, (%rax)
     87b:	06  <unknown>
     87c:	24 00 	andb	$0, %al
     87e:	0b 0b 	orl	(%rbx), %ecx
     880:	3e 0b 03 	orl	%ds:(%rbx), %eax
     883:	0e  <unknown>
     884:	00 00 	addb	%al, (%rax)
     886:	07  <unknown>
     887:	05 00 03 0e 3a 	addl	$973996800, %eax
     88c:	21 01 	andl	%eax, (%rcx)
     88e:	3b 0b 	cmpl	(%rbx), %ecx
     890:	39 0b 	cmpl	%ecx, (%rbx)
     892:	49 13 02 	adcq	(%r10), %rax
     895:	18 00 	sbbb	%al, (%rax)
     897:	00 08 	addb	%cl, (%rax)
     899:	13 01 	adcl	(%rcx), %eax
     89b:	0b 0b 	orl	(%rbx), %ecx
     89d:	3a 0b 	cmpb	(%rbx), %cl
     89f:	3b 0b 	cmpl	(%rbx), %ecx
     8a1:	39 21 	cmpl	%esp, (%rcx)
     8a3:	09 01 	orl	%eax, (%rcx)
     8a5:	13 00 	adcl	(%rax), %eax
     8a7:	00 09 	addb	%cl, (%rcx)
     8a9:	01 01 	addl	%eax, (%rcx)
     8ab:	49 13 01 	adcq	(%r9), %rax
     8ae:	13 00 	adcl	(%rax), %eax
     8b0:	00 0a 	addb	%cl, (%rdx)
     8b2:	0f 00 0b 	strw	(%rbx)
     8b5:	21 08 	andl	%ecx, (%rax)
     8b7:	49 13 00 	adcq	(%r8), %rax
     8ba:	00 0b 	addb	%cl, (%rbx)
     8bc:	13 01 	adcl	(%rcx), %eax
     8be:	0b 21 	orl	(%rcx), %esp
     8c0:	80 20 3a 	andb	$58, (%rax)
     8c3:	21 03 	andl	%eax, (%rbx)
     8c5:	3b 0b 	cmpl	(%rbx), %ecx
     8c7:	39 21 	cmpl	%esp, (%rcx)
     8c9:	09 01 	orl	%eax, (%rcx)
     8cb:	13 00 	adcl	(%rax), %eax
     8cd:	00 0c 21 	addb	%cl, (%rcx,%riz)
     8d0:	00 49 13 	addb	%cl, 19(%rcx)
     8d3:	2f  <unknown>
     8d4:	21 ff 	andl	%edi, %edi
     8d6:	03 00 	addl	(%rax), %eax
     8d8:	00 0d 18 00 00 00 	addb	%cl, 24(%rip)
     8de:	0e  <unknown>
     8df:	05 00 49 13 00 	addl	$1263872, %eax
     8e4:	00 0f 	addb	%cl, (%rdi)
     8e6:	2e 01 3f 	addl	%edi, %cs:(%rdi)
     8e9:	19 03 	sbbl	%eax, (%rbx)
     8eb:	0e  <unknown>
     8ec:	3a 21 	cmpb	(%rcx), %ah
     8ee:	01 3b 	addl	%edi, (%rbx)
     8f0:	0b 39 	orl	(%rcx), %edi
     8f2:	21 06 	andl	%eax, (%rsi)
     8f4:	27  <unknown>
     8f5:	19 11 	sbbl	%edx, (%rcx)
     8f7:	01 12 	addl	%edx, (%rdx)
     8f9:	07  <unknown>
     8fa:	40 18 7a 19 	sbbb	%dil, 25(%rdx)
     8fe:	01 13 	addl	%edx, (%rbx)
     900:	00 00 	addb	%al, (%rax)
     902:	10 34 00 	adcb	%dh, (%rax,%rax)
     905:	03 08 	addl	(%rax), %ecx
     907:	3a 21 	cmpb	(%rcx), %ah
     909:	01 3b 	addl	%edi, (%rbx)
     90b:	0b 39 	orl	(%rcx), %edi
     90d:	0b 49 13 	orl	19(%rcx), %ecx
     910:	02 18 	addb	(%rax), %bl
     912:	00 00 	addb	%al, (%rax)
     914:	11 34 00 	adcl	%esi, (%rax,%rax)
     917:	03 0e 	addl	(%rsi), %ecx
     919:	3a 0b 	cmpb	(%rbx), %cl
     91b:	3b 0b 	cmpl	(%rbx), %ecx
     91d:	39 0b 	cmpl	%ecx, (%rbx)
     91f:	49 13 3f 	adcq	(%r15), %rdi
     922:	19 3c 19 	sbbl	%edi, (%rcx,%rbx)
     925:	00 00 	addb	%al, (%rax)
     927:	12 2e 	adcb	(%rsi), %ch
     929:	01 3f 	addl	%edi, (%rdi)
     92b:	19 03 	sbbl	%eax, (%rbx)
     92d:	0e  <unknown>
     92e:	3a 0b 	cmpb	(%rbx), %cl
     930:	3b 0b 	cmpl	(%rbx), %ecx
     932:	39 0b 	cmpl	%ecx, (%rbx)
     934:	49 13 3c 19 	adcq	(%r9,%rbx), %rdi
     938:	01 13 	addl	%edx, (%rbx)
     93a:	00 00 	addb	%al, (%rax)
     93c:	13 2e 	adcl	(%rsi), %ebp
     93e:	01 3f 	addl	%edi, (%rdi)
     940:	19 03 	sbbl	%eax, (%rbx)
     942:	0e  <unknown>
     943:	3a 21 	cmpb	(%rcx), %ah
     945:	01 3b 	addl	%edi, (%rbx)
     947:	0b 39 	orl	(%rcx), %edi
     949:	21 05 49 13 3c 19 	andl	%eax, 423367497(%rip)
     94f:	00 00 	addb	%al, (%rax)
     951:	14 11 	adcb	$17, %al
     953:	01 25 0e 13 0b 03 	addl	%esp, 51057422(%rip)
     959:	1f  <unknown>
     95a:	1b 1f 	sbbl	(%rdi), %ebx
     95c:	11 01 	adcl	%eax, (%rcx)
     95e:	12 07 	adcb	(%rdi), %al
     960:	10 17 	adcb	%dl, (%rdi)
     962:	00 00 	addb	%al, (%rax)
     964:	15 24 00 0b 0b 	adcl	$185270308, %eax
     969:	3e 0b 03 	orl	%ds:(%rbx), %eax
     96c:	08 00 	orb	%al, (%rax)
     96e:	00 16 	addb	%dl, (%rsi)
     970:	0f 00 0b 	strw	(%rbx)
     973:	0b 00 	orl	(%rax), %eax
     975:	00 17 	addb	%dl, (%rdi)
     977:	0d 00 03 08 3a 	orl	$973603584, %eax
     97c:	0b 3b 	orl	(%rbx), %edi
     97e:	0b 39 	orl	(%rcx), %edi
     980:	0b 49 13 	orl	19(%rcx), %ecx
     983:	38 0b 	cmpb	%cl, (%rbx)
     985:	00 00 	addb	%al, (%rax)
     987:	18 21 	sbbb	%ah, (%rcx)
     989:	00 49 13 	addb	%cl, 19(%rcx)
     98c:	2f  <unknown>
     98d:	0b 00 	orl	(%rax), %eax
     98f:	00 19 	addb	%bl, (%rcx)
     991:	34 00 	xorb	$0, %al
     993:	47 13 3a 	adcl	(%r10), %r15d
     996:	0b 3b 	orl	(%rbx), %edi
     998:	0b 39 	orl	(%rcx), %edi
     99a:	0b 02 	orl	(%rdx), %eax
     99c:	18 00 	sbbb	%al, (%rax)
     99e:	00 1a 	addb	%bl, (%rdx)
     9a0:	2e 01 3f 	addl	%edi, %cs:(%rdi)
     9a3:	19 03 	sbbl	%eax, (%rbx)
     9a5:	0e  <unknown>
     9a6:	3a 0b 	cmpb	(%rbx), %cl
     9a8:	3b 0b 	cmpl	(%rbx), %ecx
     9aa:	39 0b 	cmpl	%ecx, (%rbx)
     9ac:	27  <unknown>
     9ad:	19 3c 19 	sbbl	%edi, (%rcx,%rbx)
     9b0:	01 13 	addl	%edx, (%rbx)
     9b2:	00 00 	addb	%al, (%rax)
     9b4:	1b 2e 	sbbl	(%rsi), %ebp
     9b6:	00 3f 	addb	%bh, (%rdi)
     9b8:	19 03 	sbbl	%eax, (%rbx)
     9ba:	0e  <unknown>
     9bb:	3a 0b 	cmpb	(%rbx), %cl
     9bd:	3b 0b 	cmpl	(%rbx), %ecx
     9bf:	39 0b 	cmpl	%ecx, (%rbx)
     9c1:	49 13 11 	adcq	(%r9), %rdx
     9c4:	01 12 	addl	%edx, (%rdx)
     9c6:	07  <unknown>
     9c7:	40 18 7a 19 	sbbb	%dil, 25(%rdx)
     9cb:	00 00 	addb	%al, (%rax)
     9cd:	1c 2e 	sbbb	$46, %al
     9cf:	01 3f 	addl	%edi, (%rdi)
     9d1:	19 03 	sbbl	%eax, (%rbx)
     9d3:	0e  <unknown>
     9d4:	3a 0b 	cmpb	(%rbx), %cl
     9d6:	3b 0b 	cmpl	(%rbx), %ecx
     9d8:	39 0b 	cmpl	%ecx, (%rbx)
     9da:	27  <unknown>
     9db:	19 49 13 	sbbl	%ecx, 19(%rcx)
     9de:	11 01 	adcl	%eax, (%rcx)
     9e0:	12 07 	adcb	(%rdi), %al
     9e2:	40 18 7a 19 	sbbb	%dil, 25(%rdx)
     9e6:	01 13 	addl	%edx, (%rbx)
     9e8:	00 00 	addb	%al, (%rax)
     9ea:	1d 2e 01 3f 19 	sbbl	$423559470, %eax
     9ef:	03 0e 	addl	(%rsi), %ecx
     9f1:	3a 0b 	cmpb	(%rbx), %cl
     9f3:	3b 0b 	cmpl	(%rbx), %ecx
     9f5:	39 0b 	cmpl	%ecx, (%rbx)
     9f7:	27  <unknown>
     9f8:	19 11 	sbbl	%edx, (%rcx)
     9fa:	01 12 	addl	%edx, (%rdx)
     9fc:	07  <unknown>
     9fd:	40 18 7c 19 01 	sbbb	%dil, 1(%rcx,%rbx)
     a02:	13 00 	adcl	(%rax), %eax
     a04:	00 1e 	addb	%bl, (%rsi)
     a06:	2e 01 3f 	addl	%edi, %cs:(%rdi)
     a09:	19 03 	sbbl	%eax, (%rbx)
     a0b:	0e  <unknown>
     a0c:	3a 0b 	cmpb	(%rbx), %cl
     a0e:	3b 0b 	cmpl	(%rbx), %ecx
     a10:	39 0b 	cmpl	%ecx, (%rbx)
     a12:	11 01 	adcl	%eax, (%rcx)
     a14:	12 07 	adcb	(%rdi), %al
     a16:	40 18 7c 19 00 	sbbb	%dil, (%rcx,%rbx)
     a1b:	00 00 	addb	%al, (%rax)
     a1d:	01 0d 00 03 0e 3a 	addl	%ecx, 973996800(%rip)
     a23:	21 04 3b 	andl	%eax, (%rbx,%rdi)
     a26:	0b 39 	orl	(%rcx), %edi
     a28:	21 0e 	andl	%ecx, (%rsi)
     a2a:	49 13 0d 0b 6b 0b 00 	adcq	748299(%rip), %rcx
     a31:	00 02 	addb	%al, (%rdx)
     a33:	34 00 	xorb	$0, %al
     a35:	03 0e 	addl	(%rsi), %ecx
     a37:	3a 21 	cmpb	(%rcx), %ah
     a39:	01 3b 	addl	%edi, (%rbx)
     a3b:	0b 39 	orl	(%rcx), %edi
     a3d:	0b 49 13 	orl	19(%rcx), %ecx
     a40:	02 18 	addb	(%rax), %bl
     a42:	00 00 	addb	%al, (%rax)
     a44:	03 24 00 	addl	(%rax,%rax), %esp
     a47:	0b 0b 	orl	(%rbx), %ecx
     a49:	3e 0b 03 	orl	%ds:(%rbx), %eax
     a4c:	0e  <unknown>
     a4d:	00 00 	addb	%al, (%rax)
     a4f:	04 16 	addb	$22, %al
     a51:	00 03 	addb	%al, (%rbx)
     a53:	0e  <unknown>
     a54:	3a 0b 	cmpb	(%rbx), %cl
     a56:	3b 0b 	cmpl	(%rbx), %ecx
     a58:	39 0b 	cmpl	%ecx, (%rbx)
     a5a:	49 13 00 	adcq	(%r8), %rax
     a5d:	00 05 0d 00 03 0e 	addb	%al, 235077645(%rip)
     a63:	3a 0b 	cmpb	(%rbx), %cl
     a65:	3b 0b 	cmpl	(%rbx), %ecx
     a67:	39 0b 	cmpl	%ecx, (%rbx)
     a69:	49 13 38 	adcq	(%r8), %rdi
     a6c:	0b 00 	orl	(%rax), %eax
     a6e:	00 06 	addb	%al, (%rsi)
     a70:	05 00 49 13 00 	addl	$1263872, %eax
     a75:	00 07 	addb	%al, (%rdi)
     a77:	05 00 03 0e 3a 	addl	$973996800, %eax
     a7c:	21 01 	andl	%eax, (%rcx)
     a7e:	3b 0b 	cmpl	(%rbx), %ecx
     a80:	39 0b 	cmpl	%ecx, (%rbx)
     a82:	49 13 02 	adcq	(%r10), %rax
     a85:	18 00 	sbbb	%al, (%rax)
     a87:	00 08 	addb	%cl, (%rax)
     a89:	0b 01 	orl	(%rcx), %eax
     a8b:	11 01 	adcl	%eax, (%rcx)
     a8d:	12 07 	adcb	(%rdi), %al
     a8f:	00 00 	addb	%al, (%rax)
     a91:	09 0f 	orl	%ecx, (%rdi)
     a93:	00 0b 	addb	%cl, (%rbx)
     a95:	21 08 	andl	%ecx, (%rax)
     a97:	49 13 00 	adcq	(%r8), %rax
     a9a:	00 0a 	addb	%cl, (%rdx)
     a9c:	34 00 	xorb	$0, %al
     a9e:	03 08 	addl	(%rax), %ecx
     aa0:	3a 21 	cmpb	(%rcx), %ah
     aa2:	01 3b 	addl	%edi, (%rbx)
     aa4:	0b 39 	orl	(%rcx), %edi
     aa6:	0b 49 13 	orl	19(%rcx), %ecx
     aa9:	02 18 	addb	(%rax), %bl
     aab:	00 00 	addb	%al, (%rax)
     aad:	0b 0d 00 03 08 3a 	orl	973603584(%rip), %ecx
     ab3:	21 04 3b 	andl	%eax, (%rbx,%rdi)
     ab6:	0b 39 	orl	(%rcx), %edi
     ab8:	21 0e 	andl	%ecx, (%rsi)
     aba:	49 13 0d 21 01 6b 0b 	adcq	191562017(%rip), %rcx
     ac1:	00 00 	addb	%al, (%rax)
     ac3:	0c 13 	orb	$19, %al
     ac5:	01 0b 	addl	%ecx, (%rbx)
     ac7:	0b 3a 	orl	(%rdx), %edi
     ac9:	0b 3b 	orl	(%rbx), %edi
     acb:	0b 39 	orl	(%rcx), %edi
     acd:	21 09 	andl	%ecx, (%rcx)
     acf:	01 13 	addl	%edx, (%rbx)
     ad1:	00 00 	addb	%al, (%rax)
     ad3:	0d 34 00 03 0e 	orl	$235077684, %eax
     ad8:	3a 0b 	cmpb	(%rbx), %cl
     ada:	3b 0b 	cmpl	(%rbx), %ecx
     adc:	39 21 	cmpl	%esp, (%rcx)
     ade:	10 49 13 	adcb	%cl, 19(%rcx)
     ae1:	3f  <unknown>
     ae2:	19 3c 19 	sbbl	%edi, (%rcx,%rbx)
     ae5:	00 00 	addb	%al, (%rax)
     ae7:	0e  <unknown>
     ae8:	2e 01 3f 	addl	%edi, %cs:(%rdi)
     aeb:	19 03 	sbbl	%eax, (%rbx)
     aed:	0e  <unknown>
     aee:	3a 0b 	cmpb	(%rbx), %cl
     af0:	3b 0b 	cmpl	(%rbx), %ecx
     af2:	39 21 	cmpl	%esp, (%rcx)
     af4:	06  <unknown>
     af5:	27  <unknown>
     af6:	19 3c 19 	sbbl	%edi, (%rcx,%rbx)
     af9:	01 13 	addl	%edx, (%rbx)
     afb:	00 00 	addb	%al, (%rax)
     afd:	0f 2e 01 	ucomiss	(%rcx), %xmm0
     b00:	3f  <unknown>
     b01:	19 03 	sbbl	%eax, (%rbx)
     b03:	0e  <unknown>
     b04:	3a 21 	cmpb	(%rcx), %ah
     b06:	01 3b 	addl	%edi, (%rbx)
     b08:	0b 39 	orl	(%rcx), %edi
     b0a:	21 06 	andl	%eax, (%rsi)
     b0c:	27  <unknown>
     b0d:	19 11 	sbbl	%edx, (%rcx)
     b0f:	01 12 	addl	%edx, (%rdx)
     b11:	07  <unknown>
     b12:	40 18 7c 19 01 	sbbb	%dil, 1(%rcx,%rbx)
     b17:	13 00 	adcl	(%rax), %eax
     b19:	00 10 	addb	%dl, (%rax)
     b1b:	0b 01 	orl	(%rcx), %eax
     b1d:	11 01 	adcl	%eax, (%rcx)
     b1f:	12 07 	adcb	(%rdi), %al
     b21:	01 13 	addl	%edx, (%rbx)
     b23:	00 00 	addb	%al, (%rax)
     b25:	11 11 	adcl	%edx, (%rcx)
     b27:	01 25 0e 13 0b 03 	addl	%esp, 51057422(%rip)
     b2d:	1f  <unknown>
     b2e:	1b 1f 	sbbl	(%rdi), %ebx
     b30:	11 01 	adcl	%eax, (%rcx)
     b32:	12 07 	adcb	(%rdi), %al
     b34:	10 17 	adcb	%dl, (%rdi)
     b36:	00 00 	addb	%al, (%rax)
     b38:	12 24 00 	adcb	(%rax,%rax), %ah
     b3b:	0b 0b 	orl	(%rbx), %ecx
     b3d:	3e 0b 03 	orl	%ds:(%rbx), %eax
     b40:	08 00 	orb	%al, (%rax)
     b42:	00 13 	addb	%dl, (%rbx)
     b44:	0f 00 0b 	strw	(%rbx)
     b47:	0b 00 	orl	(%rax), %eax
     b49:	00 14 13 	addb	%dl, (%rbx,%rdx)
     b4c:	01 03 	addl	%eax, (%rbx)
     b4e:	0e  <unknown>
     b4f:	0b 0b 	orl	(%rbx), %ecx
     b51:	3a 0b 	cmpb	(%rbx), %cl
     b53:	3b 0b 	cmpl	(%rbx), %ecx
     b55:	39 0b 	cmpl	%ecx, (%rbx)
     b57:	01 13 	addl	%edx, (%rbx)
     b59:	00 00 	addb	%al, (%rax)
     b5b:	15 13 01 0b 05 	adcl	$84607251, %eax
     b60:	3a 0b 	cmpb	(%rbx), %cl
     b62:	3b 0b 	cmpl	(%rbx), %ecx
     b64:	39 0b 	cmpl	%ecx, (%rbx)
     b66:	01 13 	addl	%edx, (%rbx)
     b68:	00 00 	addb	%al, (%rax)
     b6a:	16  <unknown>
     b6b:	01 01 	addl	%eax, (%rcx)
     b6d:	49 13 01 	adcq	(%r9), %rax
     b70:	13 00 	adcl	(%rax), %eax
     b72:	00 17 	addb	%dl, (%rdi)
     b74:	21 00 	andl	%eax, (%rax)
     b76:	49 13 2f 	adcq	(%r15), %rbp
     b79:	05 00 00 18 34 	addl	$873988096, %eax
     b7e:	00 47 13 	addb	%al, 19(%rdi)
     b81:	3a 0b 	cmpb	(%rbx), %cl
     b83:	3b 0b 	cmpl	(%rbx), %ecx
     b85:	39 0b 	cmpl	%ecx, (%rbx)
     b87:	02 18 	addb	(%rax), %bl
     b89:	00 00 	addb	%al, (%rax)
     b8b:	19 2e 	sbbl	%ebp, (%rsi)
     b8d:	01 3f 	addl	%edi, (%rdi)
     b8f:	19 03 	sbbl	%eax, (%rbx)
     b91:	0e  <unknown>
     b92:	3a 0b 	cmpb	(%rbx), %cl
     b94:	3b 0b 	cmpl	(%rbx), %ecx
     b96:	39 0b 	cmpl	%ecx, (%rbx)
     b98:	49 13 3c 19 	adcq	(%r9,%rbx), %rdi
     b9c:	01 13 	addl	%edx, (%rbx)
     b9e:	00 00 	addb	%al, (%rax)
     ba0:	1a 18 	sbbb	(%rax), %bl
     ba2:	00 00 	addb	%al, (%rax)
     ba4:	00 1b 	addb	%bl, (%rbx)
     ba6:	2e 01 3f 	addl	%edi, %cs:(%rdi)
     ba9:	19 03 	sbbl	%eax, (%rbx)
     bab:	0e  <unknown>
     bac:	3a 0b 	cmpb	(%rbx), %cl
     bae:	3b 0b 	cmpl	(%rbx), %ecx
     bb0:	39 0b 	cmpl	%ecx, (%rbx)
     bb2:	27  <unknown>
     bb3:	19 49 13 	sbbl	%ecx, 19(%rcx)
     bb6:	11 01 	adcl	%eax, (%rcx)
     bb8:	12 07 	adcb	(%rdi), %al
     bba:	40 18 7c 19 01 	sbbb	%dil, 1(%rcx,%rbx)
     bbf:	13 00 	adcl	(%rax), %eax
     bc1:	00 1c 2e 	addb	%bl, (%rsi,%rbp)
     bc4:	01 3f 	addl	%edi, (%rdi)
     bc6:	19 03 	sbbl	%eax, (%rbx)
     bc8:	0e  <unknown>
     bc9:	3a 0b 	cmpb	(%rbx), %cl
     bcb:	3b 0b 	cmpl	(%rbx), %ecx
     bcd:	39 0b 	cmpl	%ecx, (%rbx)
     bcf:	27  <unknown>
     bd0:	19 11 	sbbl	%edx, (%rcx)
     bd2:	01 12 	addl	%edx, (%rdx)
     bd4:	07  <unknown>
     bd5:	40 18 7c 19 00 	sbbb	%dil, (%rcx,%rbx)
     bda:	00 00 	addb	%al, (%rax)
     bdc:	01 05 00 03 0e 3a 	addl	%eax, 973996800(%rip)
     be2:	21 01 	andl	%eax, (%rcx)
     be4:	3b 0b 	cmpl	(%rbx), %ecx
     be6:	39 0b 	cmpl	%ecx, (%rbx)
     be8:	49 13 02 	adcq	(%r10), %rax
     beb:	18 00 	sbbb	%al, (%rax)
     bed:	00 02 	addb	%al, (%rdx)
     bef:	2e 01 3f 	addl	%edi, %cs:(%rdi)
     bf2:	19 03 	sbbl	%eax, (%rbx)
     bf4:	0e  <unknown>
     bf5:	3a 21 	cmpb	(%rcx), %ah
     bf7:	01 3b 	addl	%edi, (%rbx)
     bf9:	0b 39 	orl	(%rcx), %edi
     bfb:	21 06 	andl	%eax, (%rsi)
     bfd:	27  <unknown>
     bfe:	19 11 	sbbl	%edx, (%rcx)
     c00:	01 12 	addl	%edx, (%rdx)
     c02:	07  <unknown>
     c03:	40 18 7a 19 	sbbb	%dil, 25(%rdx)
     c07:	01 13 	addl	%edx, (%rbx)
     c09:	00 00 	addb	%al, (%rax)
     c0b:	03 24 00 	addl	(%rax,%rax), %esp
     c0e:	0b 0b 	orl	(%rbx), %ecx
     c10:	3e 0b 03 	orl	%ds:(%rbx), %eax
     c13:	0e  <unknown>
     c14:	00 00 	addb	%al, (%rax)
     c16:	04 34 	addb	$52, %al
     c18:	00 03 	addb	%al, (%rbx)
     c1a:	0e  <unknown>
     c1b:	3a 21 	cmpb	(%rcx), %ah
     c1d:	01 3b 	addl	%edi, (%rbx)
     c1f:	0b 39 	orl	(%rcx), %edi
     c21:	0b 49 13 	orl	19(%rcx), %ecx
     c24:	02 18 	addb	(%rax), %bl
     c26:	00 00 	addb	%al, (%rax)
     c28:	05 11 01 25 0e 	addl	$237306129, %eax
     c2d:	13 0b 	adcl	(%rbx), %ecx
     c2f:	03 1f 	addl	(%rdi), %ebx
     c31:	1b 1f 	sbbl	(%rdi), %ebx
     c33:	11 01 	adcl	%eax, (%rcx)
     c35:	12 07 	adcb	(%rdi), %al
     c37:	10 17 	adcb	%dl, (%rdi)
     c39:	00 00 	addb	%al, (%rax)
     c3b:	06  <unknown>
     c3c:	2e 00 3f 	addb	%bh, %cs:(%rdi)
     c3f:	19 03 	sbbl	%eax, (%rbx)
     c41:	0e  <unknown>
     c42:	3a 0b 	cmpb	(%rbx), %cl
     c44:	3b 0b 	cmpl	(%rbx), %ecx
     c46:	39 0b 	cmpl	%ecx, (%rbx)
     c48:	11 01 	adcl	%eax, (%rcx)
     c4a:	12 07 	adcb	(%rdi), %al
     c4c:	40 18 7a 19 	sbbb	%dil, 25(%rdx)
     c50:	00 00 	addb	%al, (%rax)
     c52:	07  <unknown>
     c53:	2e 01 3f 	addl	%edi, %cs:(%rdi)
     c56:	19 03 	sbbl	%eax, (%rbx)
     c58:	08 3a 	orb	%bh, (%rdx)
     c5a:	0b 3b 	orl	(%rbx), %edi
     c5c:	0b 39 	orl	(%rcx), %edi
     c5e:	0b 27 	orl	(%rdi), %esp
     c60:	19 49 13 	sbbl	%ecx, 19(%rcx)
     c63:	11 01 	adcl	%eax, (%rcx)
     c65:	12 07 	adcb	(%rdi), %al
     c67:	40 18 7a 19 	sbbb	%dil, 25(%rdx)
     c6b:	01 13 	addl	%edx, (%rbx)
     c6d:	00 00 	addb	%al, (%rax)
     c6f:	08 2e 	orb	%ch, (%rsi)
     c71:	01 3f 	addl	%edi, (%rdi)
     c73:	19 03 	sbbl	%eax, (%rbx)
     c75:	08 3a 	orb	%bh, (%rdx)
     c77:	0b 3b 	orl	(%rbx), %edi
     c79:	0b 39 	orl	(%rcx), %edi
     c7b:	0b 27 	orl	(%rdi), %esp
     c7d:	19 49 13 	sbbl	%ecx, 19(%rcx)
     c80:	11 01 	adcl	%eax, (%rcx)
     c82:	12 07 	adcb	(%rdi), %al
     c84:	40 18 7a 19 	sbbb	%dil, 25(%rdx)
     c88:	00 00 	addb	%al, (%rax)
     c8a:	00 01 	addb	%al, (%rcx)
     c8c:	2e 00 3f 	addb	%bh, %cs:(%rdi)
     c8f:	19 03 	sbbl	%eax, (%rbx)
     c91:	0e  <unknown>
     c92:	3a 21 	cmpb	(%rcx), %ah
     c94:	01 3b 	addl	%edi, (%rbx)
     c96:	0b 39 	orl	(%rcx), %edi
     c98:	21 01 	andl	%eax, (%rcx)
     c9a:	27  <unknown>
     c9b:	19 3c 19 	sbbl	%edi, (%rcx,%rbx)
     c9e:	00 00 	addb	%al, (%rax)
     ca0:	02 24 00 	addb	(%rax,%rax), %ah
     ca3:	0b 0b 	orl	(%rbx), %ecx
     ca5:	3e 0b 03 	orl	%ds:(%rbx), %eax
     ca8:	0e  <unknown>
     ca9:	00 00 	addb	%al, (%rax)
     cab:	03 0d 00 03 0e 3a 	addl	973996800(%rip), %ecx
     cb1:	21 03 	andl	%eax, (%rbx)
     cb3:	3b 0b 	cmpl	(%rbx), %ecx
     cb5:	39 0b 	cmpl	%ecx, (%rbx)
     cb7:	49 13 38 	adcq	(%r8), %rdi
     cba:	0b 00 	orl	(%rax), %eax
     cbc:	00 04 16 	addb	%al, (%rsi,%rdx)
     cbf:	00 03 	addb	%al, (%rbx)
     cc1:	0e  <unknown>
     cc2:	3a 0b 	cmpb	(%rbx), %cl
     cc4:	3b 0b 	cmpl	(%rbx), %ecx
     cc6:	39 0b 	cmpl	%ecx, (%rbx)
     cc8:	49 13 00 	adcq	(%r8), %rax
     ccb:	00 05 05 00 49 13 	addb	%al, 323551237(%rip)
     cd1:	00 00 	addb	%al, (%rax)
     cd3:	06  <unknown>
     cd4:	05 00 03 0e 3a 	addl	$973996800, %eax
     cd9:	21 01 	andl	%eax, (%rcx)
     cdb:	3b 21 	cmpl	(%rcx), %esp
     cdd:	86 01 	xchgb	%al, (%rcx)
     cdf:	39 0b 	cmpl	%ecx, (%rbx)
     ce1:	49 13 02 	adcq	(%r10), %rax
     ce4:	18 00 	sbbb	%al, (%rax)
     ce6:	00 07 	addb	%al, (%rdi)
     ce8:	0f 00 0b 	strw	(%rbx)
     ceb:	21 08 	andl	%ecx, (%rax)
     ced:	49 13 00 	adcq	(%r8), %rax
     cf0:	00 08 	addb	%cl, (%rax)
     cf2:	18 00 	sbbb	%al, (%rax)
     cf4:	00 00 	addb	%al, (%rax)
     cf6:	09 34 00 	orl	%esi, (%rax,%rax)
     cf9:	03 08 	addl	(%rax), %ecx
     cfb:	3a 21 	cmpb	(%rcx), %ah
     cfd:	01 3b 	addl	%edi, (%rbx)
     cff:	0b 39 	orl	(%rcx), %edi
     d01:	0b 49 13 	orl	19(%rcx), %ecx
     d04:	02 18 	addb	(%rax), %bl
     d06:	00 00 	addb	%al, (%rax)
     d08:	0a 13 	orb	(%rbx), %dl
     d0a:	01 0b 	addl	%ecx, (%rbx)
     d0c:	0b 3a 	orl	(%rdx), %edi
     d0e:	21 03 	andl	%eax, (%rbx)
     d10:	3b 0b 	cmpl	(%rbx), %ecx
     d12:	39 21 	cmpl	%esp, (%rcx)
     d14:	09 01 	orl	%eax, (%rcx)
     d16:	13 00 	adcl	(%rax), %eax
     d18:	00 0b 	addb	%cl, (%rbx)
     d1a:	2e 01 3f 	addl	%edi, %cs:(%rdi)
     d1d:	19 03 	sbbl	%eax, (%rbx)
     d1f:	0e  <unknown>
     d20:	3a 0b 	cmpb	(%rbx), %cl
     d22:	3b 0b 	cmpl	(%rbx), %ecx
     d24:	39 21 	cmpl	%esp, (%rcx)
     d26:	06  <unknown>
     d27:	27  <unknown>
     d28:	19 3c 19 	sbbl	%edi, (%rcx,%rbx)
     d2b:	01 13 	addl	%edx, (%rbx)
     d2d:	00 00 	addb	%al, (%rax)
     d2f:	0c 2e 	orb	$46, %al
     d31:	01 3f 	addl	%edi, (%rdi)
     d33:	19 03 	sbbl	%eax, (%rbx)
     d35:	0e  <unknown>
     d36:	3a 0b 	cmpb	(%rbx), %cl
     d38:	3b 0b 	cmpl	(%rbx), %ecx
     d3a:	39 0b 	cmpl	%ecx, (%rbx)
     d3c:	49 13 3c 19 	adcq	(%r9,%rbx), %rdi
     d40:	01 13 	addl	%edx, (%rbx)
     d42:	00 00 	addb	%al, (%rax)
     d44:	0d 2e 01 3f 19 	orl	$423559470, %eax
     d49:	03 0e 	addl	(%rsi), %ecx
     d4b:	3a 21 	cmpb	(%rcx), %ah
     d4d:	01 3b 	addl	%edi, (%rbx)
     d4f:	0b 39 	orl	(%rcx), %edi
     d51:	21 06 	andl	%eax, (%rsi)
     d53:	11 01 	adcl	%eax, (%rcx)
     d55:	12 07 	adcb	(%rdi), %al
     d57:	40 18 7c 19 01 	sbbb	%dil, 1(%rcx,%rbx)
     d5c:	13 00 	adcl	(%rax), %eax
     d5e:	00 0e 	addb	%cl, (%rsi)
     d60:	2e 01 3f 	addl	%edi, %cs:(%rdi)
     d63:	19 03 	sbbl	%eax, (%rbx)
     d65:	0e  <unknown>
     d66:	3a 21 	cmpb	(%rcx), %ah
     d68:	01 3b 	addl	%edi, (%rbx)
     d6a:	0b 39 	orl	(%rcx), %edi
     d6c:	21 06 	andl	%eax, (%rsi)
     d6e:	27  <unknown>
     d6f:	19 11 	sbbl	%edx, (%rcx)
     d71:	01 12 	addl	%edx, (%rdx)
     d73:	07  <unknown>
     d74:	40 18 7a 19 	sbbb	%dil, 25(%rdx)
     d78:	01 13 	addl	%edx, (%rbx)
     d7a:	00 00 	addb	%al, (%rax)
     d7c:	0f 11 01 	movups	%xmm0, (%rcx)
     d7f:	25 0e 13 0b 03 	andl	$51057422, %eax
     d84:	1f  <unknown>
     d85:	1b 1f 	sbbl	(%rdi), %ebx
     d87:	11 01 	adcl	%eax, (%rcx)
     d89:	12 07 	adcb	(%rdi), %al
     d8b:	10 17 	adcb	%dl, (%rdi)
     d8d:	00 00 	addb	%al, (%rax)
     d8f:	10 24 00 	adcb	%ah, (%rax,%rax)
     d92:	0b 0b 	orl	(%rbx), %ecx
     d94:	3e 0b 03 	orl	%ds:(%rbx), %eax
     d97:	08 00 	orb	%al, (%rax)
     d99:	00 11 	addb	%dl, (%rcx)
     d9b:	0f 00 0b 	strw	(%rbx)
     d9e:	0b 00 	orl	(%rax), %eax
     da0:	00 12 	addb	%dl, (%rdx)
     da2:	34 00 	xorb	$0, %al
     da4:	03 0e 	addl	(%rsi), %ecx
     da6:	3a 0b 	cmpb	(%rbx), %cl
     da8:	3b 0b 	cmpl	(%rbx), %ecx
     daa:	39 0b 	cmpl	%ecx, (%rbx)
     dac:	49 13 3f 	adcq	(%r15), %rdi
     daf:	19 3c 19 	sbbl	%edi, (%rcx,%rbx)
     db2:	00 00 	addb	%al, (%rax)
     db4:	13 34 00 	adcl	(%rax,%rax), %esi
     db7:	47 13 3a 	adcl	(%r10), %r15d
     dba:	0b 3b 	orl	(%rbx), %edi
     dbc:	0b 39 	orl	(%rcx), %edi
     dbe:	0b 02 	orl	(%rdx), %eax
     dc0:	18 00 	sbbb	%al, (%rax)
     dc2:	00 14 34 	addb	%dl, (%rsp,%rsi)
     dc5:	00 03 	addb	%al, (%rbx)
     dc7:	0e  <unknown>
     dc8:	3a 0b 	cmpb	(%rbx), %cl
     dca:	3b 0b 	cmpl	(%rbx), %ecx
     dcc:	39 0b 	cmpl	%ecx, (%rbx)
     dce:	49 13 3f 	adcq	(%r15), %rdi
     dd1:	19 02 	sbbl	%eax, (%rdx)
     dd3:	18 00 	sbbb	%al, (%rax)
     dd5:	00 15 2e 01 3f 19 	addb	%dl, 423559470(%rip)
     ddb:	03 08 	addl	(%rax), %ecx
     ddd:	3a 0b 	cmpb	(%rbx), %cl
     ddf:	3b 0b 	cmpl	(%rbx), %ecx
     de1:	39 0b 	cmpl	%ecx, (%rbx)
     de3:	27  <unknown>
     de4:	19 49 13 	sbbl	%ecx, 19(%rcx)
     de7:	3c 19 	cmpb	$25, %al
     de9:	01 13 	addl	%edx, (%rbx)
     deb:	00 00 	addb	%al, (%rax)
     ded:	16  <unknown>
     dee:	0b 01 	orl	(%rcx), %eax
     df0:	11 01 	adcl	%eax, (%rcx)
     df2:	12 07 	adcb	(%rdi), %al
     df4:	00 00 	addb	%al, (%rax)
     df6:	17  <unknown>
     df7:	2e 01 3f 	addl	%edi, %cs:(%rdi)
     dfa:	19 03 	sbbl	%eax, (%rbx)
     dfc:	0e  <unknown>
     dfd:	3a 0b 	cmpb	(%rbx), %cl
     dff:	3b 0b 	cmpl	(%rbx), %ecx
     e01:	39 0b 	cmpl	%ecx, (%rbx)
     e03:	49 13 3c 19 	adcq	(%r9,%rbx), %rdi
     e07:	00 00 	addb	%al, (%rax)
     e09:	18 05 00 03 08 3a 	sbbb	%al, 973603584(%rip)
     e0f:	0b 3b 	orl	(%rbx), %edi
     e11:	0b 39 	orl	(%rcx), %edi
     e13:	0b 49 13 	orl	19(%rcx), %ecx
     e16:	02 18 	addb	(%rax), %bl
     e18:	00 00 	addb	%al, (%rax)
     e1a:	00 01 	addb	%al, (%rcx)
     e1c:	05 00 03 0e 3a 	addl	$973996800, %eax
     e21:	21 01 	andl	%eax, (%rcx)
     e23:	3b 0b 	cmpl	(%rbx), %ecx
     e25:	39 0b 	cmpl	%ecx, (%rbx)
     e27:	49 13 02 	adcq	(%r10), %rax
     e2a:	18 00 	sbbb	%al, (%rax)
     e2c:	00 02 	addb	%al, (%rdx)
     e2e:	2e 01 3f 	addl	%edi, %cs:(%rdi)
     e31:	19 03 	sbbl	%eax, (%rbx)
     e33:	0e  <unknown>
     e34:	3a 21 	cmpb	(%rcx), %ah
     e36:	01 3b 	addl	%edi, (%rbx)
     e38:	0b 39 	orl	(%rcx), %edi
     e3a:	21 06 	andl	%eax, (%rsi)
     e3c:	27  <unknown>
     e3d:	19 11 	sbbl	%edx, (%rcx)
     e3f:	01 12 	addl	%edx, (%rdx)
     e41:	07  <unknown>
     e42:	40 18 7a 19 	sbbb	%dil, 25(%rdx)
     e46:	01 13 	addl	%edx, (%rbx)
     e48:	00 00 	addb	%al, (%rax)
     e4a:	03 0d 00 03 08 3a 	addl	973603584(%rip), %ecx
     e50:	21 02 	andl	%eax, (%rdx)
     e52:	3b 0b 	cmpl	(%rbx), %ecx
     e54:	39 0b 	cmpl	%ecx, (%rbx)
     e56:	49 13 38 	adcq	(%r8), %rdi
     e59:	0b 00 	orl	(%rax), %eax
     e5b:	00 04 24 	addb	%al, (%rsp)
     e5e:	00 0b 	addb	%cl, (%rbx)
     e60:	0b 3e 	orl	(%rsi), %edi
     e62:	0b 03 	orl	(%rbx), %eax
     e64:	0e  <unknown>
     e65:	00 00 	addb	%al, (%rax)
     e67:	05 0d 00 03 0e 	addl	$235077645, %eax
     e6c:	3a 21 	cmpb	(%rcx), %ah
     e6e:	02 3b 	addb	(%rbx), %bh
     e70:	0b 39 	orl	(%rcx), %edi
     e72:	0b 49 13 	orl	19(%rcx), %ecx
     e75:	38 0b 	cmpb	%cl, (%rbx)
     e77:	00 00 	addb	%al, (%rax)
     e79:	06  <unknown>
     e7a:	16  <unknown>
     e7b:	00 03 	addb	%al, (%rbx)
     e7d:	0e  <unknown>
     e7e:	3a 0b 	cmpb	(%rbx), %cl
     e80:	3b 0b 	cmpl	(%rbx), %ecx
     e82:	39 0b 	cmpl	%ecx, (%rbx)
     e84:	49 13 00 	adcq	(%r8), %rax
     e87:	00 07 	addb	%al, (%rdi)
     e89:	11 01 	adcl	%eax, (%rcx)
     e8b:	25 0e 13 0b 03 	andl	$51057422, %eax
     e90:	1f  <unknown>
     e91:	1b 1f 	sbbl	(%rdi), %ebx
     e93:	11 01 	adcl	%eax, (%rcx)
     e95:	12 07 	adcb	(%rdi), %al
     e97:	10 17 	adcb	%dl, (%rdi)
     e99:	00 00 	addb	%al, (%rax)
     e9b:	08 24 00 	orb	%ah, (%rax,%rax)
     e9e:	0b 0b 	orl	(%rbx), %ecx
     ea0:	3e 0b 03 	orl	%ds:(%rbx), %eax
     ea3:	08 00 	orb	%al, (%rax)
     ea5:	00 09 	addb	%cl, (%rcx)
     ea7:	13 01 	adcl	(%rcx), %eax
     ea9:	0b 0b 	orl	(%rbx), %ecx
     eab:	3a 0b 	cmpb	(%rbx), %cl
     ead:	3b 0b 	cmpl	(%rbx), %ecx
     eaf:	39 0b 	cmpl	%ecx, (%rbx)
     eb1:	01 13 	addl	%edx, (%rbx)
     eb3:	00 00 	addb	%al, (%rax)
     eb5:	0a 0f 	orb	(%rdi), %cl
     eb7:	00 0b 	addb	%cl, (%rbx)
     eb9:	0b 49 13 	orl	19(%rcx), %ecx
     ebc:	00 00 	addb	%al, (%rax)
     ebe:	0b 2e 	orl	(%rsi), %ebp
     ec0:	01 3f 	addl	%edi, (%rdi)
     ec2:	19 03 	sbbl	%eax, (%rbx)
     ec4:	0e  <unknown>
     ec5:	3a 0b 	cmpb	(%rbx), %cl
     ec7:	3b 0b 	cmpl	(%rbx), %ecx
     ec9:	39 0b 	cmpl	%ecx, (%rbx)
     ecb:	27  <unknown>
     ecc:	19 11 	sbbl	%edx, (%rcx)
     ece:	01 12 	addl	%edx, (%rdx)
     ed0:	07  <unknown>
     ed1:	40 18 7a 19 	sbbb	%dil, 25(%rdx)
     ed5:	00 00 	addb	%al, (%rax)
     ed7:	00 01 	addb	%al, (%rcx)
     ed9:	05 00 03 08 3a 	addl	$973603584, %eax
     ede:	21 01 	andl	%eax, (%rcx)
     ee0:	3b 0b 	cmpl	(%rbx), %ecx
     ee2:	39 0b 	cmpl	%ecx, (%rbx)
     ee4:	49 13 02 	adcq	(%r10), %rax
     ee7:	18 00 	sbbb	%al, (%rax)
     ee9:	00 02 	addb	%al, (%rdx)
     eeb:	34 00 	xorb	$0, %al
     eed:	03 0e 	addl	(%rsi), %ecx
     eef:	3a 21 	cmpb	(%rcx), %ah
     ef1:	01 3b 	addl	%edi, (%rbx)
     ef3:	0b 39 	orl	(%rcx), %edi
     ef5:	0b 49 13 	orl	19(%rcx), %ecx
     ef8:	02 18 	addb	(%rax), %bl
     efa:	00 00 	addb	%al, (%rax)
     efc:	03 0d 00 03 0e 3a 	addl	973996800(%rip), %ecx
     f02:	21 03 	andl	%eax, (%rbx)
     f04:	3b 0b 	cmpl	(%rbx), %ecx
     f06:	39 0b 	cmpl	%ecx, (%rbx)
     f08:	49 13 38 	adcq	(%r8), %rdi
     f0b:	0b 00 	orl	(%rax), %eax
     f0d:	00 04 34 	addb	%al, (%rsp,%rsi)
     f10:	00 03 	addb	%al, (%rbx)
     f12:	08 3a 	orb	%bh, (%rdx)
     f14:	21 01 	andl	%eax, (%rcx)
     f16:	3b 0b 	cmpl	(%rbx), %ecx
     f18:	39 0b 	cmpl	%ecx, (%rbx)
     f1a:	49 13 02 	adcq	(%r10), %rax
     f1d:	18 00 	sbbb	%al, (%rax)
     f1f:	00 05 24 00 0b 0b 	addb	%al, 185270308(%rip)
     f25:	3e 0b 03 	orl	%ds:(%rbx), %eax
     f28:	0e  <unknown>
     f29:	00 00 	addb	%al, (%rax)
     f2b:	06  <unknown>
     f2c:	05 00 03 0e 3a 	addl	$973996800, %eax
     f31:	21 01 	andl	%eax, (%rcx)
     f33:	3b 0b 	cmpl	(%rbx), %ecx
     f35:	39 0b 	cmpl	%ecx, (%rbx)
     f37:	49 13 02 	adcq	(%r10), %rax
     f3a:	18 00 	sbbb	%al, (%rax)
     f3c:	00 07 	addb	%al, (%rdi)
     f3e:	34 00 	xorb	$0, %al
     f40:	03 0e 	addl	(%rsi), %ecx
     f42:	3a 21 	cmpb	(%rcx), %ah
     f44:	01 3b 	addl	%edi, (%rbx)
     f46:	05 39 0b 49 13 	addl	$323554105, %eax
     f4b:	02 18 	addb	(%rax), %bl
     f4d:	00 00 	addb	%al, (%rax)
     f4f:	08 16 	orb	%dl, (%rsi)
     f51:	00 03 	addb	%al, (%rbx)
     f53:	0e  <unknown>
     f54:	3a 0b 	cmpb	(%rbx), %cl
     f56:	3b 0b 	cmpl	(%rbx), %ecx
     f58:	39 0b 	cmpl	%ecx, (%rbx)
     f5a:	49 13 00 	adcq	(%r8), %rax
     f5d:	00 09 	addb	%cl, (%rcx)
     f5f:	34 00 	xorb	$0, %al
     f61:	03 08 	addl	(%rax), %ecx
     f63:	3a 21 	cmpb	(%rcx), %ah
     f65:	01 3b 	addl	%edi, (%rbx)
     f67:	05 39 21 09 49 	addl	$1225335097, %eax
     f6c:	13 02 	adcl	(%rdx), %eax
     f6e:	18 00 	sbbb	%al, (%rax)
     f70:	00 0a 	addb	%cl, (%rdx)
     f72:	2e 01 3f 	addl	%edi, %cs:(%rdi)
     f75:	19 03 	sbbl	%eax, (%rbx)
     f77:	0e  <unknown>
     f78:	3a 21 	cmpb	(%rcx), %ah
     f7a:	01 3b 	addl	%edi, (%rbx)
     f7c:	0b 39 	orl	(%rcx), %edi
     f7e:	21 06 	andl	%eax, (%rsi)
     f80:	27  <unknown>
     f81:	19 11 	sbbl	%edx, (%rcx)
     f83:	01 12 	addl	%edx, (%rdx)
     f85:	07  <unknown>
     f86:	40 18 7c 19 01 	sbbb	%dil, 1(%rcx,%rbx)
     f8b:	13 00 	adcl	(%rax), %eax
     f8d:	00 0b 	addb	%cl, (%rbx)
     f8f:	0b 01 	orl	(%rcx), %eax
     f91:	11 01 	adcl	%eax, (%rcx)
     f93:	12 07 	adcb	(%rdi), %al
     f95:	01 13 	addl	%edx, (%rbx)
     f97:	00 00 	addb	%al, (%rax)
     f99:	0c 05 	orb	$5, %al
     f9b:	00 03 	addb	%al, (%rbx)
     f9d:	08 3a 	orb	%bh, (%rdx)
     f9f:	21 01 	andl	%eax, (%rcx)
     fa1:	3b 21 	cmpl	(%rcx), %esp
     fa3:	a0 02 39 0b 49 13 02 18 00 	movabsb	6757681294162178, %al
     fac:	00 0d 0b 01 11 01 	addb	%cl, 17891595(%rip)
     fb2:	12 07 	adcb	(%rdi), %al
     fb4:	00 00 	addb	%al, (%rax)
     fb6:	0e  <unknown>
     fb7:	2e 01 3f 	addl	%edi, %cs:(%rdi)
     fba:	19 03 	sbbl	%eax, (%rbx)
     fbc:	0e  <unknown>
     fbd:	3a 21 	cmpb	(%rcx), %ah
     fbf:	01 3b 	addl	%edi, (%rbx)
     fc1:	0b 39 	orl	(%rcx), %edi
     fc3:	21 06 	andl	%eax, (%rsi)
     fc5:	27  <unknown>
     fc6:	19 11 	sbbl	%edx, (%rcx)
     fc8:	01 12 	addl	%edx, (%rdx)
     fca:	07  <unknown>
     fcb:	40 18 7a 19 	sbbb	%dil, 25(%rdx)
     fcf:	01 13 	addl	%edx, (%rbx)
     fd1:	00 00 	addb	%al, (%rax)
     fd3:	0f 2e 01 	ucomiss	(%rcx), %xmm0
     fd6:	3f  <unknown>
     fd7:	19 03 	sbbl	%eax, (%rbx)
     fd9:	08 3a 	orb	%bh, (%rdx)
     fdb:	21 01 	andl	%eax, (%rcx)
     fdd:	3b 21 	cmpl	(%rcx), %esp
     fdf:	1a 39 	sbbb	(%rcx), %bh
     fe1:	21 11 	andl	%edx, (%rcx)
     fe3:	49 13 3c 19 	adcq	(%r9,%rbx), %rdi
     fe7:	01 13 	addl	%edx, (%rbx)
     fe9:	00 00 	addb	%al, (%rax)
     feb:	10 18 	adcb	%bl, (%rax)
     fed:	00 00 	addb	%al, (%rax)
     fef:	00 11 	addb	%dl, (%rcx)
     ff1:	11 01 	adcl	%eax, (%rcx)
     ff3:	25 0e 13 0b 03 	andl	$51057422, %eax
     ff8:	1f  <unknown>
     ff9:	1b 1f 	sbbl	(%rdi), %ebx
     ffb:	11 01 	adcl	%eax, (%rcx)
     ffd:	12 07 	adcb	(%rdi), %al
     fff:	10 17 	adcb	%dl, (%rdi)
    1001:	00 00 	addb	%al, (%rax)
    1003:	12 24 00 	adcb	(%rax,%rax), %ah
    1006:	0b 0b 	orl	(%rbx), %ecx
    1008:	3e 0b 03 	orl	%ds:(%rbx), %eax
    100b:	08 00 	orb	%al, (%rax)
    100d:	00 13 	addb	%dl, (%rbx)
    100f:	13 01 	adcl	(%rcx), %eax
    1011:	0b 0b 	orl	(%rbx), %ecx
    1013:	3a 0b 	cmpb	(%rbx), %cl
    1015:	3b 0b 	cmpl	(%rbx), %ecx
    1017:	39 0b 	cmpl	%ecx, (%rbx)
    1019:	01 13 	addl	%edx, (%rbx)
    101b:	00 00 	addb	%al, (%rax)
    101d:	14 0d 	adcb	$13, %al
    101f:	00 03 	addb	%al, (%rbx)
    1021:	08 3a 	orb	%bh, (%rdx)
    1023:	0b 3b 	orl	(%rbx), %edi
    1025:	0b 39 	orl	(%rcx), %edi
    1027:	0b 49 13 	orl	19(%rcx), %ecx
    102a:	38 0b 	cmpb	%cl, (%rbx)
    102c:	00 00 	addb	%al, (%rax)
    102e:	15 01 01 49 13 	adcl	$323551489, %eax
    1033:	01 13 	addl	%edx, (%rbx)
    1035:	00 00 	addb	%al, (%rax)
    1037:	16  <unknown>
    1038:	21 00 	andl	%eax, (%rax)
    103a:	49 13 2f 	adcq	(%r15), %rbp
    103d:	0b 00 	orl	(%rax), %eax
    103f:	00 17 	addb	%dl, (%rdi)
    1041:	34 00 	xorb	$0, %al
    1043:	03 0e 	addl	(%rsi), %ecx
    1045:	3a 0b 	cmpb	(%rbx), %cl
    1047:	3b 0b 	cmpl	(%rbx), %ecx
    1049:	39 0b 	cmpl	%ecx, (%rbx)
    104b:	49 13 3f 	adcq	(%r15), %rdi
    104e:	19 3c 19 	sbbl	%edi, (%rcx,%rbx)
    1051:	00 00 	addb	%al, (%rax)
    1053:	18 2e 	sbbb	%ch, (%rsi)
    1055:	01 3f 	addl	%edi, (%rdi)
    1057:	19 03 	sbbl	%eax, (%rbx)
    1059:	0e  <unknown>
    105a:	3a 0b 	cmpb	(%rbx), %cl
    105c:	3b 05 39 0b 27 19 	cmpl	421989177(%rip), %eax
    1062:	11 01 	adcl	%eax, (%rcx)
    1064:	12 07 	adcb	(%rdi), %al
    1066:	40 18 7c 19 01 	sbbb	%dil, 1(%rcx,%rbx)
    106b:	13 00 	adcl	(%rax), %eax
    106d:	00 19 	addb	%bl, (%rcx)
    106f:	0f 00 0b 	strw	(%rbx)
    1072:	0b 49 13 	orl	19(%rcx), %ecx
    1075:	00 00 	addb	%al, (%rax)
    1077:	1a 2e 	sbbb	(%rsi), %ch
    1079:	01 3f 	addl	%edi, (%rdi)
    107b:	19 03 	sbbl	%eax, (%rbx)
    107d:	0e  <unknown>
    107e:	3a 0b 	cmpb	(%rbx), %cl
    1080:	3b 0b 	cmpl	(%rbx), %ecx
    1082:	39 0b 	cmpl	%ecx, (%rbx)
    1084:	27  <unknown>
    1085:	19 49 13 	sbbl	%ecx, 19(%rcx)
    1088:	11 01 	adcl	%eax, (%rcx)
    108a:	12 07 	adcb	(%rdi), %al
    108c:	40 18 7a 19 	sbbb	%dil, 25(%rdx)
    1090:	01 13 	addl	%edx, (%rbx)
    1092:	00 00 	addb	%al, (%rax)
    1094:	1b 2e 	sbbl	(%rsi), %ebp
    1096:	01 3f 	addl	%edi, (%rdi)
    1098:	19 03 	sbbl	%eax, (%rbx)
    109a:	0e  <unknown>
    109b:	3a 0b 	cmpb	(%rbx), %cl
    109d:	3b 0b 	cmpl	(%rbx), %ecx
    109f:	39 0b 	cmpl	%ecx, (%rbx)
    10a1:	27  <unknown>
    10a2:	19 11 	sbbl	%edx, (%rcx)
    10a4:	01 12 	addl	%edx, (%rdx)
    10a6:	07  <unknown>
    10a7:	40 18 7a 19 	sbbb	%dil, 25(%rdx)
    10ab:	00 00 	addb	%al, (%rax)
    10ad:	00  <unknown>
Disassembly of section .debug_aranges:
.debug_aranges:
       0:	2c 00 	subb	$0, %al
       2:	00 00 	addb	%al, (%rax)
       4:	02 00 	addb	(%rax), %al
       6:	00 00 	addb	%al, (%rax)
       8:	00 00 	addb	%al, (%rax)
       a:	08 00 	orb	%al, (%rax)
       c:	00 00 	addb	%al, (%rax)
       e:	00 00 	addb	%al, (%rax)
      10:	20 00 	andb	%al, (%rax)
      12:	01 00 	addl	%eax, (%rax)
      14:	00 00 	addb	%al, (%rax)
      16:	00 00 	addb	%al, (%rax)
      18:	99 	cltd
      19:	00 00 	addb	%al, (%rax)
      1b:	00 00 	addb	%al, (%rax)
      1d:	00 00 	addb	%al, (%rax)
      1f:	00 00 	addb	%al, (%rax)
      21:	00 00 	addb	%al, (%rax)
      23:	00 00 	addb	%al, (%rax)
      25:	00 00 	addb	%al, (%rax)
      27:	00 00 	addb	%al, (%rax)
      29:	00 00 	addb	%al, (%rax)
      2b:	00 00 	addb	%al, (%rax)
      2d:	00 00 	addb	%al, (%rax)
      2f:	00 2c 00 	addb	%ch, (%rax,%rax)
      32:	00 00 	addb	%al, (%rax)
      34:	02 00 	addb	(%rax), %al
      36:	0f 03 00 	lsll	(%rax), %eax
      39:	00 08 	addb	%cl, (%rax)
      3b:	00 00 	addb	%al, (%rax)
      3d:	00 00 	addb	%al, (%rax)
      3f:	00 b9 00 01 00 00 	addb	%bh, 256(%rcx)
      45:	00 00 	addb	%al, (%rax)
      47:	00 b7 01 00 00 00 	addb	%dh, 1(%rdi)
      4d:	00 00 	addb	%al, (%rax)
      4f:	00 00 	addb	%al, (%rax)
      51:	00 00 	addb	%al, (%rax)
      53:	00 00 	addb	%al, (%rax)
      55:	00 00 	addb	%al, (%rax)
      57:	00 00 	addb	%al, (%rax)
      59:	00 00 	addb	%al, (%rax)
      5b:	00 00 	addb	%al, (%rax)
      5d:	00 00 	addb	%al, (%rax)
      5f:	00 2c 00 	addb	%ch, (%rax,%rax)
      62:	00 00 	addb	%al, (%rax)
      64:	02 00 	addb	(%rax), %al
      66:	79 05 	jns	5 <video.c+0x6d>
      68:	00 00 	addb	%al, (%rax)
      6a:	08 00 	orb	%al, (%rax)
      6c:	00 00 	addb	%al, (%rax)
      6e:	00 00 	addb	%al, (%rax)
      70:	70 02 	jo	2 <video.c+0x74>
      72:	01 00 	addl	%eax, (%rax)
      74:	00 00 	addb	%al, (%rax)
      76:	00 00 	addb	%al, (%rax)
      78:	9c 	pushfq
      79:	07  <unknown>
      7a:	00 00 	addb	%al, (%rax)
      7c:	00 00 	addb	%al, (%rax)
      7e:	00 00 	addb	%al, (%rax)
      80:	00 00 	addb	%al, (%rax)
      82:	00 00 	addb	%al, (%rax)
      84:	00 00 	addb	%al, (%rax)
      86:	00 00 	addb	%al, (%rax)
      88:	00 00 	addb	%al, (%rax)
      8a:	00 00 	addb	%al, (%rax)
      8c:	00 00 	addb	%al, (%rax)
      8e:	00 00 	addb	%al, (%rax)
      90:	2c 00 	subb	$0, %al
      92:	00 00 	addb	%al, (%rax)
      94:	02 00 	addb	(%rax), %al
      96:	0b 0d 00 00 08 00 	orl	524288(%rip), %ecx
      9c:	00 00 	addb	%al, (%rax)
      9e:	00 00 	addb	%al, (%rax)
      a0:	0c 0a 	orb	$10, %al
      a2:	01 00 	addl	%eax, (%rax)
      a4:	00 00 	addb	%al, (%rax)
      a6:	00 00 	addb	%al, (%rax)
      a8:	7c 01 	jl	1 <video.c+0xab>
      aa:	00 00 	addb	%al, (%rax)
      ac:	00 00 	addb	%al, (%rax)
      ae:	00 00 	addb	%al, (%rax)
      b0:	00 00 	addb	%al, (%rax)
      b2:	00 00 	addb	%al, (%rax)
      b4:	00 00 	addb	%al, (%rax)
      b6:	00 00 	addb	%al, (%rax)
      b8:	00 00 	addb	%al, (%rax)
      ba:	00 00 	addb	%al, (%rax)
      bc:	00 00 	addb	%al, (%rax)
      be:	00 00 	addb	%al, (%rax)
      c0:	2c 00 	subb	$0, %al
      c2:	00 00 	addb	%al, (%rax)
      c4:	02 00 	addb	(%rax), %al
      c6:	58 	popq	%rax
      c7:	0f 00 00 	sldtw	(%rax)
      ca:	08 00 	orb	%al, (%rax)
      cc:	00 00 	addb	%al, (%rax)
      ce:	00 00 	addb	%al, (%rax)
      d0:	88 0b 	movb	%cl, (%rbx)
      d2:	01 00 	addl	%eax, (%rax)
      d4:	00 00 	addb	%al, (%rax)
      d6:	00 00 	addb	%al, (%rax)
      d8:	b4 01 	movb	$1, %ah
      da:	00 00 	addb	%al, (%rax)
      dc:	00 00 	addb	%al, (%rax)
      de:	00 00 	addb	%al, (%rax)
      e0:	00 00 	addb	%al, (%rax)
      e2:	00 00 	addb	%al, (%rax)
      e4:	00 00 	addb	%al, (%rax)
      e6:	00 00 	addb	%al, (%rax)
      e8:	00 00 	addb	%al, (%rax)
      ea:	00 00 	addb	%al, (%rax)
      ec:	00 00 	addb	%al, (%rax)
      ee:	00 00 	addb	%al, (%rax)
      f0:	2c 00 	subb	$0, %al
      f2:	00 00 	addb	%al, (%rax)
      f4:	02 00 	addb	(%rax), %al
      f6:	34 11 	xorb	$17, %al
      f8:	00 00 	addb	%al, (%rax)
      fa:	08 00 	orb	%al, (%rax)
      fc:	00 00 	addb	%al, (%rax)
      fe:	00 00 	addb	%al, (%rax)
     100:	3c 0d 	cmpb	$13, %al
     102:	01 00 	addl	%eax, (%rax)
     104:	00 00 	addb	%al, (%rax)
     106:	00 00 	addb	%al, (%rax)
     108:	1a 02 	sbbb	(%rdx), %al
     10a:	00 00 	addb	%al, (%rax)
     10c:	00 00 	addb	%al, (%rax)
     10e:	00 00 	addb	%al, (%rax)
     110:	00 00 	addb	%al, (%rax)
     112:	00 00 	addb	%al, (%rax)
     114:	00 00 	addb	%al, (%rax)
     116:	00 00 	addb	%al, (%rax)
     118:	00 00 	addb	%al, (%rax)
     11a:	00 00 	addb	%al, (%rax)
     11c:	00 00 	addb	%al, (%rax)
     11e:	00 00 	addb	%al, (%rax)
     120:	2c 00 	subb	$0, %al
     122:	00 00 	addb	%al, (%rax)
     124:	02 00 	addb	(%rax), %al
     126:	3b 14 00 	cmpl	(%rax,%rax), %edx
     129:	00 08 	addb	%cl, (%rax)
     12b:	00 00 	addb	%al, (%rax)
     12d:	00 00 	addb	%al, (%rax)
     12f:	00 7a 0f 	addb	%bh, 15(%rdx)
     132:	01 00 	addl	%eax, (%rax)
     134:	00 00 	addb	%al, (%rax)
     136:	00 00 	addb	%al, (%rax)
     138:	11 02 	adcl	%eax, (%rdx)
     13a:	00 00 	addb	%al, (%rax)
     13c:	00 00 	addb	%al, (%rax)
     13e:	00 00 	addb	%al, (%rax)
     140:	00 00 	addb	%al, (%rax)
     142:	00 00 	addb	%al, (%rax)
     144:	00 00 	addb	%al, (%rax)
     146:	00 00 	addb	%al, (%rax)
     148:	00 00 	addb	%al, (%rax)
     14a:	00 00 	addb	%al, (%rax)
     14c:	00 00 	addb	%al, (%rax)
     14e:	00 00 	addb	%al, (%rax)
     150:	2c 00 	subb	$0, %al
     152:	00 00 	addb	%al, (%rax)
     154:	02 00 	addb	(%rax), %al
     156:	4f 16  <unknown>
     158:	00 00 	addb	%al, (%rax)
     15a:	08 00 	orb	%al, (%rax)
     15c:	00 00 	addb	%al, (%rax)
     15e:	00 00 	addb	%al, (%rax)
     160:	8b 11 	movl	(%rcx), %edx
     162:	01 00 	addl	%eax, (%rax)
     164:	00 00 	addb	%al, (%rax)
     166:	00 00 	addb	%al, (%rax)
     168:	60  <unknown>
     169:	08 00 	orb	%al, (%rax)
     16b:	00 00 	addb	%al, (%rax)
     16d:	00 00 	addb	%al, (%rax)
     16f:	00 00 	addb	%al, (%rax)
     171:	00 00 	addb	%al, (%rax)
     173:	00 00 	addb	%al, (%rax)
     175:	00 00 	addb	%al, (%rax)
     177:	00 00 	addb	%al, (%rax)
     179:	00 00 	addb	%al, (%rax)
     17b:	00 00 	addb	%al, (%rax)
     17d:	00 00 	addb	%al, (%rax)
     17f:	00 2c 00 	addb	%ch, (%rax,%rax)
     182:	00 00 	addb	%al, (%rax)
     184:	02 00 	addb	(%rax), %al
     186:	44 1e  <unknown>
     188:	00 00 	addb	%al, (%rax)
     18a:	08 00 	orb	%al, (%rax)
     18c:	00 00 	addb	%al, (%rax)
     18e:	00 00 	addb	%al, (%rax)
     190:	eb 19 	jmp	25 <video.c+0x1ab>
     192:	01 00 	addl	%eax, (%rax)
     194:	00 00 	addb	%al, (%rax)
     196:	00 00 	addb	%al, (%rax)
     198:	35 06 00 00 00 	xorl	$6, %eax
     19d:	00 00 	addb	%al, (%rax)
     19f:	00 00 	addb	%al, (%rax)
     1a1:	00 00 	addb	%al, (%rax)
     1a3:	00 00 	addb	%al, (%rax)
     1a5:	00 00 	addb	%al, (%rax)
     1a7:	00 00 	addb	%al, (%rax)
     1a9:	00 00 	addb	%al, (%rax)
     1ab:	00 00 	addb	%al, (%rax)
     1ad:	00 00 	addb	%al, (%rax)
     1af:	00 2c 00 	addb	%ch, (%rax,%rax)
     1b2:	00 00 	addb	%al, (%rax)
     1b4:	02 00 	addb	(%rax), %al
     1b6:	ef 	outl	%eax, %dx
     1b7:	22 00 	andb	(%rax), %al
     1b9:	00 08 	addb	%cl, (%rax)
     1bb:	00 00 	addb	%al, (%rax)
     1bd:	00 00 	addb	%al, (%rax)
     1bf:	00 20 	addb	%ah, (%rax)
     1c1:	20 01 	andb	%al, (%rcx)
     1c3:	00 00 	addb	%al, (%rax)
     1c5:	00 00 	addb	%al, (%rax)
     1c7:	00 7e 00 	addb	%bh, (%rsi)
     1ca:	00 00 	addb	%al, (%rax)
     1cc:	00 00 	addb	%al, (%rax)
     1ce:	00 00 	addb	%al, (%rax)
     1d0:	00 00 	addb	%al, (%rax)
     1d2:	00 00 	addb	%al, (%rax)
     1d4:	00 00 	addb	%al, (%rax)
     1d6:	00 00 	addb	%al, (%rax)
     1d8:	00 00 	addb	%al, (%rax)
     1da:	00 00 	addb	%al, (%rax)
     1dc:	00 00 	addb	%al, (%rax)
     1de:	00 00 	addb	%al, (%rax)
     1e0:	2c 00 	subb	$0, %al
     1e2:	00 00 	addb	%al, (%rax)
     1e4:	02 00 	addb	(%rax), %al
     1e6:	32 24 00 	xorb	(%rax,%rax), %ah
     1e9:	00 08 	addb	%cl, (%rax)
     1eb:	00 00 	addb	%al, (%rax)
     1ed:	00 00 	addb	%al, (%rax)
     1ef:	00 9e 20 01 00 00 	addb	%bl, 288(%rsi)
     1f5:	00 00 	addb	%al, (%rax)
     1f7:	00 d4 	addb	%dl, %ah
     1f9:	06  <unknown>
     1fa:	00 00 	addb	%al, (%rax)
     1fc:	00 00 	addb	%al, (%rax)
     1fe:	00 00 	addb	%al, (%rax)
     200:	00 00 	addb	%al, (%rax)
     202:	00 00 	addb	%al, (%rax)
     204:	00 00 	addb	%al, (%rax)
     206:	00 00 	addb	%al, (%rax)
     208:	00 00 	addb	%al, (%rax)
     20a:	00 00 	addb	%al, (%rax)
     20c:	00 00 	addb	%al, (%rax)
     20e:	00 00 	addb	%al, (%rax)
     210:	2c 00 	subb	$0, %al
     212:	00 00 	addb	%al, (%rax)
     214:	02 00 	addb	(%rax), %al
     216:	f6 27 	mulb	(%rdi)
     218:	00 00 	addb	%al, (%rax)
     21a:	08 00 	orb	%al, (%rax)
     21c:	00 00 	addb	%al, (%rax)
     21e:	00 00 	addb	%al, (%rax)
     220:	72 27 	jb	39 <video.c+0x249>
     222:	01 00 	addl	%eax, (%rax)
     224:	00 00 	addb	%al, (%rax)
     226:	00 00 	addb	%al, (%rax)
     228:	d2 00 	rolb	%cl, (%rax)
     22a:	00 00 	addb	%al, (%rax)
     22c:	00 00 	addb	%al, (%rax)
     22e:	00 00 	addb	%al, (%rax)
     230:	00 00 	addb	%al, (%rax)
     232:	00 00 	addb	%al, (%rax)
     234:	00 00 	addb	%al, (%rax)
     236:	00 00 	addb	%al, (%rax)
     238:	00 00 	addb	%al, (%rax)
     23a:	00 00 	addb	%al, (%rax)
     23c:	00 00 	addb	%al, (%rax)
     23e:	00 00 	addb	%al, (%rax)
     240:	2c 00 	subb	$0, %al
     242:	00 00 	addb	%al, (%rax)
     244:	02 00 	addb	(%rax), %al
     246:	28 2d 00 00 08 00 	subb	%ch, 524288(%rip)
     24c:	00 00 	addb	%al, (%rax)
     24e:	00 00 	addb	%al, (%rax)
     250:	44 28 01 	subb	%r8b, (%rcx)
     253:	00 00 	addb	%al, (%rax)
     255:	00 00 	addb	%al, (%rax)
     257:	00 60 0b 	addb	%ah, 11(%rax)
     25a:	00 00 	addb	%al, (%rax)
     25c:	00 00 	addb	%al, (%rax)
     25e:	00 00 	addb	%al, (%rax)
     260:	00 00 	addb	%al, (%rax)
     262:	00 00 	addb	%al, (%rax)
     264:	00 00 	addb	%al, (%rax)
     266:	00 00 	addb	%al, (%rax)
     268:	00 00 	addb	%al, (%rax)
     26a:	00 00 	addb	%al, (%rax)
     26c:	00 00 	addb	%al, (%rax)
     26e:	00 00 	addb	%al, (%rax)
Disassembly of section .debug_line:
.debug_line:
       0:	ba 00 00 00 05 	movl	$83886080, %edx
       5:	00 08 	addb	%cl, (%rax)
       7:	00 80 00 00 00 01 	addb	%al, 16777216(%rax)
       d:	01 01 	addl	%eax, (%rcx)
       f:	fb 	sti
      10:	0e  <unknown>
      11:	0d 00 01 01 01 	orl	$16843008, %eax
      16:	01 00 	addl	%eax, (%rax)
      18:	00 00 	addb	%al, (%rax)
      1a:	01 00 	addl	%eax, (%rax)
      1c:	00 01 	addb	%al, (%rcx)
      1e:	01 01 	addl	%eax, (%rcx)
      20:	1f  <unknown>
      21:	0a 19 	orb	(%rcx), %bl
      23:	00 00 	addb	%al, (%rax)
      25:	00 5d 00 	addb	%bl, (%rbp)
      28:	00 00 	addb	%al, (%rax)
      2a:	6e 	outsb	(%rsi), %dx
      2b:	00 00 	addb	%al, (%rax)
      2d:	00 88 00 00 00 a3 	addb	%cl, -1560281088(%rax)
      33:	00 00 	addb	%al, (%rax)
      35:	00 bd 00 00 00 dc 	addb	%bh, -603979776(%rbp)
      3b:	00 00 	addb	%al, (%rax)
      3d:	00 f4 	addb	%dh, %ah
      3f:	00 00 	addb	%al, (%rax)
      41:	00 0c 01 	addb	%cl, (%rcx,%rax)
      44:	00 00 	addb	%al, (%rax)
      46:	2b 01 	subl	(%rcx), %eax
      48:	00 00 	addb	%al, (%rax)
      4a:	02 01 	addb	(%rcx), %al
      4c:	1f  <unknown>
      4d:	02 0f 	addb	(%rdi), %cl
      4f:	0c 00 	orb	$0, %al
      51:	00 00 	addb	%al, (%rax)
      53:	00 00 	addb	%al, (%rax)
      55:	11 00 	adcl	%eax, (%rax)
      57:	00 00 	addb	%al, (%rax)
      59:	01 46 01 	addl	%eax, 1(%rsi)
      5c:	00 00 	addb	%al, (%rax)
      5e:	02 4e 01 	addb	1(%rsi), %cl
      61:	00 00 	addb	%al, (%rax)
      63:	01 56 01 	addl	%edx, 1(%rsi)
      66:	00 00 	addb	%al, (%rax)
      68:	03 5f 01 	addl	1(%rdi), %ebx
      6b:	00 00 	addb	%al, (%rax)
      6d:	04 67 	addb	$103, %al
      6f:	01 00 	addl	%eax, (%rax)
      71:	00 05 6e 01 00 00 	addb	%al, 366(%rip)
      77:	06  <unknown>
      78:	74 01 	je	1 <video.c+0x7b>
      7a:	00 00 	addb	%al, (%rax)
      7c:	05 7d 01 00 00 	addl	$381, %eax
      81:	07  <unknown>
      82:	83 01 00 	addl	$0, (%rcx)
      85:	00 08 	addb	%cl, (%rax)
      87:	89 01 	movl	%eax, (%rcx)
      89:	00 00 	addb	%al, (%rax)
      8b:	09 05 01 00 09 02 	orl	%eax, 34144257(%rip)
      91:	20 00 	andb	%al, (%rax)
      93:	01 00 	addl	%eax, (%rax)
      95:	00 00 	addb	%al, (%rax)
      97:	00 00 	addb	%al, (%rax)
      99:	03 0f 	addl	(%rdi), %ecx
      9b:	01 05 02 bb 05 29 	addl	%eax, 688241410(%rip)
      a1:	08 59 05 	orb	%bl, 5(%rcx)
      a4:	02 9e 05 2c c9 05 	addb	97070085(%rsi), %bl
      aa:	02 74 ad 9f 	addb	-97(%rbp,%rbp,4), %dh
      ae:	9f 	lahf
      af:	e5 a0 	inl	$160, %eax
      b1:	05 08 00 02 04 	addl	$67239944, %eax
      b6:	01 08 	addl	%ecx, (%rax)
      b8:	d8 02 	fadds	(%rdx)
      ba:	02 00 	addb	(%rax), %al
      bc:	01 01 	addl	%eax, (%rcx)
      be:	0a 01 	orb	(%rcx), %al
      c0:	00 00 	addb	%al, (%rax)
      c2:	05 00 08 00 37 	addl	$922748928, %eax
      c7:	00 00 	addb	%al, (%rax)
      c9:	00 01 	addb	%al, (%rcx)
      cb:	01 01 	addl	%eax, (%rcx)
      cd:	fb 	sti
      ce:	0e  <unknown>
      cf:	0d 00 01 01 01 	orl	$16843008, %eax
      d4:	01 00 	addl	%eax, (%rax)
      d6:	00 00 	addb	%al, (%rax)
      d8:	01 00 	addl	%eax, (%rax)
      da:	00 01 	addb	%al, (%rcx)
      dc:	01 01 	addl	%eax, (%rcx)
      de:	1f  <unknown>
      df:	03 19 	addl	(%rcx), %ebx
      e1:	00 00 	addb	%al, (%rax)
      e3:	00 a9 01 00 00 b9 	addb	%ch, -1191182335(%rcx)
      e9:	01 00 	addl	%eax, (%rax)
      eb:	00 02 	addb	%al, (%rdx)
      ed:	01 1f 	addl	%ebx, (%rdi)
      ef:	02 0f 	addb	(%rdi), %cl
      f1:	03 92 01 00 00 00 	addl	1(%rdx), %edx
      f7:	a2 01 00 00 01 46 01 00 00 	movabsb	%al, 1400176115713
     100:	02 05 01 00 09 02 	addb	34144257(%rip), %al
     106:	b9 00 01 00 00 	movl	$256, %ecx
     10b:	00 00 	addb	%al, (%rax)
     10d:	00 15 05 1a 91 05 	addb	%dl, 93395461(%rip)
     113:	11 90 05 26 82 05 	adcl	%edx, 92415493(%rax)
     119:	2a 00 	subb	(%rax), %al
     11b:	02 04 01 	addb	(%rcx,%rax), %al
     11e:	d6  <unknown>
     11f:	05 26 00 02 04 	addl	$67239974, %eax
     124:	01 08 	addl	%ecx, (%rax)
     126:	12 00 	adcb	(%rax), %al
     128:	02 04 02 	addb	(%rdx,%rax), %al
     12b:	06  <unknown>
     12c:	66 05 01 00 	addw	$1, %ax
     130:	02 04 05 06 91 31 05 	addb	87134470(,%rax), %al
     137:	0c 91 	orb	$-111, %al
     139:	05 01 91 31 05 	addl	$87134465, %eax
     13e:	16  <unknown>
     13f:	9f 	lahf
     140:	05 01 ad 31 05 	addl	$87141633, %eax
     145:	16  <unknown>
     146:	9f 	lahf
     147:	05 01 ad 31 05 	addl	$87141633, %eax
     14c:	0c 91 	orb	$-111, %al
     14e:	05 0e c9 05 05 	addl	$84265230, %eax
     153:	74 05 	je	5 <video.c+0x15a>
     155:	11 00 	adcl	%eax, (%rax)
     157:	02 04 03 	addb	(%rbx,%rax), %al
     15a:	30 05 15 00 02 04 	xorb	%al, 67239957(%rip)
     160:	03 90 05 1f 00 02 	addl	33562373(%rax), %edx
     166:	04 03 	addb	$3, %al
     168:	90 	nop
     169:	05 1a 00 02 04 	addl	$67239962, %eax
     16e:	03 90 05 0b 00 02 	addl	33557253(%rax), %edx
     174:	04 03 	addb	$3, %al
     176:	4a 05 1f 00 02 04 	addq	$67239967, %rax
     17c:	03 d4 	addl	%esp, %edx
     17e:	05 17 00 02 04 	addl	$67239959, %eax
     183:	01 4a 05 	addl	%ecx, 5(%rdx)
     186:	0c 6a 	orb	$106, %al
     188:	05 01 9f 77 05 	addl	$91725569, %eax
     18d:	08 d8 	orb	%bl, %al
     18f:	05 10 67 05 08 	addl	$134571792, %eax
     194:	75 05 	jne	5 <video.c+0x19b>
     196:	10 67 05 	adcb	%ah, 5(%rdi)
     199:	0c 76 	orb	$118, %al
     19b:	05 0a 08 2e 05 	addl	$86902794, %eax
     1a0:	0c 3d 	orb	$61, %al
     1a2:	05 08 66 05 15 	addl	$352675336, %eax
     1a7:	4b 05 12 a0 05 19 	addq	$419799058, %rax
     1ad:	90 	nop
     1ae:	05 01 83 31 05 	addl	$87130881, %eax
     1b3:	17  <unknown>
     1b4:	83 05 01 d7 31 05 14 	addl	$20, 87152385(%rip)
     1bb:	08 21 	orb	%ah, (%rcx)
     1bd:	05 1e c8 05 0c 	addl	$201705502, %eax
     1c2:	90 	nop
     1c3:	05 01 08 75 02 	addl	$41224193, %eax
     1c8:	07  <unknown>
     1c9:	00 01 	addb	%al, (%rcx)
     1cb:	01 86 04 00 00 05 	addl	%eax, 83886084(%rsi)
     1d1:	00 08 	addb	%cl, (%rax)
     1d3:	00 37 	addb	%dh, (%rdi)
     1d5:	00 00 	addb	%al, (%rax)
     1d7:	00 01 	addb	%al, (%rcx)
     1d9:	01 01 	addl	%eax, (%rcx)
     1db:	fb 	sti
     1dc:	0e  <unknown>
     1dd:	0d 00 01 01 01 	orl	$16843008, %eax
     1e2:	01 00 	addl	%eax, (%rax)
     1e4:	00 00 	addb	%al, (%rax)
     1e6:	01 00 	addl	%eax, (%rax)
     1e8:	00 01 	addb	%al, (%rcx)
     1ea:	01 01 	addl	%eax, (%rcx)
     1ec:	1f  <unknown>
     1ed:	03 19 	addl	(%rcx), %ebx
     1ef:	00 00 	addb	%al, (%rax)
     1f1:	00 ed 	addb	%ch, %ch
     1f3:	01 00 	addl	%eax, (%rax)
     1f5:	00 ff 	addb	%bh, %bh
     1f7:	01 00 	addl	%eax, (%rax)
     1f9:	00 02 	addb	%al, (%rdx)
     1fb:	01 1f 	addl	%ebx, (%rdi)
     1fd:	02 0f 	addb	(%rdi), %cl
     1ff:	03 d2 	addl	%edx, %edx
     201:	01 00 	addl	%eax, (%rax)
     203:	00 00 	addb	%al, (%rax)
     205:	e4 01 	inb	$1, %al
     207:	00 00 	addb	%al, (%rax)
     209:	01 46 01 	addl	%eax, 1(%rsi)
     20c:	00 00 	addb	%al, (%rax)
     20e:	02 05 01 00 09 02 	addb	34144257(%rip), %al
     214:	70 02 	jo	2 <video.c+0x218>
     216:	01 00 	addl	%eax, (%rax)
     218:	00 00 	addb	%al, (%rax)
     21a:	00 00 	addb	%al, (%rax)
     21c:	16  <unknown>
     21d:	05 20 91 05 1b 	addl	$453349664, %eax
     222:	00 02 	addb	%al, (%rdx)
     224:	04 01 	addb	$1, %al
     226:	66 05 20 00 	addw	$32, %ax
     22a:	02 04 01 	addb	(%rcx,%rax), %al
     22d:	74 00 	je	0 <video.c+0x22f>
     22f:	02 04 02 	addb	(%rdx,%rax), %al
     232:	06  <unknown>
     233:	2e 05 01 00 02 04 	addl	$67239937, %eax
     239:	05 06 4b 31 05 	addl	$87116550, %eax
     23e:	1b 91 05 21 00 02 	sbbl	33562885(%rcx), %edx
     244:	04 01 	addb	$1, %al
     246:	66 05 1b 00 	addw	$27, %ax
     24a:	02 04 01 	addb	(%rcx,%rax), %al
     24d:	74 00 	je	0 <video.c+0x24f>
     24f:	02 04 02 	addb	(%rdx,%rax), %al
     252:	06  <unknown>
     253:	2e 05 01 00 02 04 	addl	$67239937, %eax
     259:	05 06 4b 31 05 	addl	$87116550, %eax
     25e:	12 83 05 0b 75 05 	adcb	91556613(%rbx), %al
     264:	0e  <unknown>
     265:	30 05 0c 4b 55 05 	xorb	%al, 89475852(%rip)
     26b:	11 74 05 0c 	adcl	%esi, 12(%rbp,%rax)
     26f:	4f 05 01 3d 31 05 	addq	$87112961, %rax
     275:	05 bb 05 0d 2f 	addl	$789382587, %eax
     27a:	05 0c 74 05 14 	addl	$335901708, %eax
     27f:	4b 05 1b 72 05 23 	addq	$587559451, %rax
     285:	58 	popq	%rax
     286:	05 0c 00 02 04 	addl	$67239948, %eax
     28b:	01 58 05 	addl	%ebx, 5(%rax)
     28e:	15 00 02 04 01 	adcl	$17039872, %eax
     293:	74 05 	je	5 <video.c+0x29a>
     295:	12 00 	adcb	(%rax), %al
     297:	02 04 01 	addb	(%rcx,%rax), %al
     29a:	74 05 	je	5 <video.c+0x2a1>
     29c:	0c 4d 	orb	$77, %al
     29e:	05 2b 9e 05 29 	addl	$688234027, %eax
     2a3:	9e 	sahf
     2a4:	05 01 4b 31 05 	addl	$87116545, %eax
     2a9:	0e  <unknown>
     2aa:	e5 05 	inl	$5, %eax
     2ac:	05 74 05 0d 2f 	addl	$789382516, %eax
     2b1:	05 0c 74 05 14 	addl	$335901708, %eax
     2b6:	4b 05 2d 00 02 04 	addq	$67239981, %rax
     2bc:	02 72 05 	addb	5(%rdx), %dh
     2bf:	35 00 02 04 02 	xorl	$33817088, %eax
     2c4:	58 	popq	%rax
     2c5:	05 15 00 02 04 	addl	$67239957, %eax
     2ca:	01 58 05 	addl	%ebx, 5(%rax)
     2cd:	1e  <unknown>
     2ce:	00 02 	addb	%al, (%rdx)
     2d0:	04 01 	addb	$1, %al
     2d2:	74 05 	je	5 <video.c+0x2d9>
     2d4:	23 00 	andl	(%rax), %eax
     2d6:	02 04 01 	addb	(%rcx,%rax), %al
     2d9:	74 05 	je	5 <video.c+0x2e0>
     2db:	28 00 	subb	%al, (%rax)
     2dd:	02 04 03 	addb	(%rbx,%rax), %al
     2e0:	4a 05 23 00 02 04 	addq	$67239971, %rax
     2e6:	03 3c 05 0c 5b 05 2b 	addl	721771276(,%rax), %edi
     2ed:	9e 	sahf
     2ee:	05 29 9e 05 01 	addl	$17145385, %eax
     2f3:	4b 31 05 05 08 13 05 	xorq	%rax, 85133317(%rip)
     2fa:	0d 2f 05 0c 74 	orl	$1946944815, %eax
     2ff:	05 14 4b 05 35 	addl	$889539348, %eax
     304:	72 05 	jb	5 <video.c+0x30b>
     306:	3d 58 05 18 00 	cmpl	$1574232, %eax
     30b:	02 04 01 	addb	(%rcx,%rax), %al
     30e:	58 	popq	%rax
     30f:	05 0c 00 02 04 	addl	$67239948, %eax
     314:	01 74 05 2e 	addl	%esi, 46(%rbp,%rax)
     318:	00 02 	addb	%al, (%rdx)
     31a:	04 01 	addb	$1, %al
     31c:	ba 05 22 00 02 	movl	$33563141, %edx
     321:	04 01 	addb	$1, %al
     323:	74 05 	je	5 <video.c+0x32a>
     325:	1f  <unknown>
     326:	00 02 	addb	%al, (%rdx)
     328:	04 01 	addb	$1, %al
     32a:	9e 	sahf
     32b:	05 0c 4d 05 2b 	addl	$721767692, %eax
     330:	9e 	sahf
     331:	05 29 9e 05 01 	addl	$17145385, %eax
     336:	4b 69 05 0e 08 3d 05 05 74 05 0d 	imulq	$218461189, 87885838(%rip), %rax
     341:	2f  <unknown>
     342:	05 0c 74 05 14 	addl	$335901708, %eax
     347:	4b 05 47 00 02 04 	addq	$67240007, %rax
     34d:	02 72 05 	addb	5(%rdx), %dh
     350:	4f 00 02 	addb	%r8b, (%r10)
     353:	04 02 	addb	$2, %al
     355:	58 	popq	%rax
     356:	05 21 00 02 04 	addl	$67239969, %eax
     35b:	01 58 05 	addl	%ebx, 5(%rax)
     35e:	15 00 02 04 01 	adcl	$17039872, %eax
     363:	74 05 	je	5 <video.c+0x36a>
     365:	37  <unknown>
     366:	00 02 	addb	%al, (%rdx)
     368:	04 01 	addb	$1, %al
     36a:	ba 05 2b 00 02 	movl	$33565445, %edx
     36f:	04 01 	addb	$1, %al
     371:	74 05 	je	5 <video.c+0x378>
     373:	3d 00 02 04 01 	cmpl	$17039872, %eax
     378:	9e 	sahf
     379:	05 42 00 02 04 	addl	$67240002, %eax
     37e:	03 4a 05 	addl	5(%rdx), %ecx
     381:	3d 00 02 04 03 	cmpl	$50594304, %eax
     386:	3c 05 	cmpb	$5, %al
     388:	0c 5b 	orb	$91, %al
     38a:	05 2b 9e 05 29 	addl	$688234027, %eax
     38f:	9e 	sahf
     390:	05 01 4b 69 05 	addl	$90786561, %eax
     395:	18 f3 	sbbb	%dh, %bl
     397:	05 0b d6 af 05 	addl	$95409675, %eax
     39c:	16  <unknown>
     39d:	30 05 0d ba 05 12 	xorb	%al, 302365197(%rip)
     3a3:	ba 05 10 3c 05 	movl	$87822341, %edx
     3a8:	0c 2c 	orb	$44, %al
     3aa:	05 11 74 05 0a 	addl	$168129553, %eax
     3af:	50 	pushq	%rax
     3b0:	05 0c 77 05 01 	addl	$17135372, %eax
     3b5:	4b 31 05 18 08 2f 05 	xorq	%rax, 86968344(%rip)
     3bc:	0b d6 	orl	%esi, %edx
     3be:	05 09 ad 05 0b 	addl	$184921353, %eax
     3c3:	76 05 	jbe	5 <video.c+0x3ca>
     3c5:	16  <unknown>
     3c6:	30 05 0d ba 05 12 	xorb	%al, 302365197(%rip)
     3cc:	ba 05 10 3c 05 	movl	$87822341, %edx
     3d1:	0a 2f 	orb	(%rdi), %ch
     3d3:	05 0c 47 05 19 	addl	$419776268, %eax
     3d8:	74 05 	je	5 <video.c+0x3df>
     3da:	1e  <unknown>
     3db:	00 02 	addb	%al, (%rdx)
     3dd:	04 01 	addb	$1, %al
     3df:	4a 05 19 00 02 04 	addq	$67239961, %rax
     3e5:	01 3c 05 0a 5f 05 0c 	addl	%edi, 201678602(,%rax)
     3ec:	77 05 	ja	5 <video.c+0x3f3>
     3ee:	01 4b 31 	addl	%ecx, 49(%rbx)
     3f1:	05 11 08 13 05 	addl	$85133329, %eax
     3f6:	05 74 05 11 30 	addl	$806421876, %eax
     3fb:	05 0c c8 05 14 	addl	$335923212, %eax
     400:	5a 	popq	%rdx
     401:	05 2b 00 02 04 	addl	$67239979, %eax
     406:	02 b6 05 1c 00 02 	addb	33561605(%rsi), %dh
     40c:	04 01 	addb	$1, %al
     40e:	4a 05 1a 00 02 04 	addq	$67239962, %rax
     414:	01 ba 05 0c 5f 05 	addl	%edi, 90115077(%rdx)
     41a:	01 59 31 	addl	%ebx, 49(%rcx)
     41d:	05 11 08 3d 05 	addl	$87885841, %eax
     422:	05 74 05 11 30 	addl	$806421876, %eax
     427:	05 0c c8 05 14 	addl	$335923212, %eax
     42c:	5a 	popq	%rdx
     42d:	05 44 00 02 04 	addl	$67240004, %eax
     432:	02 b6 05 1d 00 02 	addb	33561861(%rsi), %dh
     438:	04 01 	addb	$1, %al
     43a:	4a 05 2a 00 02 04 	addq	$67239978, %rax
     440:	01 ba 05 18 00 02 	addl	%edi, 33560581(%rdx)
     446:	04 01 	addb	$1, %al
     448:	90 	nop
     449:	00 02 	addb	%al, (%rdx)
     44b:	04 03 	addb	$3, %al
     44d:	06  <unknown>
     44e:	58 	popq	%rax
     44f:	05 35 00 02 04 	addl	$67239989, %eax
     454:	04 06 	addb	$6, %al
     456:	90 	nop
     457:	05 18 00 02 04 	addl	$67239960, %eax
     45c:	04 ba 	addb	$-70, %al
     45e:	00 02 	addb	%al, (%rdx)
     460:	04 06 	addb	$6, %al
     462:	06  <unknown>
     463:	58 	popq	%rax
     464:	05 0c 06 51 05 	addl	$89196044, %eax
     469:	01 59 31 	addl	%ebx, 49(%rcx)
     46c:	05 0b 08 13 05 	addl	$85133323, %eax
     471:	11 83 05 05 74 05 	adcl	%eax, 91489541(%rbx)
     477:	11 30 	adcl	%esi, (%rax)
     479:	05 0c c8 05 13 	addl	$319145996, %eax
     47e:	5a 	popq	%rdx
     47f:	05 11 3c 05 2b 	addl	$721763345, %eax
     484:	00 02 	addb	%al, (%rdx)
     486:	04 02 	addb	$2, %al
     488:	a8 05 	testb	$5, %al
     48a:	1c 00 	sbbb	$0, %al
     48c:	02 04 01 	addb	(%rcx,%rax), %al
     48f:	4a 05 1a 00 02 04 	addq	$67239962, %rax
     495:	01 ba 05 0c 5f 05 	addl	%edi, 90115077(%rdx)
     49b:	01 4b 31 	addl	%ecx, 49(%rbx)
     49e:	05 11 f3 05 05 	addl	$84275985, %eax
     4a3:	74 05 	je	5 <video.c+0x4aa>
     4a5:	0d 30 05 0c 08 	orl	$135005488, %eax
     4aa:	82  <unknown>
     4ab:	05 19 4b 05 2b 	addl	$721767193, %eax
     4b0:	00 02 	addb	%al, (%rdx)
     4b2:	04 02 	addb	$2, %al
     4b4:	b7 05 	movb	$5, %bh
     4b6:	1c 00 	sbbb	$0, %al
     4b8:	02 04 01 	addb	(%rcx,%rax), %al
     4bb:	4a 05 1a 00 02 04 	addq	$67239962, %rax
     4c1:	01 ba 05 0c 5d 05 	addl	%edi, 89984005(%rdx)
     4c7:	01 59 31 	addl	%ebx, 49(%rcx)
     4ca:	05 11 08 2f 05 	addl	$86968337, %eax
     4cf:	05 74 05 0d 30 	addl	$806159732, %eax
     4d4:	05 0c 08 82 05 	addl	$92407820, %eax
     4d9:	19 4b 05 	sbbl	%ecx, 5(%rbx)
     4dc:	44 00 02 	addb	%r8b, (%rdx)
     4df:	04 02 	addb	$2, %al
     4e1:	b7 05 	movb	$5, %bh
     4e3:	1d 00 02 04 01 	sbbl	$17039872, %eax
     4e8:	4a 05 2a 00 02 04 	addq	$67239978, %rax
     4ee:	01 ba 05 18 00 02 	addl	%edi, 33560581(%rdx)
     4f4:	04 01 	addb	$1, %al
     4f6:	90 	nop
     4f7:	00 02 	addb	%al, (%rdx)
     4f9:	04 03 	addb	$3, %al
     4fb:	06  <unknown>
     4fc:	58 	popq	%rax
     4fd:	05 35 00 02 04 	addl	$67239989, %eax
     502:	04 06 	addb	$6, %al
     504:	90 	nop
     505:	05 18 00 02 04 	addl	$67239960, %eax
     50a:	04 ba 	addb	$-70, %al
     50c:	00 02 	addb	%al, (%rdx)
     50e:	04 06 	addb	$6, %al
     510:	06  <unknown>
     511:	58 	popq	%rax
     512:	05 0c 06 4f 05 	addl	$89064972, %eax
     517:	01 59 31 	addl	%ebx, 49(%rcx)
     51a:	05 08 bc 05 10 	addl	$268811272, %eax
     51f:	76 05 	jbe	5 <video.c+0x526>
     521:	0b 78 86 	orl	-122(%rax), %edi
     524:	05 11 30 05 0f 	addl	$251998225, %eax
     529:	74 05 	je	5 <video.c+0x530>
     52b:	0d 67 05 0c 59 	orl	$1493960039, %eax
     530:	54 	pushq	%rsp
     531:	05 11 74 05 0b 	addl	$184906769, %eax
     536:	52 	pushq	%rdx
     537:	05 0c 77 05 01 	addl	$17135372, %eax
     53c:	4b 31 05 0c e7 05 05 	xorq	%rax, 84272908(%rip)
     543:	74 05 	je	5 <video.c+0x54a>
     545:	16  <unknown>
     546:	00 02 	addb	%al, (%rdx)
     548:	04 04 	addb	$4, %al
     54a:	2f  <unknown>
     54b:	05 0d 00 02 04 	addl	$67239949, %eax
     550:	04 9e 	addb	$-98, %al
     552:	05 16 00 02 04 	addl	$67239958, %eax
     557:	04 9e 	addb	$-98, %al
     559:	05 11 00 02 04 	addl	$67239953, %eax
     55e:	04 3c 	addb	$60, %al
     560:	05 2b 00 02 04 	addl	$67239979, %eax
     565:	04 2d 	addb	$45, %al
     567:	05 17 00 02 04 	addl	$67239959, %eax
     56c:	01 4a 05 	addl	%ecx, 5(%rdx)
     56f:	1d 00 02 04 03 	sbbl	$50594304, %eax
     574:	82  <unknown>
     575:	05 17 00 02 04 	addl	$67239959, %eax
     57a:	03 c8 	addl	%eax, %ecx
     57c:	05 05 4c 05 0d 	addl	$218450949, %eax
     581:	00 02 	addb	%al, (%rdx)
     583:	04 02 	addb	$2, %al
     585:	2f  <unknown>
     586:	05 11 00 02 04 	addl	$67239953, %eax
     58b:	02 9e 05 14 00 02 	addb	33559557(%rsi), %bl
     591:	04 02 	addb	$2, %al
     593:	3b 05 0e 00 02 04 	cmpl	67239950(%rip), %eax
     599:	01 4a 05 	addl	%ecx, 5(%rdx)
     59c:	0c 85 	orb	$-123, %al
     59e:	05 01 4b 31 05 	addl	$87116545, %eax
     5a3:	1a f3 	sbbb	%bl, %dh
     5a5:	05 14 83 05 0b 	addl	$184910612, %eax
     5aa:	83 05 14 30 05 0c ba 	addl	$-70, 201666580(%rip)
     5b1:	05 11 ba 05 0f 	addl	$252033553, %eax
     5b6:	3c 2c 	cmpb	$44, %al
     5b8:	05 0c ba 05 01 	addl	$17152524, %eax
     5bd:	5c 	popq	%rsp
     5be:	4d 05 14 08 13 05 	addq	$85133332, %rax
     5c4:	0b 83 05 0e 30 05 	orl	87035397(%rbx), %eax
     5ca:	11 ba 05 0f 64 05 	adcl	%edi, 90443525(%rdx)
     5d0:	0c ba 	orb	$-70, %al
     5d2:	05 01 5c 4d 05 	addl	$88955905, %eax
     5d7:	14 f3 	adcb	$-13, %al
     5d9:	83 05 08 83 05 0f a0 	addl	$-96, 252019464(%rip)
     5e0:	05 18 30 05 10 	addl	$268775448, %eax
     5e5:	ba 05 15 ba 05 	movl	$96081157, %edx
     5ea:	13 3c 2c 	adcl	(%rsp,%rbp), %edi
     5ed:	05 10 ba 05 01 	addl	$17152528, %eax
     5f2:	03 0e 	addl	(%rsi), %ecx
     5f4:	58 	popq	%rax
     5f5:	05 23 03 79 2e 	addl	$779682595, %eax
     5fa:	05 18 82 05 23 	addl	$587563544, %eax
     5ff:	ad 	lodsl	(%rsi), %eax
     600:	05 18 82 05 0f 	addl	$252019224, %eax
     605:	ad 	lodsl	(%rsi), %eax
     606:	05 1e 30 05 13 	addl	$319107102, %eax
     60b:	ba 05 18 ba 05 	movl	$96081925, %edx
     610:	16  <unknown>
     611:	3c 05 	cmpb	$5, %al
     613:	13 2c 05 10 ba 05 01 	adcl	17152528(,%rax), %ebp
     61a:	5d 	popq	%rbp
     61b:	3f  <unknown>
     61c:	05 1a f3 83 05 	addl	$92533530, %eax
     621:	0b 83 05 10 30 05 	orl	87035909(%rbx), %eax
     627:	0d ba 05 19 3c 	orl	$1008272826, %eax
     62c:	05 16 ba 05 0c 	addl	$201701910, %eax
     631:	3c 05 	cmpb	$5, %al
     633:	16  <unknown>
     634:	4c 05 1f ac 05 29 	addq	$688237599, %rax
     63a:	ac 	lodsb	(%rsi), %al
     63b:	00 02 	addb	%al, (%rdx)
     63d:	04 01 	addb	$1, %al
     63f:	06  <unknown>
     640:	4a 00 02 	addb	%al, (%rdx)
     643:	04 02 	addb	$2, %al
     645:	74 05 	je	5 <video.c+0x64c>
     647:	0f 06 	clts
     649:	70 05 	jo	5 <video.c+0x650>
     64b:	0c ba 	orb	$-70, %al
     64d:	5f 	popq	%rdi
     64e:	05 01 59 02 02 	addl	$33708289, %eax
     653:	00 01 	addb	%al, (%rcx)
     655:	01 73 01 	addl	%esi, 1(%rbx)
     658:	00 00 	addb	%al, (%rax)
     65a:	05 00 08 00 3c 	addl	$1006635008, %eax
     65f:	00 00 	addb	%al, (%rax)
     661:	00 01 	addb	%al, (%rcx)
     663:	01 01 	addl	%eax, (%rcx)
     665:	fb 	sti
     666:	0e  <unknown>
     667:	0d 00 01 01 01 	orl	$16843008, %eax
     66c:	01 00 	addl	%eax, (%rax)
     66e:	00 00 	addb	%al, (%rax)
     670:	01 00 	addl	%eax, (%rax)
     672:	00 01 	addb	%al, (%rcx)
     674:	01 01 	addl	%eax, (%rcx)
     676:	1f  <unknown>
     677:	03 19 	addl	(%rcx), %ebx
     679:	00 00 	addb	%al, (%rax)
     67b:	00 35 02 00 00 47 	addb	%dh, 1191182338(%rip)
     681:	02 00 	addb	(%rax), %al
     683:	00 02 	addb	%al, (%rdx)
     685:	01 1f 	addl	%ebx, (%rdi)
     687:	02 0f 	addb	(%rdi), %cl
     689:	04 1a 	addb	$26, %al
     68b:	02 00 	addb	(%rax), %al
     68d:	00 00 	addb	%al, (%rax)
     68f:	2c 02 	subb	$2, %al
     691:	00 00 	addb	%al, (%rax)
     693:	01 46 01 	addl	%eax, 1(%rsi)
     696:	00 00 	addb	%al, (%rax)
     698:	02 56 01 	addb	1(%rsi), %dl
     69b:	00 00 	addb	%al, (%rax)
     69d:	01 05 01 00 09 02 	addl	%eax, 34144257(%rip)
     6a3:	0c 0a 	orb	$10, %al
     6a5:	01 00 	addl	%eax, (%rax)
     6a7:	00 00 	addb	%al, (%rax)
     6a9:	00 00 	addb	%al, (%rax)
     6ab:	18 05 19 9f 05 01 	sbbb	%al, 17145625(%rip)
     6b1:	ad 	lodsl	(%rsi), %eax
     6b2:	3f  <unknown>
     6b3:	05 0e 4b 05 38 	addl	$939870990, %eax
     6b8:	83 05 0e e4 05 13 59 	addl	$89, 319153166(%rip)
     6bf:	05 05 82 05 46 	addl	$1174766085, %eax
     6c4:	00 02 	addb	%al, (%rdx)
     6c6:	04 03 	addb	$3, %al
     6c8:	30 05 5f 00 02 04 	xorb	%al, 67240031(%rip)
     6ce:	03 9e 05 46 00 02 	addl	33572357(%rsi), %ebx
     6d4:	04 03 	addb	$3, %al
     6d6:	08 12 	orb	%dl, (%rdx)
     6d8:	05 18 00 02 04 	addl	$67239960, %eax
     6dd:	03 3c 05 17 00 02 04 	addl	67239959(,%rax), %edi
     6e4:	03 4b 05 	addl	5(%rbx), %ecx
     6e7:	0f 00 02 	sldtw	(%rdx)
     6ea:	04 03 	addb	$3, %al
     6ec:	82  <unknown>
     6ed:	05 26 00 02 04 	addl	$67239974, %eax
     6f2:	03 47 05 	addl	5(%rdi), %eax
     6f5:	1c 00 	sbbb	$0, %al
     6f7:	02 04 01 	addb	(%rcx,%rax), %al
     6fa:	58 	popq	%rax
     6fb:	05 0c 96 05 01 	addl	$17143308, %eax
     700:	4b 31 05 0e 4b 05 38 	xorq	%rax, 939870990(%rip)
     707:	83 05 0e e4 05 13 59 	addl	$89, 319153166(%rip)
     70e:	05 05 82 05 46 	addl	$1174766085, %eax
     713:	30 05 5f 9e 05 46 	xorb	%al, 1174773343(%rip)
     719:	08 12 	orb	%dl, (%rdx)
     71b:	05 18 3c 05 12 	addl	$302332952, %eax
     720:	4b 05 0c 74 05 26 	addq	$637891596, %rax
     726:	00 02 	addb	%al, (%rdx)
     728:	04 01 	addb	$1, %al
     72a:	58 	popq	%rax
     72b:	05 1e 00 02 04 	addl	$67239966, %eax
     730:	01 74 05 3a 	addl	%esi, 58(%rbp,%rax)
     734:	00 02 	addb	%al, (%rdx)
     736:	04 02 	addb	$2, %al
     738:	58 	popq	%rax
     739:	05 32 00 02 04 	addl	$67239986, %eax
     73e:	02 74 05 4e 	addb	78(%rbp,%rax), %dh
     742:	00 02 	addb	%al, (%rdx)
     744:	04 03 	addb	$3, %al
     746:	58 	popq	%rax
     747:	05 46 00 02 04 	addl	$67240006, %eax
     74c:	03 74 05 63 	addl	99(%rbp,%rax), %esi
     750:	00 02 	addb	%al, (%rdx)
     752:	04 04 	addb	$4, %al
     754:	4a 05 5b 00 02 04 	addq	$67240027, %rax
     75a:	04 74 	addb	$116, %al
     75c:	05 1b 59 05 13 	addl	$319117595, %eax
     761:	82  <unknown>
     762:	05 26 00 02 04 	addl	$67239974, %eax
     767:	02 46 05 	addb	5(%rsi), %al
     76a:	1c 00 	sbbb	$0, %al
     76c:	02 04 01 	addb	(%rcx,%rax), %al
     76f:	58 	popq	%rax
     770:	05 0c 97 05 01 	addl	$17143564, %eax
     775:	4b 31 05 12 83 05 75 	xorq	%rax, 1963295506(%rip)
     77c:	74 05 	je	5 <video.c+0x783>
     77e:	26 00 02 	addb	%al, %es:(%rdx)
     781:	04 01 	addb	$1, %al
     783:	58 	popq	%rax
     784:	05 1e 00 02 04 	addl	$67239966, %eax
     789:	01 74 05 3a 	addl	%esi, 58(%rbp,%rax)
     78d:	00 02 	addb	%al, (%rdx)
     78f:	04 03 	addb	$3, %al
     791:	58 	popq	%rax
     792:	05 32 00 02 04 	addl	$67239986, %eax
     797:	03 74 05 4e 	addl	78(%rbp,%rax), %esi
     79b:	00 02 	addb	%al, (%rdx)
     79d:	04 05 	addb	$5, %al
     79f:	58 	popq	%rax
     7a0:	05 46 00 02 04 	addl	$67240006, %eax
     7a5:	05 74 05 63 00 	addl	$6489460, %eax
     7aa:	02 04 07 	addb	(%rdi,%rax), %al
     7ad:	4a 05 75 00 02 04 	addq	$67240053, %rax
     7b3:	07  <unknown>
     7b4:	74 00 	je	0 <video.c+0x7b6>
     7b6:	02 04 09 	addb	(%rcx,%rcx), %al
     7b9:	06  <unknown>
     7ba:	58 	popq	%rax
     7bb:	00 02 	addb	%al, (%rdx)
     7bd:	04 0a 	addb	$10, %al
     7bf:	74 05 	je	5 <video.c+0x7c6>
     7c1:	01 00 	addl	%eax, (%rax)
     7c3:	02 04 0c 	addb	(%rsp,%rcx), %al
     7c6:	06  <unknown>
     7c7:	59 	popq	%rcx
     7c8:	02 02 	addb	(%rdx), %al
     7ca:	00 01 	addb	%al, (%rcx)
     7cc:	01 01 	addl	%eax, (%rcx)
     7ce:	01 00 	addl	%eax, (%rax)
     7d0:	00 05 00 08 00 3c 	addb	%al, 1006635008(%rip)
     7d6:	00 00 	addb	%al, (%rax)
     7d8:	00 01 	addb	%al, (%rcx)
     7da:	01 01 	addl	%eax, (%rcx)
     7dc:	fb 	sti
     7dd:	0e  <unknown>
     7de:	0d 00 01 01 01 	orl	$16843008, %eax
     7e3:	01 00 	addl	%eax, (%rax)
     7e5:	00 00 	addb	%al, (%rax)
     7e7:	01 00 	addl	%eax, (%rax)
     7e9:	00 01 	addb	%al, (%rcx)
     7eb:	01 01 	addl	%eax, (%rcx)
     7ed:	1f  <unknown>
     7ee:	03 19 	addl	(%rcx), %ebx
     7f0:	00 00 	addb	%al, (%rax)
     7f2:	00 82 02 00 00 99 	addb	%al, -1728053246(%rdx)
     7f8:	02 00 	addb	(%rax), %al
     7fa:	00 02 	addb	%al, (%rdx)
     7fc:	01 1f 	addl	%ebx, (%rdi)
     7fe:	02 0f 	addb	(%rdi), %cl
     800:	04 62 	addb	$98, %al
     802:	02 00 	addb	(%rax), %al
     804:	00 00 	addb	%al, (%rax)
     806:	79 02 	jns	2 <video.c+0x80a>
     808:	00 00 	addb	%al, (%rax)
     80a:	01 b9 02 00 00 01 	addl	%edi, 16777218(%rcx)
     810:	46 01 00 	addl	%r8d, (%rax)
     813:	00 02 	addb	%al, (%rdx)
     815:	05 01 00 09 02 	addl	$34144257, %eax
     81a:	88 0b 	movb	%cl, (%rbx)
     81c:	01 00 	addl	%eax, (%rax)
     81e:	00 00 	addb	%al, (%rax)
     820:	00 00 	addb	%al, (%rax)
     822:	19 05 13 08 91 bb 	sbbl	%eax, -1148123117(%rip)
     828:	ad 	lodsl	(%rsi), %eax
     829:	05 1a 4a 05 20 	addl	$537217562, %eax
     82e:	d6  <unknown>
     82f:	05 27 2e 05 20 	addl	$537210407, %eax
     834:	e4 05 	inb	$5, %al
     836:	01 2f 	addl	%ebp, (%rdi)
     838:	69 05 13 02 22 14 bb 05 08 ae 	imull	$2919761339, 337773075(%rip), %eax
     842:	05 0f 68 05 1c 	addl	$470116367, %eax
     847:	4a 05 24 d6 05 0f 	addq	$252040740, %rax
     84d:	08 20 	orb	%ah, (%rax)
     84f:	05 1c 4a 05 01 	addl	$17123868, %eax
     854:	08 18 	orb	%bl, (%rax)
     856:	05 0f 2c 05 1c 	addl	$470101007, %eax
     85b:	4a 05 25 d6 05 1f 	addq	$520476197, %rax
     861:	e4 05 	inb	$5, %al
     863:	0f 58 05 1c 4a 05 01 	addps	17123868(%rip), %xmm0
     86a:	08 14 3f 	orb	%dl, (%rdi,%rdi)
     86d:	05 0c 08 4c 05 	addl	$88868876, %eax
     872:	05 74 05 13 30 	addl	$806552948, %eax
     877:	05 1a 4a 05 0c 	addl	$201673242, %eax
     87c:	c8 05 14 68 	enter	$5125, $104
     880:	05 0d 74 05 2c 	addl	$738554893, %eax
     885:	30 05 1f d6 05 1d 	xorb	%al, 486921759(%rip)
     88b:	67 05 24 4a 05 28 	addl	$671435300, %eax
     891:	c8 05 14 4a 	enter	$5125, $74
     895:	05 22 5a 05 26 	addl	$637884962, %eax
     89a:	82  <unknown>
     89b:	05 22 00 02 04 	addl	$67239970, %eax
     8a0:	02 8b 05 1b 00 02 	addb	33561349(%rbx), %cl
     8a6:	04 01 	addb	$1, %al
     8a8:	4a 05 23 00 02 04 	addq	$67239971, %rax
     8ae:	02 62 05 	addb	5(%rdx), %ah
     8b1:	13 00 	adcl	(%rax), %eax
     8b3:	02 04 01 	addb	(%rcx,%rax), %al
     8b6:	4a 05 1b 00 02 04 	addq	$67239963, %rax
     8bc:	01 3c 05 13 00 02 04 	addl	%edi, 67239955(,%rax)
     8c3:	01 4a 05 	addl	%ecx, 5(%rdx)
     8c6:	0c 03 	orb	$3, %al
     8c8:	0f 58 05 01 75 02 02 	addps	33715457(%rip), %xmm0
     8cf:	00 01 	addb	%al, (%rcx)
     8d1:	01 63 01 	addl	%esp, 1(%rbx)
     8d4:	00 00 	addb	%al, (%rax)
     8d6:	05 00 08 00 57 	addl	$1459619840, %eax
     8db:	00 00 	addb	%al, (%rax)
     8dd:	00 01 	addb	%al, (%rcx)
     8df:	01 01 	addl	%eax, (%rcx)
     8e1:	fb 	sti
     8e2:	0e  <unknown>
     8e3:	0d 00 01 01 01 	orl	$16843008, %eax
     8e8:	01 00 	addl	%eax, (%rax)
     8ea:	00 00 	addb	%al, (%rax)
     8ec:	01 00 	addl	%eax, (%rax)
     8ee:	00 01 	addb	%al, (%rcx)
     8f0:	01 01 	addl	%eax, (%rcx)
     8f2:	1f  <unknown>
     8f3:	06  <unknown>
     8f4:	19 00 	sbbl	%eax, (%rax)
     8f6:	00 00 	addb	%al, (%rax)
     8f8:	de 02 	fiadds	(%rdx)
     8fa:	00 00 	addb	%al, (%rax)
     8fc:	f4 	hlt
     8fd:	02 00 	addb	(%rax), %al
     8ff:	00 16 	addb	%dl, (%rsi)
     901:	03 00 	addl	(%rax), %eax
     903:	00 3e 	addb	%bh, (%rsi)
     905:	03 00 	addl	(%rax), %eax
     907:	00 70 03 	addb	%dh, 3(%rax)
     90a:	00 00 	addb	%al, (%rax)
     90c:	02 01 	addb	(%rcx), %al
     90e:	1f  <unknown>
     90f:	02 0f 	addb	(%rdi), %cl
     911:	07  <unknown>
     912:	c2 02 00 	retq	$2
     915:	00 00 	addb	%al, (%rax)
     917:	d8 02 	fadds	(%rdx)
     919:	00 00 	addb	%al, (%rax)
     91b:	01 46 01 	addl	%eax, 1(%rsi)
     91e:	00 00 	addb	%al, (%rax)
     920:	02 b9 02 00 00 03 	addb	50331650(%rcx), %bh
     926:	83 01 00 	addl	$0, (%rcx)
     929:	00 01 	addb	%al, (%rcx)
     92b:	89 01 	movl	%eax, (%rcx)
     92d:	00 00 	addb	%al, (%rax)
     92f:	04 56 	addb	$86, %al
     931:	01 00 	addl	%eax, (%rax)
     933:	00 05 05 01 00 09 	addb	%al, 150995205(%rip)
     939:	02 3c 0d 01 00 00 00 	addb	1(,%rcx), %bh
     940:	00 00 	addb	%al, (%rax)
     942:	19 05 29 bb 05 3e 	sbbl	%eax, 1040562985(%rip)
     948:	ba 05 1f 66 75 	movl	$1969626885, %edx
     94d:	05 31 9e 05 1d 	addl	$486907441, %eax
     952:	4a 05 05 76 05 1e 	addq	$503674373, %rax
     958:	74 05 	je	5 <video.c+0x95f>
     95a:	05 74 05 2e ca 	addl	$3392013684, %eax
     95f:	05 05 9f 05 01 	addl	$17145605, %eax
     964:	e5 3f 	inl	$63, %eax
     966:	05 32 f3 05 08 	addl	$134607666, %eax
     96b:	66 05 13 4d 	addw	$19731, %ax
     96f:	05 05 82 05 2f 	addl	$788890117, %eax
     974:	00 02 	addb	%al, (%rdx)
     976:	04 03 	addb	$3, %al
     978:	30 05 19 00 02 04 	xorb	%al, 67239961(%rip)
     97e:	03 ac 05 12 00 02 04 	addl	67239954(%rbp,%rax), %ebp
     985:	03 4a 05 	addl	5(%rdx), %ecx
     988:	2c 00 	subb	$0, %al
     98a:	02 04 03 	addb	(%rbx,%rax), %al
     98d:	76 05 	jbe	5 <video.c+0x994>
     98f:	09 00 	orl	%eax, (%rax)
     991:	02 04 03 	addb	(%rbx,%rax), %al
     994:	ac 	lodsb	(%rsi), %al
     995:	05 2a 00 02 04 	addl	$67239978, %eax
     99a:	03 08 	addl	(%rax), %ecx
     99c:	c4 05 1c  <unknown>
     99f:	00 02 	addb	%al, (%rdx)
     9a1:	04 01 	addb	$1, %al
     9a3:	58 	popq	%rax
     9a4:	05 09 b8 05 01 	addl	$17152009, %eax
     9a9:	28 31 	subb	%dh, (%rcx)
     9ab:	05 32 f3 05 08 	addl	$134607666, %eax
     9b0:	66 05 13 4d 	addw	$19731, %ax
     9b4:	05 05 82 05 2f 	addl	$788890117, %eax
     9b9:	00 02 	addb	%al, (%rdx)
     9bb:	04 03 	addb	$3, %al
     9bd:	30 05 19 00 02 04 	xorb	%al, 67239961(%rip)
     9c3:	03 ac 05 12 00 02 04 	addl	67239954(%rbp,%rax), %ebp
     9ca:	03 4a 05 	addl	5(%rdx), %ecx
     9cd:	2c 00 	subb	$0, %al
     9cf:	02 04 03 	addb	(%rbx,%rax), %al
     9d2:	76 05 	jbe	5 <video.c+0x9d9>
     9d4:	09 00 	orl	%eax, (%rax)
     9d6:	02 04 03 	addb	(%rbx,%rax), %al
     9d9:	ac 	lodsb	(%rsi), %al
     9da:	05 2a 00 02 04 	addl	$67239978, %eax
     9df:	03 08 	addl	(%rax), %ecx
     9e1:	c4 05 1c  <unknown>
     9e4:	00 02 	addb	%al, (%rdx)
     9e6:	04 01 	addb	$1, %al
     9e8:	58 	popq	%rax
     9e9:	05 09 b8 05 01 	addl	$17152009, %eax
     9ee:	28 31 	subb	%dh, (%rcx)
     9f0:	05 32 bb 05 08 	addl	$134593330, %eax
     9f5:	66 05 10 4b 	addw	$19216, %ax
     9f9:	05 0c 76 05 01 	addl	$17135116, %eax
     9fe:	08 bb 31 05 32 4b 	orb	%bh, 1261569329(%rbx)
     a04:	05 08 66 05 10 	addl	$268789256, %eax
     a09:	4b 05 0c 76 05 01 	addq	$17135116, %rax
     a0f:	08 83 31 05 32 83 	orb	%al, -2093873871(%rbx)
     a15:	05 08 66 05 10 	addl	$268789256, %eax
     a1a:	4b 05 16 76 05 08 	addq	$134575638, %rax
     a20:	d8 05 0f 00 02 04 	fadds	67239951(%rip)
     a26:	01 76 05 	addl	%esi, 5(%rsi)
     a29:	21 32 	andl	%esi, (%rdx)
     a2b:	05 05 82 05 1c 	addl	$470123013, %eax
     a30:	c9 	leave
     a31:	05 01 83 02 02 	addl	$33719041, %eax
     a36:	00 01 	addb	%al, (%rcx)
     a38:	01 ba 00 00 00 05 	addl	%edi, 83886080(%rdx)
     a3e:	00 08 	addb	%cl, (%rax)
     a40:	00 3c 00 	addb	%bh, (%rax,%rax)
     a43:	00 00 	addb	%al, (%rax)
     a45:	01 01 	addl	%eax, (%rcx)
     a47:	01 fb 	addl	%edi, %ebx
     a49:	0e  <unknown>
     a4a:	0d 00 01 01 01 	orl	$16843008, %eax
     a4f:	01 00 	addl	%eax, (%rax)
     a51:	00 00 	addb	%al, (%rax)
     a53:	01 00 	addl	%eax, (%rax)
     a55:	00 01 	addb	%al, (%rcx)
     a57:	01 01 	addl	%eax, (%rcx)
     a59:	1f  <unknown>
     a5a:	03 19 	addl	(%rcx), %ebx
     a5c:	00 00 	addb	%al, (%rax)
     a5e:	00 9e 03 00 00 ad 	addb	%bl, -1392508925(%rsi)
     a64:	03 00 	addl	(%rax), %eax
     a66:	00 02 	addb	%al, (%rdx)
     a68:	01 1f 	addl	%ebx, (%rdi)
     a6a:	02 0f 	addb	(%rdi), %cl
     a6c:	04 89 	addb	$-119, %al
     a6e:	03 00 	addl	(%rax), %eax
     a70:	00 00 	addb	%al, (%rax)
     a72:	98 	cwtl
     a73:	03 00 	addl	(%rax), %eax
     a75:	00 01 	addb	%al, (%rcx)
     a77:	46 01 00 	addl	%r8d, (%rax)
     a7a:	00 02 	addb	%al, (%rdx)
     a7c:	7d 01 	jge	1 <video.c+0xa7f>
     a7e:	00 00 	addb	%al, (%rax)
     a80:	01 05 01 00 09 02 	addl	%eax, 34144257(%rip)
     a86:	7a 0f 	jp	15 <video.c+0xa97>
     a88:	01 00 	addl	%eax, (%rax)
     a8a:	00 00 	addb	%al, (%rax)
     a8c:	00 00 	addb	%al, (%rax)
     a8e:	19 05 11 84 05 10 	sbbl	%eax, 268796945(%rip)
     a94:	83 05 05 68 02 2c 13 	addl	$19, 738355205(%rip)
     a9b:	02 2c 13 	addb	(%rbx,%rdx), %ch
     a9e:	02 2c 13 	addb	(%rbx,%rdx), %ch
     aa1:	02 2c 13 	addb	(%rbx,%rdx), %ch
     aa4:	02 2c 14 	addb	(%rsp,%rdx), %ch
     aa7:	05 01 bb 40 05 	addl	$88128257, %eax
     aac:	0b 02 	orl	(%rdx), %eax
     aae:	24 13 	andb	$19, %al
     ab0:	05 1d 08 2e 05 	addl	$86902813, %eax
     ab5:	28 83 05 0b ac 05 	subb	%al, 95161093(%rbx)
     abb:	20 08 	andb	%cl, (%rax)
     abd:	2e 05 26 3d 05 0b 	addl	$184892710, %eax
     ac3:	ac 	lodsb	(%rsi), %al
     ac4:	05 1e 08 2e 05 	addl	$86902814, %eax
     ac9:	0b 3e 	orl	(%rsi), %edi
     acb:	05 1e 08 2e 05 	addl	$86902814, %eax
     ad0:	28 67 05 	subb	%ah, 5(%rdi)
     ad3:	2f  <unknown>
     ad4:	66 05 0b 2e 	addw	$11787, %ax
     ad8:	05 2f 08 2e 05 	addl	$86902831, %eax
     add:	1f  <unknown>
     ade:	3c 3e 	cmpb	$62, %al
     ae0:	05 2e 08 82 05 	addl	$92407854, %eax
     ae5:	1f  <unknown>
     ae6:	74 05 	je	5 <video.c+0xaed>
     ae8:	0b 08 	orl	(%rax), %ecx
     aea:	75 05 	jne	5 <video.c+0xaf1>
     aec:	1b 08 	sbbl	(%rax), %ecx
     aee:	2e 05 01 75 02 03 	addl	$50492673, %eax
     af4:	00 01 	addb	%al, (%rcx)
     af6:	01 57 02 	addl	%edx, 2(%rdi)
     af9:	00 00 	addb	%al, (%rax)
     afb:	05 00 08 00 57 	addl	$1459619840, %eax
     b00:	00 00 	addb	%al, (%rax)
     b02:	00 01 	addb	%al, (%rcx)
     b04:	01 01 	addl	%eax, (%rcx)
     b06:	fb 	sti
     b07:	0e  <unknown>
     b08:	0d 00 01 01 01 	orl	$16843008, %eax
     b0d:	01 00 	addl	%eax, (%rax)
     b0f:	00 00 	addb	%al, (%rax)
     b11:	01 00 	addl	%eax, (%rax)
     b13:	00 01 	addb	%al, (%rcx)
     b15:	01 01 	addl	%eax, (%rcx)
     b17:	1f  <unknown>
     b18:	06  <unknown>
     b19:	19 00 	sbbl	%eax, (%rax)
     b1b:	00 00 	addb	%al, (%rax)
     b1d:	e4 03 	inb	$3, %al
     b1f:	00 00 	addb	%al, (%rax)
     b21:	fa 	cli
     b22:	03 00 	addl	(%rax), %eax
     b24:	00 1c 04 	addb	%bl, (%rsp,%rax)
     b27:	00 00 	addb	%al, (%rax)
     b29:	3e 04 00 	addb	$0, %al
     b2c:	00 77 04 	addb	%dh, 4(%rdi)
     b2f:	00 00 	addb	%al, (%rax)
     b31:	02 01 	addb	(%rcx), %al
     b33:	1f  <unknown>
     b34:	02 0f 	addb	(%rdi), %cl
     b36:	07  <unknown>
     b37:	c5 03 00  <unknown>
     b3a:	00 00 	addb	%al, (%rax)
     b3c:	db 03 	fildl	(%rbx)
     b3e:	00 00 	addb	%al, (%rax)
     b40:	01 46 01 	addl	%eax, 1(%rsi)
     b43:	00 00 	addb	%al, (%rax)
     b45:	02 74 01 00 	addb	(%rcx,%rax), %dh
     b49:	00 01 	addb	%al, (%rcx)
     b4b:	4e 01 00 	addq	%r8, (%rax)
     b4e:	00 03 	addb	%al, (%rbx)
     b50:	89 01 	movl	%eax, (%rcx)
     b52:	00 00 	addb	%al, (%rax)
     b54:	04 83 	addb	$-125, %al
     b56:	01 00 	addl	%eax, (%rax)
     b58:	00 05 05 01 00 09 	addb	%al, 150995205(%rip)
     b5e:	02 8b 11 01 00 00 	addb	273(%rbx), %cl
     b64:	00 00 	addb	%al, (%rax)
     b66:	00 03 	addb	%al, (%rbx)
     b68:	09 01 	orl	%eax, (%rcx)
     b6a:	05 24 84 05 05 	addl	$84247588, %eax
     b6f:	d7 	xlatb
     b70:	05 0e 08 14 05 	addl	$85198862, %eax
     b75:	1e  <unknown>
     b76:	82  <unknown>
     b77:	05 2f 82 05 05 	addl	$84247087, %eax
     b7c:	84 05 09 00 02 04 	testb	%al, 67239945(%rip)
     b82:	02 31 	addb	(%rcx), %dh
     b84:	05 1b 00 02 04 	addl	$67239963, %eax
     b89:	02 08 	addb	(%rax), %cl
     b8b:	7f 05 	jg	5 <video.c+0xb92>
     b8d:	29 00 	subl	%eax, (%rax)
     b8f:	02 04 02 	addb	(%rdx,%rax), %al
     b92:	82  <unknown>
     b93:	05 34 00 02 04 	addl	$67239988, %eax
     b98:	02 82 05 11 00 02 	addb	33558789(%rdx), %al
     b9e:	04 01 	addb	$1, %al
     ba0:	58 	popq	%rax
     ba1:	05 16 7a 05 0a 	addl	$168131094, %eax
     ba6:	66 05 35 66 	addw	$26165, %ax
     baa:	05 48 9e 05 3c 	addl	$1007001160, %eax
     baf:	9e 	sahf
     bb0:	05 5c 3c 05 50 	addl	$1342520412, %eax
     bb5:	9e 	sahf
     bb6:	05 61 3c 05 29 	addl	$688208993, %eax
     bbb:	ac 	lodsb	(%rsi), %al
     bbc:	05 69 66 05 05 	addl	$84239977, %eax
     bc1:	84 05 09 00 02 04 	testb	%al, 67239945(%rip)
     bc7:	02 31 	addb	(%rcx), %dh
     bc9:	05 1b 00 02 04 	addl	$67239963, %eax
     bce:	02 08 	addb	(%rax), %cl
     bd0:	7f 05 	jg	5 <video.c+0xbd7>
     bd2:	29 00 	subl	%eax, (%rax)
     bd4:	02 04 02 	addb	(%rdx,%rax), %al
     bd7:	82  <unknown>
     bd8:	05 34 00 02 04 	addl	$67239988, %eax
     bdd:	02 82 05 11 00 02 	addb	33558789(%rdx), %al
     be3:	04 01 	addb	$1, %al
     be5:	58 	popq	%rax
     be6:	05 05 7a 08 13 	addl	$319322629, %eax
     beb:	05 01 08 13 3f 	addl	$1058211841, %eax
     bf0:	05 0b 03 09 08 	addl	$134808331, %eax
     bf5:	66 05 15 59 	addw	$22805, %ax
     bf9:	05 0d 4a 05 0b 	addl	$184896013, %eax
     bfe:	83 05 15 59 05 0d 4a 	addl	$74, 218454293(%rip)
     c05:	05 0b 83 05 17 	addl	$386237195, %eax
     c0a:	59 	popq	%rcx
     c0b:	05 0f 4a 05 0b 	addl	$184896015, %eax
     c10:	83 05 17 59 05 0f 4a 	addl	$74, 252008727(%rip)
     c17:	05 21 85 05 08 	addl	$134579489, %eax
     c1c:	d6  <unknown>
     c1d:	05 10 84 05 09 	addl	$151356432, %eax
     c22:	d7 	xlatb
     c23:	05 2a 08 59 05 	addl	$89720874, %eax
     c28:	25 08 13 05 2d 	andl	$755307272, %eax
     c2d:	08 13 	orb	%dl, (%rbx)
     c2f:	05 3c 4a 05 2a 	addl	$704989756, %eax
     c34:	ba 05 29 02 6c 	movl	$1812080901, %edx
     c39:	17  <unknown>
     c3a:	05 32 02 36 12 	addl	$305529394, %eax
     c3f:	05 0e 58 05 21 	addl	$553998350, %eax
     c44:	4e 05 08 d6 05 15 	addq	$352704008, %rax
     c4a:	84 05 09 d7 05 2a 	testb	%al, 705025801(%rip)
     c50:	08 59 05 	orb	%bl, 5(%rcx)
     c53:	25 08 13 05 2d 	andl	$755307272, %eax
     c58:	08 13 	orb	%dl, (%rbx)
     c5a:	05 41 4a 05 2a 	addl	$704989761, %eax
     c5f:	ba 05 2e 02 6c 	movl	$1812082181, %edx
     c64:	17  <unknown>
     c65:	05 37 02 36 12 	addl	$305529399, %eax
     c6a:	05 13 58 05 24 	addl	$604330003, %eax
     c6f:	4e 05 08 d6 05 0e 	addq	$235263496, %rax
     c75:	84 05 09 d7 05 2d 	testb	%al, 755357449(%rip)
     c7b:	08 59 05 	orb	%bl, 5(%rcx)
     c7e:	28 08 	subb	%cl, (%rax)
     c80:	13 05 30 08 13 05 	adcl	85133360(%rip), %eax
     c86:	3d 4a 05 2d ba 	cmpl	$3123512650, %eax
     c8b:	05 2a 02 6c 17 	addl	$392954410, %eax
     c90:	05 33 02 36 12 	addl	$305529395, %eax
     c95:	05 0c 58 05 2a 	addl	$704993292, %eax
     c9a:	4d 05 22 66 05 2b 	addq	$721774114, %rax
     ca0:	08 75 05 	orb	%dh, 5(%rbp)
     ca3:	1d 82 05 32 08 	sbbl	$137495938, %eax
     ca8:	83 05 24 90 05 2c 08 	addl	$8, 738562084(%rip)
     caf:	bb 05 1e 90 05 	movl	$93330949, %ebx
     cb4:	2d 08 bb 05 1e 	subl	$503692040, %eax
     cb9:	90 	nop
     cba:	05 32 08 9f 05 	addl	$94308402, %eax
     cbf:	23 90 05 2f 08 9f 	andl	-1626853627(%rax), %edx
     cc5:	05 20 90 05 1f 	addl	$520458272, %eax
     cca:	08 9f 05 31 08 13 	orb	%bl, 319303941(%rdi)
     cd0:	05 21 90 05 23 	addl	$587567137, %eax
     cd5:	08 91 05 35 08 d7 	orb	%dl, -687327995(%rcx)
     cdb:	05 22 f2 05 3d 	addl	$1023799842, %eax
     ce0:	02 6a 14 	addb	20(%rdx), %ch
     ce3:	05 1f 02 36 12 	addl	$305529375, %eax
     ce8:	05 05 2e 05 01 	addl	$17116677, %eax
     ced:	08 13 	orb	%dl, (%rbx)
     cef:	3f  <unknown>
     cf0:	05 0b c0 05 0d 	addl	$218480651, %eax
     cf5:	59 	popq	%rcx
     cf6:	05 0b c9 05 0d 	addl	$218482955, %eax
     cfb:	59 	popq	%rcx
     cfc:	05 0b c9 05 0f 	addl	$252037387, %eax
     d01:	59 	popq	%rcx
     d02:	05 0b c9 05 0f 	addl	$252037387, %eax
     d07:	59 	popq	%rcx
     d08:	05 42 ca 05 4b 	addl	$1258670658, %eax
     d0d:	02 37 	addb	(%rdi), %dh
     d0f:	12 05 22 58 05 3b 	adcb	990205986(%rip), %al
     d15:	4b 05 44 02 37 12 	addq	$305594948, %rax
     d1b:	05 16 58 05 33 	addl	$855988246, %eax
     d20:	4b 05 3c 02 37 12 	addq	$305594940, %rax
     d26:	05 12 58 05 21 	addl	$553998354, %eax
     d2b:	4c 05 01 02 39 13 	addq	$322503169, %rax
     d31:	31 05 05 75 05 01 	xorl	%eax, 17134853(%rip)
     d37:	76 3f 	jbe	63 <video.c+0xd78>
     d39:	05 11 83 05 01 	addl	$17138449, %eax
     d3e:	ad 	lodsl	(%rsi), %eax
     d3f:	3e 05 0c 4b 05 01 	addl	$17124108, %eax
     d45:	75 31 	jne	49 <video.c+0xd78>
     d47:	05 05 84 05 01 	addl	$17138693, %eax
     d4c:	79 02 	jns	2 <video.c+0xd50>
     d4e:	03 00 	addl	(%rax), %eax
     d50:	01 01 	addl	%eax, (%rcx)
     d52:	21 03 	andl	%eax, (%rbx)
     d54:	00 00 	addb	%al, (%rax)
     d56:	05 00 08 00 53 	addl	$1392510976, %eax
     d5b:	00 00 	addb	%al, (%rax)
     d5d:	00 01 	addb	%al, (%rcx)
     d5f:	01 01 	addl	%eax, (%rcx)
     d61:	fb 	sti
     d62:	0e  <unknown>
     d63:	0d 00 01 01 01 	orl	$16843008, %eax
     d68:	01 00 	addl	%eax, (%rax)
     d6a:	00 00 	addb	%al, (%rax)
     d6c:	01 00 	addl	%eax, (%rax)
     d6e:	00 01 	addb	%al, (%rcx)
     d70:	01 01 	addl	%eax, (%rcx)
     d72:	1f  <unknown>
     d73:	05 19 00 00 00 	addl	$25, %eax
     d78:	e4 03 	inb	$3, %al
     d7a:	00 00 	addb	%al, (%rax)
     d7c:	fa 	cli
     d7d:	03 00 	addl	(%rax), %eax
     d7f:	00 b1 04 00 00 77 	addb	%dh, 1996488708(%rcx)
     d85:	04 00 	addb	$0, %al
     d87:	00 02 	addb	%al, (%rdx)
     d89:	01 1f 	addl	%ebx, (%rdi)
     d8b:	02 0f 	addb	(%rdi), %cl
     d8d:	07  <unknown>
     d8e:	94 	xchgl	%esp, %eax
     d8f:	04 00 	addb	$0, %al
     d91:	00 00 	addb	%al, (%rax)
     d93:	aa 	stosb	%al, %es:(%rdi)
     d94:	04 00 	addb	$0, %al
     d96:	00 01 	addb	%al, (%rcx)
     d98:	46 01 00 	addl	%r8d, (%rax)
     d9b:	00 02 	addb	%al, (%rdx)
     d9d:	67 01 00 	addl	%eax, (%eax)
     da0:	00 01 	addb	%al, (%rcx)
     da2:	74 01 	je	1 <video.c+0xda5>
     da4:	00 00 	addb	%al, (%rax)
     da6:	01 89 01 00 00 03 	addl	%ecx, 50331649(%rcx)
     dac:	83 01 00 	addl	$0, (%rcx)
     daf:	00 04 05 01 00 09 02 	addb	%al, 34144257(,%rax)
     db6:	eb 19 	jmp	25 <video.c+0xdd1>
     db8:	01 00 	addl	%eax, (%rax)
     dba:	00 00 	addb	%al, (%rax)
     dbc:	00 00 	addb	%al, (%rax)
     dbe:	1a 05 0e 08 14 05 	sbbb	85198862(%rip), %al
     dc4:	05 74 05 50 00 	addl	$5244276, %eax
     dc9:	02 04 03 	addb	(%rbx,%rax), %al
     dcc:	30 05 09 00 02 04 	xorb	%al, 67239945(%rip)
     dd2:	03 90 05 2f 00 02 	addl	33566469(%rax), %edx
     dd8:	04 03 	addb	$3, %al
     dda:	82  <unknown>
     ddb:	05 09 00 02 04 	addl	$67239945, %eax
     de0:	03 9e 05 20 00 02 	addl	33562629(%rsi), %ebx
     de6:	04 03 	addb	$3, %al
     de8:	08 8e 05 17 00 02 	orb	%cl, 33560325(%rsi)
     dee:	04 01 	addb	$1, %al
     df0:	4a 05 0d b1 05 1d 	addq	$486912269, %rax
     df6:	83 05 16 ac 05 1d 83 	addl	$-125, 486910998(%rip)
     dfd:	05 26 82 05 16 	addl	$369459750, %eax
     e02:	4a 05 24 84 05 12 	addq	$302351396, %rax
     e08:	82  <unknown>
     e09:	05 1b 4b 05 15 	addl	$352668443, %eax
     e0e:	75 ad 	jne	-83 <video.c+0xdbd>
     e10:	05 1c bb 05 11 	addl	$285588252, %eax
     e15:	ae 	scasb	%es:(%rdi), %al
     e16:	05 01 ad 77 05 	addl	$91729153, %eax
     e1b:	1d e5 05 30 74 	sbbl	$1949304293, %eax
     e20:	05 2a 82 05 0e 	addl	$235242026, %eax
     e25:	08 2e 	orb	%ch, (%rsi)
     e27:	05 2b 4b 05 05 	addl	$84233003, %eax
     e2c:	9e 	sahf
     e2d:	05 10 08 9f 05 	addl	$94308368, %eax
     e32:	01 08 	addl	%ecx, (%rax)
     e34:	67 3f  <unknown>
     e36:	05 15 bc 05 08 	addl	$134593557, %eax
     e3b:	74 05 	je	5 <video.c+0xe42>
     e3d:	10 59 05 	adcb	%bl, 5(%rcx)
     e40:	26 a0 05 17 74 05 05 74 05 0e 	movabsb	%es:1010341256329697029, %al
     e4a:	5a 	popq	%rdx
     e4b:	05 1b 74 05 0c 	addl	$201683995, %eax
     e50:	66 05 12 85 	addw	$34066, %ax
     e54:	05 10 82 05 1a 	addl	$436568592, %eax
     e59:	93 	xchgl	%ebx, %eax
     e5a:	05 20 bb 05 14 	addl	$335919904, %eax
     e5f:	ac 	lodsb	(%rsi), %al
     e60:	05 27 a1 05 52 	addl	$1376100647, %eax
     e65:	08 92 05 2d 90 05 	orb	%dl, 93334789(%rdx)
     e6b:	4f 4a  <unknown>
     e6d:	05 22 74 05 24 	addl	$604337186, %eax
     e72:	4b 05 2a c9 05 51 	addq	$1359333674, %rax
     e78:	08 21 	orb	%ah, (%rcx)
     e7a:	05 15 74 05 1c 	addl	$470119445, %eax
     e7f:	2e 05 2f 4a 05 15 	addl	$352668207, %eax
     e85:	4a 05 1d ca 05 25 	addq	$621136413, %rax
     e8b:	bc 05 38 4a 05 	movl	$88750085, %esp
     e90:	1c 4a 	sbbb	$74, %al
     e92:	05 1e 5c 05 15 	addl	$352672798, %eax
     e97:	74 05 	je	5 <video.c+0xe9e>
     e99:	19 00 	sbbl	%eax, (%rax)
     e9b:	02 04 03 	addb	(%rbx,%rax), %al
     e9e:	2f  <unknown>
     e9f:	05 59 00 02 04 	addl	$67240025, %eax
     ea4:	03 08 	addl	(%rax), %ecx
     ea6:	3b 05 27 00 02 04 	cmpl	67239975(%rip), %eax
     eac:	01 4a 05 	addl	%ecx, 5(%rdx)
     eaf:	4f 00 02 	addb	%r8b, (%r10)
     eb2:	04 01 	addb	$1, %al
     eb4:	58 	popq	%rax
     eb5:	05 27 00 02 04 	addl	$67239975, %eax
     eba:	01 82 5b 05 52 08 	addl	%eax, 139593051(%rdx)
     ec0:	92 	xchgl	%edx, %eax
     ec1:	05 2d 90 05 4f 	addl	$1325764653, %eax
     ec6:	4a 05 22 74 05 24 	addq	$604337186, %rax
     ecc:	4b 05 2a c9 05 51 	addq	$1359333674, %rax
     ed2:	08 22 	orb	%ah, (%rdx)
     ed4:	05 15 74 05 1c 	addl	$470119445, %eax
     ed9:	2e 05 2f 4a 05 15 	addl	$352668207, %eax
     edf:	4a 05 1d ca 05 25 	addq	$621136413, %rax
     ee5:	bc 05 38 4a 05 	movl	$88750085, %esp
     eea:	1c 4a 	sbbb	$74, %al
     eec:	05 12 03 0d 58 	addl	$1477247762, %eax
     ef1:	05 10 90 05 1f 	addl	$520458256, %eax
     ef6:	68 05 3f 08 22 	pushq	$570965765
     efb:	05 11 74 05 18 	addl	$403010577, %eax
     f00:	2e 05 24 4a 05 11 	addl	$285559332, %eax
     f06:	4a 05 18 c9 05 24 	addq	$604358936, %rax
     f0c:	4a 05 17 92 05 3c 	addq	$1006998039, %rax
     f12:	90 	nop
     f13:	05 15 82 05 29 	addl	$688226837, %eax
     f18:	92 	xchgl	%edx, %eax
     f19:	05 35 4a 05 3c 	addl	$1006979637, %eax
     f1e:	74 05 	je	5 <video.c+0xf25>
     f20:	1e  <unknown>
     f21:	4a 05 26 4b 05 24 	addq	$604326694, %rax
     f27:	75 05 	jne	5 <video.c+0xf2e>
     f29:	2c 74 	subb	$116, %al
     f2b:	05 33 66 05 20 	addl	$537224755, %eax
     f30:	3c 05 	cmpb	$5, %al
     f32:	23 75 05 	andl	5(%rbp), %esi
     f35:	20 82 05 19 83 bb 	andb	%al, -1149036283(%rdx)
     f3b:	05 1f c9 05 4d 	addl	$1292224799, %eax
     f40:	08 22 	orb	%ah, (%rdx)
     f42:	05 11 74 05 18 	addl	$403010577, %eax
     f47:	2e 05 2b 4a 05 11 	addl	$285559339, %eax
     f4d:	4a 05 35 c9 05 11 	addq	$285591861, %rax
     f53:	74 05 	je	5 <video.c+0xf5a>
     f55:	1a 2e 	sbbb	(%rsi), %ch
     f57:	05 11 9e 05 21 	addl	$554016273, %eax
     f5c:	c9 	leave
     f5d:	05 34 4a 05 18 	addl	$402999860, %eax
     f62:	4a 05 11 03 68 2e 	addq	$778568465, %rax
     f68:	03 1c 3c 	addl	(%rsp,%rdi), %ebx
     f6b:	05 39 00 02 04 	addl	$67239993, %eax
     f70:	02 03 	addb	(%rbx), %al
     f72:	b6 7f 	movb	$127, %dh
     f74:	20 05 34 00 02 04 	andb	%al, 67239988(%rip)
     f7a:	01 ba 05 0c 03 ce 	addl	%edi, -838661115(%rdx)
     f80:	00 ac 05 01 59 31 05 	addb	%ch, 87120129(%rbp,%rax)
     f87:	15 bb 05 08 74 	adcl	$1946682811, %eax
     f8c:	05 1a 00 02 04 	addl	$67239962, %eax
     f91:	01 90 05 09 b0 05 	addl	%edx, 95422725(%rax)
     f97:	19 74 05 26 	sbbl	%esi, 38(%rbp,%rax)
     f9b:	75 05 	jne	5 <video.c+0xfa2>
     f9d:	17  <unknown>
     f9e:	74 05 	je	5 <video.c+0xfa5>
     fa0:	05 74 05 0e 5b 	addl	$1527645556, %eax
     fa5:	05 1b 74 05 0c 	addl	$201683995, %eax
     faa:	66 05 2d 00 	addw	$45, %ax
     fae:	02 04 01 	addb	(%rcx,%rax), %al
     fb1:	82  <unknown>
     fb2:	05 28 00 02 04 	addl	$67239976, %eax
     fb7:	01 9e 05 10 a5 05 	addl	%ebx, 94703621(%rsi)
     fbd:	21 00 	andl	%eax, (%rax)
     fbf:	02 04 01 	addb	(%rcx,%rax), %al
     fc2:	66 05 1e 68 	addw	$26654, %ax
     fc6:	05 22 74 05 42 	addl	$1107653666, %eax
     fcb:	74 05 	je	5 <video.c+0xfd2>
     fcd:	48 82  <unknown>
     fcf:	05 3f 3c 05 1e 	addl	$503659583, %eax
     fd4:	2e 05 21 bb 05 27 	addl	$654687009, %eax
     fda:	82  <unknown>
     fdb:	05 1e 4a 05 1f 	addl	$520440350, %eax
     fe0:	83 05 3f 90 05 45 82 	addl	$-126, 1157992511(%rip)
     fe7:	05 3c 58 05 4c 	addl	$1275418684, %eax
     fec:	3c 05 	cmpb	$5, %al
     fee:	11 4a 05 	adcl	%ecx, 5(%rdx)
     ff1:	10 fc 	adcb	%bh, %ah
     ff3:	05 15 5e 05 1e 	addl	$503668245, %eax
     ff8:	68 05 22 74 05 	pushq	$91496965
     ffd:	1e  <unknown>
     ffe:	74 05 	je	5 <video.c+0x1005>
    1000:	21 bb 05 1e 82 05 	andl	%edi, 92413445(%rbx)
    1006:	1f  <unknown>
    1007:	83 05 26 90 05 11 4a 	addl	$74, 285577254(%rip)
    100e:	05 10 03 76 08 	addl	$141951760, %eax
    1013:	12 05 15 03 0c 58 	adcb	1477182229(%rip), %al
    1019:	05 19 68 05 1d 	addl	$486893593, %eax
    101e:	74 05 	je	5 <video.c+0x1025>
    1020:	23 82 05 19 3c 05 	andl	87824645(%rdx), %eax
    1026:	1c bb 	sbbb	$-69, %al
    1028:	05 22 82 05 19 	addl	$419791394, %eax
    102d:	4a 05 25 83 05 2b 	addq	$721781541, %rax
    1033:	82  <unknown>
    1034:	05 32 58 05 19 	addl	$419780658, %eax
    1039:	4a 05 11 82 05 10 	addq	$268796433, %rax
    103f:	03 70 c8 	addl	-56(%rax), %esi
    1042:	05 1f 03 14 2e 	addl	$773063455, %eax
    1047:	05 22 08 21 05 	addl	$86050850, %eax
    104c:	11 74 05 10 	adcl	%esi, 16(%rbp,%rax)
    1050:	03 6b 08 	addl	8(%rbx), %ebp
    1053:	2e 03 1c 20 	addl	%cs:(%rax,%riz), %ebx
    1057:	05 0d 9c 05 39 	addl	$956668941, %eax
    105c:	00 02 	addb	%al, (%rdx)
    105e:	04 02 	addb	$2, %al
    1060:	03 5c 20 05 	addl	5(%rax,%riz), %ebx
    1064:	34 00 	xorb	$0, %al
    1066:	02 04 01 	addb	(%rcx,%rax), %al
    1069:	ba 05 09 c4 05 	movl	$96733445, %edx
    106e:	01 03 	addl	%eax, (%rbx)
    1070:	2c 20 	subb	$32, %al
    1072:	02 02 	addb	(%rdx), %al
    1074:	00 01 	addb	%al, (%rcx)
    1076:	01 72 00 	addl	%esi, (%rdx)
    1079:	00 00 	addb	%al, (%rax)
    107b:	05 00 08 00 2e 	addl	$771753984, %eax
    1080:	00 00 	addb	%al, (%rax)
    1082:	00 01 	addb	%al, (%rcx)
    1084:	01 01 	addl	%eax, (%rcx)
    1086:	fb 	sti
    1087:	0e  <unknown>
    1088:	0d 00 01 01 01 	orl	$16843008, %eax
    108d:	01 00 	addl	%eax, (%rax)
    108f:	00 00 	addb	%al, (%rax)
    1091:	01 00 	addl	%eax, (%rax)
    1093:	00 01 	addb	%al, (%rcx)
    1095:	01 01 	addl	%eax, (%rcx)
    1097:	1f  <unknown>
    1098:	02 19 	addb	(%rcx), %bl
    109a:	00 00 	addb	%al, (%rax)
    109c:	00 e7 	addb	%ah, %bh
    109e:	04 00 	addb	$0, %al
    10a0:	00 02 	addb	%al, (%rdx)
    10a2:	01 1f 	addl	%ebx, (%rdi)
    10a4:	02 0f 	addb	(%rdi), %cl
    10a6:	02 d4 	addb	%ah, %dl
    10a8:	04 00 	addb	$0, %al
    10aa:	00 00 	addb	%al, (%rax)
    10ac:	e2 04 	loop	4
    10ae:	00 00 	addb	%al, (%rax)
    10b0:	01 05 01 00 09 02 	addl	%eax, 34144257(%rip)
    10b6:	20 20 	andb	%ah, (%rax)
    10b8:	01 00 	addl	%eax, (%rax)
    10ba:	00 00 	addb	%al, (%rax)
    10bc:	00 00 	addb	%al, (%rax)
    10be:	15 05 05 a0 05 	adcl	$94373125, %eax
    10c3:	0c a1 	orb	$-95, %al
    10c5:	05 01 4b 31 05 	addl	$87116545, %eax
    10ca:	05 08 14 05 01 	addl	$17110024, %eax
    10cf:	93 	xchgl	%ebx, %eax
    10d0:	3e 05 05 a0 05 0c 	addl	$201695237, %eax
    10d6:	bd 05 01 4b 30 	movl	$810221829, %ebp
    10db:	05 05 f3 05 01 	addl	$17167109, %eax
    10e0:	a1 3e 05 05 4b 05 01 75 02 	movabsl	177048882596087102, %eax
    10e9:	03 00 	addl	(%rax), %eax
    10eb:	01 01 	addl	%eax, (%rcx)
    10ed:	63  <unknown>
    10ee:	01 00 	addl	%eax, (%rax)
    10f0:	00 05 00 08 00 57 	addb	%al, 1459619840(%rip)
    10f6:	00 00 	addb	%al, (%rax)
    10f8:	00 01 	addb	%al, (%rcx)
    10fa:	01 01 	addl	%eax, (%rcx)
    10fc:	fb 	sti
    10fd:	0e  <unknown>
    10fe:	0d 00 01 01 01 	orl	$16843008, %eax
    1103:	01 00 	addl	%eax, (%rax)
    1105:	00 00 	addb	%al, (%rax)
    1107:	01 00 	addl	%eax, (%rax)
    1109:	00 01 	addb	%al, (%rcx)
    110b:	01 01 	addl	%eax, (%rcx)
    110d:	1f  <unknown>
    110e:	06  <unknown>
    110f:	19 00 	sbbl	%eax, (%rax)
    1111:	00 00 	addb	%al, (%rax)
    1113:	0a 05 00 00 19 05 	orb	85524480(%rip), %al
    1119:	00 00 	addb	%al, (%rax)
    111b:	31 05 00 00 4a 05 	xorl	%eax, 88735744(%rip)
    1121:	00 00 	addb	%al, (%rax)
    1123:	67 05 00 00 02 01 	addl	$16908288, %eax
    1129:	1f  <unknown>
    112a:	02 0f 	addb	(%rdi), %cl
    112c:	07  <unknown>
    112d:	f5 	cmc
    112e:	04 00 	addb	$0, %al
    1130:	00 00 	addb	%al, (%rax)
    1132:	04 05 	addb	$5, %al
    1134:	00 00 	addb	%al, (%rax)
    1136:	01 46 01 	addl	%eax, 1(%rsi)
    1139:	00 00 	addb	%al, (%rax)
    113b:	02 6e 01 	addb	1(%rsi), %ch
    113e:	00 00 	addb	%al, (%rax)
    1140:	01 89 01 00 00 03 	addl	%ecx, 50331649(%rcx)
    1146:	83 01 00 	addl	$0, (%rcx)
    1149:	00 04 7c 	addb	%al, (%rsp,%rdi,2)
    114c:	05 00 00 05 05 	addl	$84213760, %eax
    1151:	01 00 	addl	%eax, (%rax)
    1153:	09 02 	orl	%eax, (%rdx)
    1155:	9e 	sahf
    1156:	20 01 	andb	%al, (%rcx)
    1158:	00 00 	addb	%al, (%rax)
    115a:	00 00 	addb	%al, (%rax)
    115c:	00 03 	addb	%al, (%rbx)
    115e:	ff 00 	incl	(%rax)
    1160:	01 05 05 83 05 01 	addl	%eax, 17138437(%rip)
    1166:	75 41 	jne	65 <video.c+0x11a9>
    1168:	05 0f 08 30 05 	addl	$87033871, %eax
    116d:	23 08 	andl	(%rax), %ecx
    116f:	2e 05 0f 76 05 23 	addl	$587560463, %eax
    1175:	08 2e 	orb	%ch, (%rsi)
    1177:	05 26 59 05 4e 	addl	$1308973350, %eax
    117c:	74 05 	je	5 <video.c+0x1183>
    117e:	0f 58 05 24 08 2e 05 	addps	86902820(%rip), %xmm0
    1185:	26 4b 05 4e 66 05 0f 	addq	$252012110, %rax
    118c:	90 	nop
    118d:	05 24 08 2e 05 	addl	$86902820, %eax
    1192:	0f 4c 05 21 08 2e 05 	cmovll	86902817(%rip), %eax
    1199:	0f 84 05 1d 08 2e 	je	772283653 <_bss_end+0x2e06eea4>
    119f:	05 0f 4b 05 1e 	addl	$503663375, %eax
    11a4:	08 2e 	orb	%ch, (%rsi)
    11a6:	05 01 75 03 0d 	addl	$218330369, %eax
    11ab:	3c 05 	cmpb	$5, %al
    11ad:	0a 84 05 05 c9 05 0a 	orb	168151301(%rbp,%rax), %al
    11b4:	9f 	lahf
    11b5:	05 05 c9 a0 e5 	addl	$3852519685, %eax
    11ba:	9f 	lahf
    11bb:	e5 a0 	inl	$160, %eax
    11bd:	e5 9f 	inl	$159, %eax
    11bf:	e5 a0 	inl	$160, %eax
    11c1:	e5 9f 	inl	$159, %eax
    11c3:	e5 a0 	inl	$160, %eax
    11c5:	e5 9f 	inl	$159, %eax
    11c7:	e5 a0 	inl	$160, %eax
    11c9:	f3 9f 	rep		lahf
    11cb:	05 01 f3 3f 05 	addl	$88077057, %eax
    11d0:	12 83 05 10 9e 05 	adcb	94244869(%rbx), %al
    11d6:	15 75 05 16 91 	adcl	$2434139509, %eax
    11db:	05 05 d8 05 0e 	addl	$235264005, %eax
    11e0:	08 84 05 05 74 05 09 	orb	%al, 151352325(%rbp,%rax)
    11e7:	00 02 	addb	%al, (%rdx)
    11e9:	04 03 	addb	$3, %al
    11eb:	30 05 1f 00 02 04 	xorb	%al, 67239967(%rip)
    11f1:	03 08 	addl	(%rax), %ecx
    11f3:	80 05 17 00 02 04 01 	addb	$1, 67239959(%rip)
    11fa:	4a 05 05 95 08 ad 	addq	$-1391946491, %rax
    1200:	08 ad 08 ad 08 ad 	orb	%ch, -1391940344(%rbp)
    1206:	08 ad 08 ad 08 ad 	orb	%ch, -1391940344(%rbp)
    120c:	08 ad 08 ad 08 ad 	orb	%ch, -1391940344(%rbp)
    1212:	08 ad 08 ad 08 ad 	orb	%ch, -1391940344(%rbp)
    1218:	08 ad 08 ae 08 ad 	orb	%ch, -1391940088(%rbp)
    121e:	08 ad 08 ad 08 ad 	orb	%ch, -1391940344(%rbp)
    1224:	08 ae 08 af 08 ad 	orb	%ch, -1391939832(%rsi)
    122a:	08 ad 08 ad 08 ad 	orb	%ch, -1391940344(%rbp)
    1230:	08 ad 08 ad 08 ad 	orb	%ch, -1391940344(%rbp)
    1236:	08 ad 08 ad 08 ad 	orb	%ch, -1391940344(%rbp)
    123c:	08 ad 08 ad 08 ad 	orb	%ch, -1391940344(%rbp)
    1242:	08 ad 08 ad 08 ae 	orb	%ch, -1375163128(%rbp)
    1248:	a0 a0 e5 e8 05 01 21 02 03 	movabsb	216772020345038240, %al
    1251:	00 01 	addb	%al, (%rcx)
    1253:	01 2a 	addl	%ebp, (%rdx)
    1255:	01 00 	addl	%eax, (%rax)
    1257:	00 05 00 08 00 40 	addb	%al, 1073743872(%rip)
    125d:	00 00 	addb	%al, (%rax)
    125f:	00 01 	addb	%al, (%rcx)
    1261:	01 01 	addl	%eax, (%rcx)
    1263:	fb 	sti
    1264:	0e  <unknown>
    1265:	0d 00 01 01 01 	orl	$16843008, %eax
    126a:	01 00 	addl	%eax, (%rax)
    126c:	00 00 	addb	%al, (%rax)
    126e:	01 00 	addl	%eax, (%rax)
    1270:	00 01 	addb	%al, (%rcx)
    1272:	01 01 	addl	%eax, (%rcx)
    1274:	1f  <unknown>
    1275:	04 19 	addb	$25, %al
    1277:	00 00 	addb	%al, (%rax)
    1279:	00 9a 05 00 00 ad 	addb	%bl, -1392508923(%rdx)
    127f:	05 00 00 c3 05 	addl	$96665600, %eax
    1284:	00 00 	addb	%al, (%rax)
    1286:	02 01 	addb	(%rcx), %al
    1288:	1f  <unknown>
    1289:	02 0f 	addb	(%rdi), %cl
    128b:	04 81 	addb	$-127, %al
    128d:	05 00 00 00 94 	addl	$2483027968, %eax
    1292:	05 00 00 01 6e 	addl	$1845559296, %eax
    1297:	01 00 	addl	%eax, (%rax)
    1299:	00 02 	addb	%al, (%rdx)
    129b:	46 01 00 	addl	%r8d, (%rax)
    129e:	00 03 	addb	%al, (%rbx)
    12a0:	05 01 00 09 02 	addl	$34144257, %eax
    12a5:	72 27 	jb	39 <video.c+0x12ce>
    12a7:	01 00 	addl	%eax, (%rax)
    12a9:	00 00 	addb	%al, (%rax)
    12ab:	00 00 	addb	%al, (%rax)
    12ad:	15 05 0b 00 02 	adcl	$33557253, %eax
    12b2:	04 01 	addb	$1, %al
    12b4:	83 05 01 32 05 0b 00 	addl	$0, 184889857(%rip)
    12bb:	02 04 01 	addb	(%rcx,%rax), %al
    12be:	83 05 01 32 05 0b 00 	addl	$0, 184889857(%rip)
    12c5:	02 04 01 	addb	(%rcx,%rax), %al
    12c8:	83 05 01 32 05 0b 00 	addl	$0, 184889857(%rip)
    12cf:	02 04 01 	addb	(%rcx,%rax), %al
    12d2:	83 05 01 32 05 0b 00 	addl	$0, 184889857(%rip)
    12d9:	02 04 01 	addb	(%rcx,%rax), %al
    12dc:	83 05 01 32 05 0b 00 	addl	$0, 184889857(%rip)
    12e3:	02 04 01 	addb	(%rcx,%rax), %al
    12e6:	83 05 01 32 05 0b 00 	addl	$0, 184889857(%rip)
    12ed:	02 04 01 	addb	(%rcx,%rax), %al
    12f0:	83 05 01 32 05 0b 00 	addl	$0, 184889857(%rip)
    12f7:	02 04 01 	addb	(%rcx,%rax), %al
    12fa:	83 05 01 32 05 0b 00 	addl	$0, 184889857(%rip)
    1301:	02 04 01 	addb	(%rcx,%rax), %al
    1304:	83 05 01 32 05 0b 00 	addl	$0, 184889857(%rip)
    130b:	02 04 01 	addb	(%rcx,%rax), %al
    130e:	83 05 01 32 05 0b 00 	addl	$0, 184889857(%rip)
    1315:	02 04 01 	addb	(%rcx,%rax), %al
    1318:	83 05 01 32 05 0b 00 	addl	$0, 184889857(%rip)
    131f:	02 04 01 	addb	(%rcx,%rax), %al
    1322:	83 05 01 32 05 0b 00 	addl	$0, 184889857(%rip)
    1329:	02 04 01 	addb	(%rcx,%rax), %al
    132c:	83 05 01 32 05 0b 00 	addl	$0, 184889857(%rip)
    1333:	02 04 01 	addb	(%rcx,%rax), %al
    1336:	83 05 01 32 05 0b 00 	addl	$0, 184889857(%rip)
    133d:	02 04 01 	addb	(%rcx,%rax), %al
    1340:	83 05 01 32 05 0b 00 	addl	$0, 184889857(%rip)
    1347:	02 04 01 	addb	(%rcx,%rax), %al
    134a:	83 05 01 32 05 0b 00 	addl	$0, 184889857(%rip)
    1351:	02 04 01 	addb	(%rcx,%rax), %al
    1354:	83 05 01 32 05 0b 00 	addl	$0, 184889857(%rip)
    135b:	02 04 01 	addb	(%rcx,%rax), %al
    135e:	83 05 01 32 05 0b 00 	addl	$0, 184889857(%rip)
    1365:	02 04 01 	addb	(%rcx,%rax), %al
    1368:	83 05 01 32 05 0b 00 	addl	$0, 184889857(%rip)
    136f:	02 04 01 	addb	(%rcx,%rax), %al
    1372:	83 05 01 32 05 0b 00 	addl	$0, 184889857(%rip)
    1379:	02 04 01 	addb	(%rcx,%rax), %al
    137c:	83 02 02 	addl	$2, (%rdx)
    137f:	00 01 	addb	%al, (%rcx)
    1381:	01 12 	addl	%edx, (%rdx)
    1383:	05 00 00 05 00 	addl	$327680, %eax
    1388:	08 00 	orb	%al, (%rax)
    138a:	40 00 00 	addb	%al, (%rax)
    138d:	00 01 	addb	%al, (%rcx)
    138f:	01 01 	addl	%eax, (%rcx)
    1391:	fb 	sti
    1392:	0e  <unknown>
    1393:	0d 00 01 01 01 	orl	$16843008, %eax
    1398:	01 00 	addl	%eax, (%rax)
    139a:	00 00 	addb	%al, (%rax)
    139c:	01 00 	addl	%eax, (%rax)
    139e:	00 01 	addb	%al, (%rcx)
    13a0:	01 01 	addl	%eax, (%rcx)
    13a2:	1f  <unknown>
    13a3:	04 19 	addb	$25, %al
    13a5:	00 00 	addb	%al, (%rax)
    13a7:	00 fb 	addb	%bh, %bl
    13a9:	05 00 00 0c 06 	addl	$101449728, %eax
    13ae:	00 00 	addb	%al, (%rax)
    13b0:	26 06  <unknown>
    13b2:	00 00 	addb	%al, (%rax)
    13b4:	02 01 	addb	(%rcx), %al
    13b6:	1f  <unknown>
    13b7:	02 0f 	addb	(%rdi), %cl
    13b9:	04 e2 	addb	$-30, %al
    13bb:	05 00 00 00 f3 	addl	$4076863488, %eax
    13c0:	05 00 00 01 46 	addl	$1174470656, %eax
    13c5:	01 00 	addl	%eax, (%rax)
    13c7:	00 02 	addb	%al, (%rdx)
    13c9:	4e 01 00 	addq	%r8, (%rax)
    13cc:	00 03 	addb	%al, (%rbx)
    13ce:	05 01 00 09 02 	addl	$34144257, %eax
    13d3:	44 28 01 	subb	%r8b, (%rcx)
    13d6:	00 00 	addb	%al, (%rax)
    13d8:	00 00 	addb	%al, (%rax)
    13da:	00 17 	addb	%dl, (%rdi)
    13dc:	05 21 e5 05 0e 	addl	$235267361, %eax
    13e1:	82  <unknown>
    13e2:	05 3f 4b 05 33 	addl	$855984959, %eax
    13e7:	9e 	sahf
    13e8:	05 2f 82 05 25 	addl	$621117999, %eax
    13ed:	74 05 	je	5 <video.c+0x13f4>
    13ef:	2a 74 05 0e 	subb	14(%rbp,%rax), %dh
    13f3:	66 05 20 84 	addw	$33824, %ax
    13f7:	05 0b 82 05 17 	addl	$386236939, %eax
    13fc:	e4 05 	inb	$5, %al
    13fe:	20 2f 	andb	%ch, (%rdi)
    1400:	05 0b 82 05 17 	addl	$386236939, %eax
    1405:	e4 05 	inb	$5, %al
    1407:	0b 2f 	orl	(%rdi), %ebp
    1409:	05 13 ac 05 01 	addl	$17148947, %eax
    140e:	59 	popq	%rcx
    140f:	3f  <unknown>
    1410:	05 21 a0 05 0e 	addl	$235249697, %eax
    1415:	82  <unknown>
    1416:	05 23 4b 05 0e 	addl	$235227939, %eax
    141b:	08 12 	orb	%dl, (%rdx)
    141d:	05 13 67 05 24 	addl	$604333843, %eax
    1422:	08 12 	orb	%dl, (%rdx)
    1424:	05 2c 08 12 05 	addl	$85067820, %eax
    1429:	1b 3c 05 3b 3c 05 43 	sbbl	1124416571(,%rax), %edi
    1430:	08 12 	orb	%dl, (%rdx)
    1432:	05 32 3c 05 0b 	addl	$184892466, %eax
    1437:	2e 05 0c 3d 05 01 	addl	$17120524, %eax
    143d:	3d 31 05 11 08 	cmpl	$135333169, %eax
    1442:	83 05 1f 08 3c 05 1d 	addl	$29, 87820319(%rip)
    1449:	08 20 	orb	%ah, (%rax)
    144b:	05 09 58 05 08 	addl	$134567945, %eax
    1450:	67 05 0d 68 05 0b 	addl	$184903693, %eax
    1456:	67 67 05 0e 68 05 0c 	addl	$201680910, %eax
    145d:	67 67 05 08 69 05 0d 	addl	$218458376, %eax
    1464:	84 05 0b 67 05 0c 	testb	%al, 201680651(%rip)
    146a:	67 05 0e 68 05 0b 	addl	$184903694, %eax
    1470:	67 05 0c 67 05 08 	addl	$134571788, %eax
    1476:	6a 05 	pushq	$5
    1478:	0a 91 05 09 08 4c 	orb	1275595013(%rcx), %dl
    147e:	05 08 e7 05 0f 	addl	$252045064, %eax
    1483:	84 94 05 05 77 05 0c 	testb	%dl, 201684741(%rbp,%rax)
    148a:	30 05 0d 68 08 a2 	xorb	%al, -1576507379(%rip)
    1490:	08 84 05 0c 67 05 0f 	orb	%al, 252012300(%rbp,%rax)
    1497:	68 05 11 67 05 	pushq	$90640645
    149c:	16  <unknown>
    149d:	03 72 66 	addl	102(%rdx), %esi
    14a0:	05 0e 00 02 04 	addl	$67239950, %eax
    14a5:	01 4a 05 	addl	%ecx, 5(%rdx)
    14a8:	01 03 	addl	%eax, (%rbx)
    14aa:	11 82 84 05 21 f3 	adcl	%eax, -215939708(%rdx)
    14b0:	05 0e 82 05 1c 	addl	$470123022, %eax
    14b5:	4b 05 0e 08 12 68 	addq	$1746012174, %rax
    14bb:	05 05 74 05 35 	addl	$889549829, %eax
    14c0:	00 02 	addb	%al, (%rdx)
    14c2:	04 03 	addb	$3, %al
    14c4:	30 05 1f 00 02 04 	xorb	%al, 67239967(%rip)
    14ca:	03 82 05 16 00 02 	addl	33560069(%rdx), %eax
    14d0:	04 03 	addb	$3, %al
    14d2:	ba 05 0f 00 02 	movl	$33558277, %edx
    14d7:	04 03 	addb	$3, %al
    14d9:	74 05 	je	5 <video.c+0x14e0>
    14db:	2c 00 	subb	$0, %al
    14dd:	02 04 03 	addb	(%rbx,%rax), %al
    14e0:	ac 	lodsb	(%rsi), %al
    14e1:	05 35 00 02 04 	addl	$67239989, %eax
    14e6:	03 4b 05 	addl	5(%rbx), %ecx
    14e9:	1f  <unknown>
    14ea:	00 02 	addb	%al, (%rdx)
    14ec:	04 03 	addb	$3, %al
    14ee:	82  <unknown>
    14ef:	05 16 00 02 04 	addl	$67239958, %eax
    14f4:	03 ba 05 0f 00 02 	addl	33558277(%rdx), %edi
    14fa:	04 03 	addb	$3, %al
    14fc:	74 05 	je	5 <video.c+0x1503>
    14fe:	2c 00 	subb	$0, %al
    1500:	02 04 03 	addb	(%rbx,%rax), %al
    1503:	ac 	lodsb	(%rsi), %al
    1504:	05 1f 00 02 04 	addl	$67239967, %eax
    1509:	03 4b 05 	addl	5(%rbx), %ecx
    150c:	16  <unknown>
    150d:	00 02 	addb	%al, (%rdx)
    150f:	04 03 	addb	$3, %al
    1511:	ba 05 0f 00 02 	movl	$33558277, %edx
    1516:	04 03 	addb	$3, %al
    1518:	74 05 	je	5 <video.c+0x151f>
    151a:	28 00 	subb	%al, (%rax)
    151c:	02 04 03 	addb	(%rbx,%rax), %al
    151f:	74 05 	je	5 <video.c+0x1526>
    1521:	1d 00 02 04 03 	sbbl	$50594304, %eax
    1526:	54 	pushq	%rsp
    1527:	05 17 00 02 04 	addl	$67239959, %eax
    152c:	01 4a 05 	addl	%ecx, 5(%rdx)
    152f:	01 88 4d 05 21 f3 	addl	%ecx, -215939763(%rax)
    1535:	05 0e 82 05 1c 	addl	$470123022, %eax
    153a:	4b 05 0e 08 12 68 	addq	$1746012174, %rax
    1540:	05 05 74 05 2e 	addl	$772109317, %eax
    1545:	00 02 	addb	%al, (%rdx)
    1547:	04 03 	addb	$3, %al
    1549:	30 05 1b 00 02 04 	xorb	%al, 67239963(%rip)
    154f:	03 82 05 16 00 02 	addl	33560069(%rdx), %eax
    1555:	04 03 	addb	$3, %al
    1557:	90 	nop
    1558:	05 0f 00 02 04 	addl	$67239951, %eax
    155d:	03 74 05 25 	addl	37(%rbp,%rax), %esi
    1561:	00 02 	addb	%al, (%rdx)
    1563:	04 03 	addb	$3, %al
    1565:	ac 	lodsb	(%rsi), %al
    1566:	05 2e 00 02 04 	addl	$67239982, %eax
    156b:	03 4b 05 	addl	5(%rbx), %ecx
    156e:	1b 00 	sbbl	(%rax), %eax
    1570:	02 04 03 	addb	(%rbx,%rax), %al
    1573:	82  <unknown>
    1574:	05 16 00 02 04 	addl	$67239958, %eax
    1579:	03 90 05 0f 00 02 	addl	33558277(%rax), %edx
    157f:	04 03 	addb	$3, %al
    1581:	74 05 	je	5 <video.c+0x1588>
    1583:	25 00 02 04 03 	andl	$50594304, %eax
    1588:	ac 	lodsb	(%rsi), %al
    1589:	05 1b 00 02 04 	addl	$67239963, %eax
    158e:	03 4b 05 	addl	5(%rbx), %ecx
    1591:	16  <unknown>
    1592:	00 02 	addb	%al, (%rdx)
    1594:	04 03 	addb	$3, %al
    1596:	90 	nop
    1597:	05 0f 00 02 04 	addl	$67239951, %eax
    159c:	03 74 05 21 	addl	33(%rbp,%rax), %esi
    15a0:	00 02 	addb	%al, (%rdx)
    15a2:	04 03 	addb	$3, %al
    15a4:	74 05 	je	5 <video.c+0x15ab>
    15a6:	1d 00 02 04 03 	sbbl	$50594304, %eax
    15ab:	54 	pushq	%rsp
    15ac:	05 17 00 02 04 	addl	$67239959, %eax
    15b1:	01 4a 05 	addl	%ecx, 5(%rdx)
    15b4:	01 88 4d 05 05 08 	addl	%ecx, 134546765(%rax)
    15ba:	75 08 	jne	8 <video.c+0x15c4>
    15bc:	2f  <unknown>
    15bd:	08 2f 	orb	%ch, (%rdi)
    15bf:	08 83 05 01 08 83 	orb	%al, -2096627451(%rbx)
    15c5:	3f  <unknown>
    15c6:	05 21 08 3d 05 	addl	$87885857, %eax
    15cb:	0e  <unknown>
    15cc:	82  <unknown>
    15cd:	05 1c 4b 05 0e 	addl	$235227932, %eax
    15d2:	08 12 	orb	%dl, (%rdx)
    15d4:	05 09 68 05 10 	addl	$268789769, %eax
    15d9:	74 05 	je	5 <video.c+0x15e0>
    15db:	0c 75 	orb	$117, %al
    15dd:	05 05 74 05 10 	addl	$268792837, %eax
    15e2:	5a 	popq	%rdx
    15e3:	05 09 74 05 32 	addl	$839218185, %eax
    15e8:	00 02 	addb	%al, (%rdx)
    15ea:	04 03 	addb	$3, %al
    15ec:	30 05 1f 00 02 04 	xorb	%al, 67239967(%rip)
    15f2:	03 82 05 1a 00 02 	addl	33561093(%rdx), %eax
    15f8:	04 03 	addb	$3, %al
    15fa:	90 	nop
    15fb:	05 13 00 02 04 	addl	$67239955, %eax
    1600:	03 74 05 29 	addl	41(%rbp,%rax), %esi
    1604:	00 02 	addb	%al, (%rdx)
    1606:	04 03 	addb	$3, %al
    1608:	ac 	lodsb	(%rsi), %al
    1609:	05 32 00 02 04 	addl	$67239986, %eax
    160e:	03 4b 05 	addl	5(%rbx), %ecx
    1611:	1f  <unknown>
    1612:	00 02 	addb	%al, (%rdx)
    1614:	04 03 	addb	$3, %al
    1616:	82  <unknown>
    1617:	05 1a 00 02 04 	addl	$67239962, %eax
    161c:	03 90 05 13 00 02 	addl	33559301(%rax), %edx
    1622:	04 03 	addb	$3, %al
    1624:	74 05 	je	5 <video.c+0x162b>
    1626:	29 00 	subl	%eax, (%rax)
    1628:	02 04 03 	addb	(%rbx,%rax), %al
    162b:	ac 	lodsb	(%rsi), %al
    162c:	05 1f 00 02 04 	addl	$67239967, %eax
    1631:	03 4b 05 	addl	5(%rbx), %ecx
    1634:	1a 00 	sbbb	(%rax), %al
    1636:	02 04 03 	addb	(%rbx,%rax), %al
    1639:	90 	nop
    163a:	05 13 00 02 04 	addl	$67239955, %eax
    163f:	03 74 05 25 	addl	37(%rbp,%rax), %esi
    1643:	00 02 	addb	%al, (%rdx)
    1645:	04 03 	addb	$3, %al
    1647:	74 05 	je	5 <video.c+0x164e>
    1649:	1d 00 02 04 03 	sbbl	$50594304, %eax
    164e:	54 	pushq	%rsp
    164f:	05 17 00 02 04 	addl	$67239959, %eax
    1654:	01 4a 05 	addl	%ecx, 5(%rdx)
    1657:	0f 00 02 	sldtw	(%rdx)
    165a:	04 02 	addb	$2, %al
    165c:	88 05 19 00 02 04 	movb	%al, 67239961(%rip)
    1662:	02 03 	addb	(%rbx), %al
    1664:	78 82 	js	-126 <video.c+0x15e8>
    1666:	05 13 00 02 04 	addl	$67239955, %eax
    166b:	01 4a 05 	addl	%ecx, 5(%rdx)
    166e:	01 03 	addl	%eax, (%rbx)
    1670:	0a ba 4d 05 05 08 	orb	134546765(%rdx), %bh
    1676:	ad 	lodsl	(%rsi), %eax
    1677:	08 83 08 83 05 01 	orb	%al, 17138440(%rbx)
    167d:	08 83 3f 05 08 08 	orb	%al, 134743359(%rbx)
    1683:	b0 05 	movb	$5, %al
    1685:	0d 84 05 0c 67 	orl	$1728841092, %eax
    168a:	67 05 0e 68 05 0c 	addl	$201680910, %eax
    1690:	67 67 05 08 68 05 0d 	addl	$218458120, %eax
    1697:	84 05 0c 67 67 05 	testb	%al, 90662668(%rip)
    169d:	0e  <unknown>
    169e:	68 05 0c 67 67 	pushq	$1734806533
    16a3:	05 08 68 05 0d 	addl	$218458120, %eax
    16a8:	84 05 0c 67 67 05 	testb	%al, 90662668(%rip)
    16ae:	0e  <unknown>
    16af:	68 05 0c 67 67 	pushq	$1734806533
    16b4:	05 08 6a 05 0f 	addl	$252013064, %eax
    16b9:	84 05 0b 66 05 0c 	testb	%al, 201680395(%rip)
    16bf:	67 05 0f 83 05 11 	addl	$285573903, %eax
    16c5:	83 05 0f 83 05 0c 67 	addl	$103, 201687823(%rip)
    16cc:	05 0f 83 05 11 	addl	$285573903, %eax
    16d1:	83 05 0f 83 05 09 68 	addl	$104, 151356175(%rip)
    16d8:	05 1c 3c 05 09 	addl	$151338012, %eax
    16dd:	66 08 3e 	orb	%bh, (%rsi)
    16e0:	5b 	popq	%rbx
    16e1:	91 	xchgl	%ecx, %eax
    16e2:	91 	xchgl	%ecx, %eax
    16e3:	91 	xchgl	%ecx, %eax
    16e4:	91 	xchgl	%ecx, %eax
    16e5:	91 	xchgl	%ecx, %eax
    16e6:	91 	xchgl	%ecx, %eax
    16e7:	75 05 	jne	5 <video.c+0x16ee>
    16e9:	08 7c 05 0e 	orb	%bh, 14(%rbp,%rax)
    16ed:	83 84 05 0c 92 05 05 66 	addl	$102, 84251148(%rbp,%rax)
    16f5:	05 15 30 05 0b 	addl	$184889365, %eax
    16fa:	90 	nop
    16fb:	05 15 83 05 0b 	addl	$184910613, %eax
    1700:	90 	nop
    1701:	05 0c 83 67 68 	addl	$1751614220, %eax
    1706:	05 11 84 05 0f 	addl	$252019729, %eax
    170b:	67 67 05 09 00 02 04 	addl	$67239945, %eax
    1712:	02 68 05 	addb	5(%rax), %ch
    1715:	1b 00 	sbbl	(%rax), %eax
    1717:	02 04 02 	addb	(%rdx,%rax), %al
    171a:	3c 05 	cmpb	$5, %al
    171c:	09 00 	orl	%eax, (%rax)
    171e:	02 04 02 	addb	(%rdx,%rax), %al
    1721:	66 05 1e 00 	addw	$30, %ax
    1725:	02 04 02 	addb	(%rdx,%rax), %al
    1728:	03 73 08 	addl	8(%rbx), %esi
    172b:	3c 05 	cmpb	$5, %al
    172d:	14 00 	adcb	$0, %al
    172f:	02 04 01 	addb	(%rcx,%rax), %al
    1732:	4a 03 12 	addq	(%rdx), %rdx
    1735:	82  <unknown>
    1736:	05 08 66 05 14 	addl	$335898120, %eax
    173b:	91 	xchgl	%ecx, %eax
    173c:	05 08 66 05 05 	addl	$84239880, %eax
    1741:	91 	xchgl	%ecx, %eax
    1742:	05 15 30 05 0b 	addl	$184889365, %eax
    1747:	90 	nop
    1748:	05 15 83 05 0b 	addl	$184910613, %eax
    174d:	90 	nop
    174e:	05 0c 83 67 68 	addl	$1751614220, %eax
    1753:	05 11 84 05 0f 	addl	$252019729, %eax
    1758:	67 67 05 09 68 05 1b 	addl	$453339145, %eax
    175f:	3c 05 	cmpb	$5, %al
    1761:	09 66 05 	orl	%esp, 5(%rsi)
    1764:	16  <unknown>
    1765:	03 73 08 	addl	8(%rbx), %esi
    1768:	3c 05 	cmpb	$5, %al
    176a:	0e  <unknown>
    176b:	00 02 	addb	%al, (%rdx)
    176d:	04 01 	addb	$1, %al
    176f:	4a 05 01 03 0f 82 	addq	$-2112945407, %rax
    1775:	31 05 09 08 3d ad 	xorl	%eax, -1388509175(%rip)
    177b:	75 e5 	jne	-27 <video.c+0x1762>
    177d:	75 05 	jne	5 <video.c+0x1784>
    177f:	13 68 05 	adcl	5(%rax), %ebp
    1782:	05 82 05 13 08 	addl	$135464322, %eax
    1787:	59 	popq	%rcx
    1788:	05 05 66 08 59 	addl	$1493722629, %eax
    178d:	05 10 66 05 05 	addl	$84239888, %eax
    1792:	82  <unknown>
    1793:	f3 05 10 66 05 05 	rep		addl	$84239888, %eax
    1799:	66 05 0b f4 	addw	$62475, %ax
    179d:	05 0c 5a 05 0e 	addl	$235231756, %eax
    17a2:	68 05 13 4b 05 	pushq	$88806149
    17a7:	0f 4b 05 0a 68 05 0f 	cmovnpl	252012554(%rip), %eax
    17ae:	4b 05 0b 4b 05 1b 	addq	$453331723, %rax
    17b4:	67 05 09 82 05 14 	addl	$335905289, %eax
    17ba:	3c 05 	cmpb	$5, %al
    17bc:	09 82 05 1b f3 05 	orl	%eax, 99818245(%rdx)
    17c2:	09 82 05 14 3c 05 	orl	%eax, 87823365(%rdx)
    17c8:	09 66 05 	orl	%esp, 5(%rsi)
    17cb:	1b f3 	sbbl	%ebx, %esi
    17cd:	05 09 66 05 14 	addl	$335898121, %eax
    17d2:	3c 05 	cmpb	$5, %al
    17d4:	09 82 05 1b f3 05 	orl	%eax, 99818245(%rdx)
    17da:	09 66 05 	orl	%esp, 5(%rsi)
    17dd:	14 3c 	adcb	$60, %al
    17df:	05 09 66 05 1b 	addl	$453338633, %eax
    17e4:	f3 05 09 82 05 14 	rep		addl	$335905289, %eax
    17ea:	3c 05 	cmpb	$5, %al
    17ec:	09 82 05 1b f3 05 	orl	%eax, 99818245(%rdx)
    17f2:	09 82 05 14 3c 05 	orl	%eax, 87823365(%rdx)
    17f8:	09 66 05 	orl	%esp, 5(%rsi)
    17fb:	1b f3 	sbbl	%ebx, %esi
    17fd:	05 09 66 05 14 	addl	$335898121, %eax
    1802:	3c 05 	cmpb	$5, %al
    1804:	09 82 05 1b f3 05 	orl	%eax, 99818245(%rdx)
    180a:	09 66 05 	orl	%esp, 5(%rsi)
    180d:	14 3c 	adcb	$60, %al
    180f:	05 09 66 05 0e 	addl	$235234825, %eax
    1814:	03 6e f2 	addl	-14(%rsi), %ebp
    1817:	05 01 03 14 ba 	addl	$3121873665, %eax
    181c:	4d 05 09 08 3d 05 	addq	$87885833, %rax
    1822:	15 74 05 05 75 	adcl	$1963263348, %eax
    1827:	05 1b 3c 05 05 	addl	$84229147, %eax
    182c:	58 	popq	%rax
    182d:	05 09 08 84 ad 	addl	$2911111177, %eax
    1832:	75 e5 	jne	-27 <video.c+0x1819>
    1834:	75 05 	jne	5 <video.c+0x183b>
    1836:	0b 68 05 	orl	5(%rax), %ebp
    1839:	0c 5a 	orb	$90, %al
    183b:	05 0e 68 05 13 	addl	$319121422, %eax
    1840:	4b 05 0f 4b 05 0a 	addq	$168119055, %rax
    1846:	68 05 0f 4b 05 	pushq	$88805125
    184b:	0b 4b 05 	orl	5(%rbx), %ecx
    184e:	14 68 	adcb	$104, %al
    1850:	05 0c 66 05 0d 	addl	$218457612, %eax
    1855:	4c 05 27 3c 05 2b 	addq	$721763367, %rax
    185b:	58 	popq	%rax
    185c:	05 0d 3c 08 d7 	addl	$3607641101, %eax
    1861:	05 27 3c 05 2b 	addl	$721763367, %eax
    1866:	58 	popq	%rax
    1867:	05 0d 3c 05 14 	addl	$335887373, %eax
    186c:	08 d8 	orb	%bl, %al
    186e:	05 0c 66 05 0d 	addl	$218457612, %eax
    1873:	4c 05 27 3c 05 2b 	addq	$721763367, %rax
    1879:	58 	popq	%rax
    187a:	05 0d 3c 08 d7 	addl	$3607641101, %eax
    187f:	05 27 3c 05 2b 	addl	$721763367, %eax
    1884:	58 	popq	%rax
    1885:	05 0d 3c 05 0e 	addl	$235224077, %eax
    188a:	03 6c 08 d6 	addl	-42(%rax,%rcx), %ebp
    188e:	05 01 03 17 ba 	addl	$3122070273, %eax
    1893:	02 04 00 	addb	(%rax,%rax), %al
    1896:	01 01 	addl	%eax, (%rcx)
Disassembly of section .debug_str:
.debug_str:
       0:	69 6e 69 74 49 44 54 	imull	$1413761396, 105(%rsi), %ebp
       7:	00 6b 6d 	addb	%ch, 109(%rbx)
       a:	61  <unknown>
       b:	69 6e 00 75 69 6e 74 	imull	$1953393013, (%rsi), %ebp
      12:	36 34 5f 	xorb	$95, %al
      15:	74 00 	je	0 <video.c+0x17>
      17:	73 68 	jae	104 <video.c+0x81>
      19:	6f 	outsl	(%rsi), %dx
      1a:	72 74 	jb	116 <video.c+0x90>
      1c:	20 69 6e 	andb	%ch, 110(%rcx)
      1f:	74 00 	je	0 <video.c+0x21>
      21:	72 6d 	jb	109 <video.c+0x90>
      23:	61  <unknown>
      24:	73 6b 	jae	107 <video.c+0x91>
      26:	70 00 	jo	0 <video.c+0x28>
      28:	62  <unknown>
      29:	70 73 	jo	115 <video.c+0x9e>
      2b:	6c 	insb	%dx, %es:(%rdi)
      2c:	00 72 6d 	addb	%dh, 109(%rdx)
      2f:	61  <unknown>
      30:	73 6b 	jae	107 <video.c+0x9d>
      32:	73 00 	jae	0 <video.c+0x34>
      34:	6d 	insl	%dx, %es:(%rdi)
      35:	65 6d 	insl	%dx, %es:(%rdi)
      37:	63  <unknown>
      38:	70 79 	jo	121 <video.c+0xb3>
      3a:	00 47 4e 	addb	%al, 78(%rdi)
      3d:	55 	pushq	%rbp
      3e:	20 43 31 	andb	%al, 49(%rbx)
      41:	37  <unknown>
      42:	20 31 	andb	%dh, (%rcx)
      44:	31 2e 	xorl	%ebp, (%rsi)
      46:	32 2e 	xorb	(%rsi), %ch
      48:	30 20 	xorb	%ah, (%rax)
      4a:	2d 6d 6e 6f 2d 	subl	$762277485, %eax
      4f:	6d 	insl	%dx, %es:(%rdi)
      50:	73 2d 	jae	45 <video.c+0x7f>
      52:	62  <unknown>
      53:	69 74 66 69 65 6c 64 73 	imull	$1935961189, 105(%rsi,%riz,2), %esi
      5b:	20 2d 6d 36 34 20 	andb	%ch, 540292717(%rip)
      61:	2d 6d 61 62 69 	subl	$1768055149, %eax
      66:	3d 73 79 73 76 	cmpl	$1987279219, %eax
      6b:	20 2d 6d 6e 6f 2d 	andb	%ch, 762277485(%rip)
      71:	73 74 	jae	116 <video.c+0xe7>
      73:	61  <unknown>
      74:	63  <unknown>
      75:	6b 2d 61 72 67 2d 70 	imull	$112, 761754209(%rip), %ebp
      7c:	72 6f 	jb	111 <video.c+0xed>
      7e:	62  <unknown>
      7f:	65 20 2d 6d 74 75 6e 	andb	%ch, %gs:1853191277(%rip)
      86:	65 3d 67 65 6e 65 	cmpl	$1701733735, %eax
      8c:	72 69 	jb	105 <video.c+0xf7>
      8e:	63  <unknown>
      8f:	20 2d 6d 61 72 63 	andb	%ch, 1668440429(%rip)
      95:	68 3d 78 38 36 	pushq	$909670461
      9a:	2d 36 34 20 2d 	subl	$757085238, %eax
      9f:	67 20 2d 66 6e 6f 2d 	andb	%ch, 762277478(%eip)
      a6:	50 	pushq	%rax
      a7:	49 43  <unknown>
      a9:	20 2d 66 66 72 65 	andb	%ch, 1701996134(%rip)
      af:	65 73 74 	jae	116 <video.c+0x126>
      b2:	61  <unknown>
      b3:	6e 	outsb	(%rsi), %dx
      b4:	64 69 6e 67 20 2d 66 73 	imull	$1936076064, %fs:103(%rsi), %ebp
      bc:	74 61 	je	97 <video.c+0x11f>
      be:	63  <unknown>
      bf:	6b 2d 63 68 65 63 6b 	imull	$107, 1667590243(%rip), %ebp
      c6:	3d 6e 6f 20 2d 	cmpl	$757100398, %eax
      cb:	66 6e 	outsb	(%rsi), %dx
      cd:	6f 	outsl	(%rsi), %dx
      ce:	2d 73 74 61 63 	subl	$1667331187, %eax
      d3:	6b 2d 70 72 6f 74 65 	imull	$101, 1953460848(%rip), %ebp
      da:	63  <unknown>
      db:	74 6f 	je	111 <video.c+0x14c>
      dd:	72 00 	jb	0 <video.c+0xdf>
      df:	69 6e 69 74 48 65 61 	imull	$1634027636, 105(%rsi), %ebp
      e6:	70 00 	jo	0 <video.c+0xe8>
      e8:	66 72 61 	jb	97 <video.c+0x14c>
      eb:	6d 	insl	%dx, %es:(%rdi)
      ec:	65 62  <unknown>
      ee:	75 66 	jne	102 <video.c+0x156>
      f0:	66 65 72 00 	jb	0 <video.c+0xf4>
      f4:	75 69 	jne	105 <video.c+0x15f>
      f6:	6e 	outsb	(%rsi), %dx
      f7:	74 38 	je	56 <video.c+0x131>
      f9:	5f 	popq	%rdi
      fa:	74 00 	je	0 <video.c+0xfc>
      fc:	6b 65 72 6e 	imull	$110, 114(%rbp), %esp
     100:	65 6c 	insb	%dx, %es:(%rdi)
     102:	49 6e 	outsb	(%rsi), %dx
     104:	66 6f 	outsw	(%rsi), %dx
     106:	00 6d 65 	addb	%ch, 101(%rbp)
     109:	6d 	insl	%dx, %es:(%rdi)
     10a:	6f 	outsl	(%rsi), %dx
     10b:	72 79 	jb	121 <video.c+0x186>
     10d:	4d 61  <unknown>
     10f:	70 5f 	jo	95 <video.c+0x170>
     111:	74 00 	je	0 <video.c+0x113>
     113:	77 69 	ja	105 <video.c+0x17e>
     115:	64 74 68 	je	104 <video.c+0x180>
     118:	00 6c 6f 6e 	addb	%ch, 110(%rdi,%rbp,2)
     11c:	67 20 6c 6f 6e 	andb	%ch, 110(%edi,%ebp,2)
     121:	67 20 69 6e 	andb	%ch, 110(%ecx)
     125:	74 00 	je	0 <video.c+0x127>
     127:	69 6e 66 6f 73 74 72 	imull	$1920234351, 102(%rsi), %ebp
     12e:	75 63 	jne	99 <video.c+0x193>
     130:	74 00 	je	0 <video.c+0x132>
     132:	6d 	insl	%dx, %es:(%rdi)
     133:	65 6d 	insl	%dx, %es:(%rdi)
     135:	6f 	outsl	(%rsi), %dx
     136:	72 79 	jb	121 <video.c+0x1b1>
     138:	4d 61  <unknown>
     13a:	70 00 	jo	0 <video.c+0x13c>
     13c:	64 72 61 	jb	97 <video.c+0x1a0>
     13f:	77 52 	ja	82 <video.c+0x193>
     141:	65 63  <unknown>
     143:	74 00 	je	0 <video.c+0x145>
     145:	6c 	insb	%dx, %es:(%rdi)
     146:	65 6e 	outsb	%gs:(%rsi), %dx
     148:	67 74 68 	je	104 <video.c+0x1b3>
     14b:	00 69 6e 	addb	%ch, 110(%rcx)
     14e:	69 74 4d 65 6d 6f 72 79 	imull	$2037542765, 101(%rbp,%rcx,2), %esi
     156:	4d 61  <unknown>
     158:	70 00 	jo	0 <video.c+0x15a>
     15a:	75 6e 	jne	110 <video.c+0x1ca>
     15c:	73 69 	jae	105 <video.c+0x1c7>
     15e:	67 6e 	outsb	(%esi), %dx
     160:	65 64 20 63 68 	andb	%ah, %fs:104(%rbx)
     165:	61  <unknown>
     166:	72 00 	jb	0 <video.c+0x168>
     168:	6c 	insb	%dx, %es:(%rdi)
     169:	6f 	outsl	(%rsi), %dx
     16a:	6e 	outsb	(%rsi), %dx
     16b:	67 20 6c 6f 6e 	andb	%ch, 110(%edi,%ebp,2)
     170:	67 20 75 6e 	andb	%dh, 110(%ebp)
     174:	73 69 	jae	105 <video.c+0x1df>
     176:	67 6e 	outsb	(%esi), %dx
     178:	65 64 20 69 6e 	andb	%ch, %fs:110(%rcx)
     17d:	74 00 	je	0 <video.c+0x17f>
     17f:	75 69 	jne	105 <video.c+0x1ea>
     181:	6e 	outsb	(%rsi), %dx
     182:	74 33 	je	51 <video.c+0x1b7>
     184:	32 5f 74 	xorb	116(%rdi), %bl
     187:	00 68 65 	addb	%ch, 101(%rax)
     18a:	69 67 68 74 00 75 69 	imull	$1769275508, 104(%rdi), %esp
     191:	6e 	outsb	(%rsi), %dx
     192:	74 31 	je	49 <video.c+0x1c5>
     194:	36 5f 	popq	%rdi
     196:	74 00 	je	0 <video.c+0x198>
     198:	69 6e 69 74 50 68 79 	imull	$2036879476, 105(%rsi), %ebp
     19f:	73 69 	jae	105 <video.c+0x20a>
     1a1:	63  <unknown>
     1a2:	61  <unknown>
     1a3:	6c 	insb	%dx, %es:(%rdi)
     1a4:	50 	pushq	%rax
     1a5:	61  <unknown>
     1a6:	67 65 46 72 61 	jb	97 <video.c+0x20c>
     1ab:	6d 	insl	%dx, %es:(%rdi)
     1ac:	65 41 6c 	insb	%dx, %es:(%rdi)
     1af:	6c 	insb	%dx, %es:(%rdi)
     1b0:	6f 	outsl	(%rsi), %dx
     1b1:	63  <unknown>
     1b2:	61  <unknown>
     1b3:	74 69 	je	105 <video.c+0x21e>
     1b5:	6f 	outsl	(%rsi), %dx
     1b6:	6e 	outsb	(%rsi), %dx
     1b7:	00 73 68 	addb	%dh, 104(%rbx)
     1ba:	6f 	outsl	(%rsi), %dx
     1bb:	72 74 	jb	116 <video.c+0x231>
     1bd:	20 75 6e 	andb	%dh, 110(%rbp)
     1c0:	73 69 	jae	105 <video.c+0x22b>
     1c2:	67 6e 	outsb	(%esi), %dx
     1c4:	65 64 20 69 6e 	andb	%ch, %fs:110(%rcx)
     1c9:	74 00 	je	0 <video.c+0x1cb>
     1cb:	6d 	insl	%dx, %es:(%rdi)
     1cc:	65 6d 	insl	%dx, %es:(%rdi)
     1ce:	6f 	outsl	(%rsi), %dx
     1cf:	72 79 	jb	121 <video.c+0x24a>
     1d1:	45 6e 	outsb	(%rsi), %dx
     1d3:	74 72 	je	114 <video.c+0x247>
     1d5:	79 5f 	jns	95 <video.c+0x236>
     1d7:	74 00 	je	0 <video.c+0x1d9>
     1d9:	74 79 	je	121 <video.c+0x254>
     1db:	70 65 	jo	101 <video.c+0x242>
     1dd:	00 69 6e 	addb	%ch, 110(%rcx)
     1e0:	69 74 50 61 67 69 6e 67 	imull	$1735289191, 97(%rax,%rdx,2), %esi
     1e8:	00 67 6d 	addb	%ah, 109(%rdi)
     1eb:	61  <unknown>
     1ec:	73 6b 	jae	107 <video.c+0x259>
     1ee:	70 00 	jo	0 <video.c+0x1f0>
     1f0:	67 6d 	insl	%dx, %es:(%edi)
     1f2:	61  <unknown>
     1f3:	73 6b 	jae	107 <video.c+0x260>
     1f5:	73 00 	jae	0 <video.c+0x1f7>
     1f7:	6b 65 72 6e 	imull	$110, 114(%rbp), %esp
     1fb:	65 6c 	insb	%dx, %es:(%rdi)
     1fd:	53 	pushq	%rbx
     1fe:	69 7a 65 00 62 6d 61 	imull	$1634558464, 101(%rdx), %edi
     205:	73 6b 	jae	107 <video.c+0x272>
     207:	70 00 	jo	0 <video.c+0x209>
     209:	62  <unknown>
     20a:	6d 	insl	%dx, %es:(%rdi)
     20b:	61  <unknown>
     20c:	73 6b 	jae	107 <video.c+0x279>
     20e:	73 00 	jae	0 <video.c+0x210>
     210:	6b 65 72 6e 	imull	$110, 114(%rbp), %esp
     214:	65 6c 	insb	%dx, %es:(%rdi)
     216:	49 6e 	outsb	(%rsi), %dx
     218:	66 6f 	outsw	(%rsi), %dx
     21a:	53 	pushq	%rbx
     21b:	74 72 	je	114 <video.c+0x28f>
     21d:	75 63 	jne	99 <video.c+0x282>
     21f:	74 75 	je	117 <video.c+0x296>
     221:	72 65 	jb	101 <video.c+0x288>
     223:	5f 	popq	%rdi
     224:	74 00 	je	0 <video.c+0x226>
     226:	69 6e 69 74 47 44 54 	imull	$1413760884, 105(%rsi), %ebp
     22d:	00 63 70 	addb	%ah, 112(%rbx)
     230:	75 4e 	jne	78 <video.c+0x280>
     232:	61  <unknown>
     233:	6d 	insl	%dx, %es:(%rdi)
     234:	65 00 61 63 	addb	%ah, %gs:99(%rcx)
     238:	70 69 	jo	105 <video.c+0x2a3>
     23a:	33 00 	xorl	(%rax), %eax
     23c:	68 79 70 6f 74 	pushq	$1953460345
     241:	00 74 65 6d 	addb	%dh, 109(%rbp,%riz,2)
     245:	70 00 	jo	0 <video.c+0x247>
     247:	64 6f 	outsl	%fs:(%rsi), %dx
     249:	75 62 	jne	98 <video.c+0x2ad>
     24b:	6c 	insb	%dx, %es:(%rdi)
     24c:	65 00 66 6c 	addb	%ah, %gs:108(%rsi)
     250:	6f 	outsl	(%rsi), %dx
     251:	6f 	outsl	(%rsi), %dx
     252:	72 00 	jb	0 <video.c+0x254>
     254:	63  <unknown>
     255:	65 69 6c 00 73 71 72 74 00 	imull	$7631473, %gs:115(%rax,%rax), %ebp
     25e:	73 74 	jae	116 <video.c+0x2d4>
     260:	72 6e 	jb	110 <video.c+0x2d0>
     262:	73 74 	jae	116 <video.c+0x2d8>
     264:	72 00 	jb	0 <video.c+0x266>
     266:	6d 	insl	%dx, %es:(%rdi)
     267:	65 6d 	insl	%dx, %es:(%rdi)
     269:	6d 	insl	%dx, %es:(%rdi)
     26a:	6f 	outsl	(%rsi), %dx
     26b:	76 65 	jbe	101 <video.c+0x2d2>
     26d:	00 73 69 	addb	%dh, 105(%rbx)
     270:	7a 65 	jp	101 <video.c+0x2d7>
     272:	5f 	popq	%rdi
     273:	74 00 	je	0 <video.c+0x275>
     275:	6d 	insl	%dx, %es:(%rdi)
     276:	65 6d 	insl	%dx, %es:(%rdi)
     278:	63  <unknown>
     279:	6d 	insl	%dx, %es:(%rdi)
     27a:	70 00 	jo	0 <video.c+0x27c>
     27c:	74 6f 	je	111 <video.c+0x2ed>
     27e:	4c 6f 	outsl	(%rsi), %dx
     280:	77 65 	ja	101 <video.c+0x2e7>
     282:	72 63 	jb	99 <video.c+0x2e7>
     284:	6f 	outsl	(%rsi), %dx
     285:	73 65 	jae	101 <video.c+0x2ec>
     287:	00 73 74 	addb	%dh, 116(%rbx)
     28a:	72 6e 	jb	110 <video.c+0x2fa>
     28c:	63  <unknown>
     28d:	68 72 00 73 74 	pushq	$1953693810
     292:	72 63 	jb	99 <video.c+0x2f7>
     294:	68 72 00 73 74 	pushq	$1953693810
     299:	72 6c 	jb	108 <video.c+0x307>
     29b:	65 6e 	outsb	%gs:(%rsi), %dx
     29d:	00 64 65 73 	addb	%ah, 115(%rbp,%riz,2)
     2a1:	74 00 	je	0 <video.c+0x2a3>
     2a3:	73 74 	jae	116 <video.c+0x319>
     2a5:	72 63 	jb	99 <video.c+0x30a>
     2a7:	70 79 	jo	121 <video.c+0x322>
     2a9:	00 73 74 	addb	%dh, 116(%rbx)
     2ac:	72 63 	jb	99 <video.c+0x311>
     2ae:	61  <unknown>
     2af:	74 00 	je	0 <video.c+0x2b1>
     2b1:	73 74 	jae	116 <video.c+0x327>
     2b3:	72 6e 	jb	110 <video.c+0x323>
     2b5:	63  <unknown>
     2b6:	70 79 	jo	121 <video.c+0x331>
     2b8:	00 6c 61 73 	addb	%ch, 115(%rcx,%riz,2)
     2bc:	74 73 	je	115 <video.c+0x331>
     2be:	00 6d 65 	addb	%ch, 101(%rbp)
     2c1:	6d 	insl	%dx, %es:(%rdi)
     2c2:	73 65 	jae	101 <video.c+0x329>
     2c4:	74 00 	je	0 <video.c+0x2c6>
     2c6:	73 74 	jae	116 <video.c+0x33c>
     2c8:	72 6e 	jb	110 <video.c+0x338>
     2ca:	63  <unknown>
     2cb:	61  <unknown>
     2cc:	74 00 	je	0 <video.c+0x2ce>
     2ce:	73 74 	jae	116 <video.c+0x344>
     2d0:	72 63 	jb	99 <video.c+0x335>
     2d2:	61  <unknown>
     2d3:	73 65 	jae	101 <video.c+0x33a>
     2d5:	63  <unknown>
     2d6:	6d 	insl	%dx, %es:(%rdi)
     2d7:	70 00 	jo	0 <video.c+0x2d9>
     2d9:	74 6f 	je	111 <video.c+0x34a>
     2db:	55 	pushq	%rbp
     2dc:	70 70 	jo	112 <video.c+0x34e>
     2de:	65 72 63 	jb	99 <video.c+0x344>
     2e1:	61  <unknown>
     2e2:	73 65 	jae	101 <video.c+0x349>
     2e4:	00 73 74 	addb	%dh, 116(%rbx)
     2e7:	72 6e 	jb	110 <video.c+0x357>
     2e9:	63  <unknown>
     2ea:	61  <unknown>
     2eb:	73 65 	jae	101 <video.c+0x352>
     2ed:	63  <unknown>
     2ee:	6d 	insl	%dx, %es:(%rdi)
     2ef:	70 00 	jo	0 <video.c+0x2f1>
     2f1:	6c 	insb	%dx, %es:(%rdi)
     2f2:	61  <unknown>
     2f3:	73 74 	jae	116 <video.c+0x369>
     2f5:	64 00 73 74 	addb	%dh, %fs:116(%rbx)
     2f9:	72 63 	jb	99 <video.c+0x35e>
     2fb:	6d 	insl	%dx, %es:(%rdi)
     2fc:	70 00 	jo	0 <video.c+0x2fe>
     2fe:	73 74 	jae	116 <video.c+0x374>
     300:	72 6e 	jb	110 <video.c+0x370>
     302:	63  <unknown>
     303:	6d 	insl	%dx, %es:(%rdi)
     304:	70 00 	jo	0 <video.c+0x306>
     306:	63  <unknown>
     307:	6f 	outsl	(%rsi), %dx
     308:	75 6e 	jne	110 <video.c+0x378>
     30a:	74 00 	je	0 <video.c+0x30c>
     30c:	73 72 	jae	114 <video.c+0x380>
     30e:	63  <unknown>
     30f:	31 00 	xorl	%eax, (%rax)
     311:	73 72 	jae	114 <video.c+0x385>
     313:	63  <unknown>
     314:	32 00 	xorb	(%rax), %al
     316:	73 74 	jae	116 <video.c+0x38c>
     318:	72 73 	jb	115 <video.c+0x38d>
     31a:	74 72 	je	114 <video.c+0x38e>
     31c:	00 73 74 	addb	%dh, 116(%rbx)
     31f:	72 72 	jb	114 <video.c+0x393>
     321:	63  <unknown>
     322:	68 72 00 6d 65 	pushq	$1701642354
     327:	6d 	insl	%dx, %es:(%rdi)
     328:	6f 	outsl	(%rsi), %dx
     329:	72 79 	jb	121 <video.c+0x3a4>
     32b:	4d 61  <unknown>
     32d:	70 46 	jo	70 <video.c+0x375>
     32f:	69 72 73 74 45 6e 74 	imull	$1953383796, 115(%rdx), %esi
     336:	72 79 	jb	121 <video.c+0x3b1>
     338:	00 67 65 	addb	%ah, 101(%rdi)
     33b:	74 53 	je	83 <video.c+0x390>
     33d:	79 73 	jns	115 <video.c+0x3b2>
     33f:	74 65 	je	101 <video.c+0x3a6>
     341:	6d 	insl	%dx, %es:(%rdi)
     342:	4d 65 	gs
     344:	6d 	insl	%dx, %es:(%rdi)
     345:	6f 	outsl	(%rsi), %dx
     346:	72 79 	jb	121 <video.c+0x3c1>
     348:	00 69 73 	addb	%ch, 115(%rcx)
     34b:	4d 65 	gs
     34d:	6d 	insl	%dx, %es:(%rdi)
     34e:	6f 	outsl	(%rsi), %dx
     34f:	72 79 	jb	121 <video.c+0x3ca>
     351:	45 6e 	outsb	(%rsi), %dx
     353:	74 72 	je	114 <video.c+0x3c7>
     355:	79 55 	jns	85 <video.c+0x3ac>
     357:	73 61 	jae	97 <video.c+0x3ba>
     359:	62  <unknown>
     35a:	6c 	insb	%dx, %es:(%rdi)
     35b:	65 00 67 65 	addb	%ah, %gs:101(%rdi)
     35f:	74 55 	je	85 <video.c+0x3b6>
     361:	73 61 	jae	97 <video.c+0x3c4>
     363:	62  <unknown>
     364:	6c 	insb	%dx, %es:(%rdi)
     365:	65 53 	pushq	%rbx
     367:	79 73 	jns	115 <video.c+0x3dc>
     369:	74 65 	je	101 <video.c+0x3d0>
     36b:	6d 	insl	%dx, %es:(%rdi)
     36c:	4d 65 	gs
     36e:	6d 	insl	%dx, %es:(%rdi)
     36f:	6f 	outsl	(%rsi), %dx
     370:	72 79 	jb	121 <video.c+0x3eb>
     372:	00 74 6f 74 	addb	%dh, 116(%rdi,%rbp,2)
     376:	61  <unknown>
     377:	6c 	insb	%dx, %es:(%rdi)
     378:	00 65 6e 	addb	%ah, 110(%rbp)
     37b:	74 72 	je	114 <video.c+0x3ef>
     37d:	79 00 	jns	0 <video.c+0x37f>
     37f:	66 69 72 73 74 45 	imulw	$17780, 115(%rdx), %si
     385:	6e 	outsb	(%rsi), %dx
     386:	74 72 	je	114 <video.c+0x3fa>
     388:	79 00 	jns	0 <video.c+0x38a>
     38a:	62  <unknown>
     38b:	69 74 6d 61 70 53 65 74 	imull	$1952797552, 97(%rbp,%rbp,2), %esi
     393:	00 76 61 	addb	%dh, 97(%rsi)
     396:	6c 	insb	%dx, %es:(%rdi)
     397:	75 65 	jne	101 <video.c+0x3fe>
     399:	00 62 69 	addb	%ah, 105(%rdx)
     39c:	74 6d 	je	109 <video.c+0x40b>
     39e:	61  <unknown>
     39f:	70 00 	jo	0 <video.c+0x3a1>
     3a1:	74 6f 	je	111 <video.c+0x412>
     3a3:	54 	pushq	%rsp
     3a4:	65 73 74 	jae	116 <video.c+0x41b>
     3a7:	00 62 69 	addb	%ah, 105(%rdx)
     3aa:	74 6d 	je	109 <video.c+0x419>
     3ac:	61  <unknown>
     3ad:	70 46 	jo	70 <video.c+0x3f5>
     3af:	69 72 73 74 5a 65 72 	imull	$1919244916, 115(%rdx), %esi
     3b6:	69 42 69 74 00 62 69 	imull	$1768030324, 105(%rdx), %eax
     3bd:	74 6d 	je	109 <video.c+0x42c>
     3bf:	61  <unknown>
     3c0:	70 47 	jo	71 <video.c+0x409>
     3c2:	65 74 00 	je	0 <video.c+0x3c5>
     3c5:	73 69 	jae	105 <video.c+0x430>
     3c7:	7a 65 	jp	101 <video.c+0x42e>
     3c9:	00 62 69 	addb	%ah, 105(%rdx)
     3cc:	74 6d 	je	109 <video.c+0x43b>
     3ce:	61  <unknown>
     3cf:	70 5f 	jo	95 <video.c+0x430>
     3d1:	74 00 	je	0 <video.c+0x3d3>
     3d3:	52 	pushq	%rdx
     3d4:	65 71 75 	jno	117 <video.c+0x44c>
     3d7:	65 73 74 	jae	116 <video.c+0x44e>
     3da:	50 	pushq	%rax
     3db:	68 79 73 69 63 	pushq	$1667855225
     3e0:	61  <unknown>
     3e1:	6c 	insb	%dx, %es:(%rdi)
     3e2:	50 	pushq	%rax
     3e3:	61  <unknown>
     3e4:	67 65 00 66 69 	addb	%ah, %gs:105(%esi)
     3e9:	72 73 	jb	115 <video.c+0x45e>
     3eb:	74 55 	je	85 <video.c+0x442>
     3ed:	6e 	outsb	(%rsi), %dx
     3ee:	72 65 	jb	101 <video.c+0x455>
     3f0:	73 65 	jae	101 <video.c+0x457>
     3f2:	72 76 	jb	118 <video.c+0x46a>
     3f4:	65 64 50 	pushq	%rax
     3f7:	61  <unknown>
     3f8:	67 65 00 69 73 	addb	%ch, %gs:115(%ecx)
     3fd:	50 	pushq	%rax
     3fe:	61  <unknown>
     3ff:	67 65 52 	pushq	%rdx
     402:	65 73 65 	jae	101 <video.c+0x46a>
     405:	72 76 	jb	118 <video.c+0x47d>
     407:	65 64 00 70 61 	addb	%dh, %fs:97(%rax)
     40c:	67 65 43 6f 	outsl	%gs:(%esi), %dx
     410:	75 6e 	jne	110 <video.c+0x480>
     412:	74 00 	je	0 <video.c+0x414>
     414:	70 61 	jo	97 <video.c+0x477>
     416:	67 65 4e 75 6d 	jne	109 <video.c+0x488>
     41b:	62  <unknown>
     41c:	65 72 00 	jb	0 <video.c+0x41f>
     41f:	61  <unknown>
     420:	64 64 72 65 	jb	101 <video.c+0x489>
     424:	73 73 	jae	115 <video.c+0x499>
     426:	00 70 68 	addb	%dh, 104(%rax)
     429:	79 73 	jns	115 <video.c+0x49e>
     42b:	69 63 61 6c 50 61 67 	imull	$1734430828, 97(%rbx), %esp
     432:	65 42 69 74 6d 61 70 00 69 73 	imull	$1936261232, %gs:97(%rbp,%r13,2), %esi
     43c:	50 	pushq	%rax
     43d:	68 79 73 69 63 	pushq	$1667855225
     442:	61  <unknown>
     443:	6c 	insb	%dx, %es:(%rdi)
     444:	50 	pushq	%rax
     445:	61  <unknown>
     446:	67 65 46 72 61 	jb	97 <video.c+0x4ac>
     44b:	6d 	insl	%dx, %es:(%rdi)
     44c:	65 41 6c 	insb	%dx, %es:(%rdi)
     44f:	6c 	insb	%dx, %es:(%rdi)
     450:	6f 	outsl	(%rsi), %dx
     451:	63  <unknown>
     452:	61  <unknown>
     453:	74 69 	je	105 <video.c+0x4be>
     455:	6f 	outsl	(%rsi), %dx
     456:	6e 	outsb	(%rsi), %dx
     457:	49 6e 	outsb	(%rsi), %dx
     459:	69 74 69 61 6c 69 7a 65 	imull	$1702521196, 97(%rcx,%rbp,2), %esi
     461:	64 00 75 6e 	addb	%dh, %fs:110(%rbp)
     465:	72 65 	jb	101 <video.c+0x4cc>
     467:	73 65 	jae	101 <video.c+0x4ce>
     469:	72 76 	jb	118 <video.c+0x4e1>
     46b:	65 50 	pushq	%rax
     46d:	61  <unknown>
     46e:	67 65 73 00 	jae	0 <video.c+0x472>
     472:	67 64 74 72 	je	114 <video.c+0x4e8>
     476:	00 6c 69 6d 	addb	%ch, 109(%rcx,%rbp,2)
     47a:	69 74 5f 68 69 67 68 00 	imull	$6842217, 104(%rdi,%rbx,2), %esi
     482:	61  <unknown>
     483:	63  <unknown>
     484:	63  <unknown>
     485:	65 73 73 	jae	115 <video.c+0x4fb>
     488:	00 67 72 	addb	%ah, 114(%rdi)
     48b:	61  <unknown>
     48c:	6e 	outsb	(%rsi), %dx
     48d:	75 6c 	jne	108 <video.c+0x4fb>
     48f:	61  <unknown>
     490:	72 69 	jb	105 <video.c+0x4fb>
     492:	74 79 	je	121 <video.c+0x50d>
     494:	00 67 64 	addb	%ah, 100(%rdi)
     497:	74 72 	je	114 <video.c+0x50b>
     499:	5f 	popq	%rdi
     49a:	74 00 	je	0 <video.c+0x49c>
     49c:	67 64 74 45 	je	69 <video.c+0x4e5>
     4a0:	6e 	outsb	(%rsi), %dx
     4a1:	74 72 	je	114 <video.c+0x515>
     4a3:	79 5f 	jns	95 <video.c+0x504>
     4a5:	74 00 	je	0 <video.c+0x4a7>
     4a7:	62  <unknown>
     4a8:	61  <unknown>
     4a9:	73 65 	jae	101 <video.c+0x510>
     4ab:	5f 	popq	%rdi
     4ac:	68 69 67 68 00 	pushq	$6842217
     4b1:	62  <unknown>
     4b2:	61  <unknown>
     4b3:	73 65 	jae	101 <video.c+0x51a>
     4b5:	00 6c 69 6d 	addb	%ch, 109(%rcx,%rbp,2)
     4b9:	69 74 00 6e 75 6d 62 65 	imull	$1700949365, 110(%rax,%rax), %esi
     4c1:	72 00 	jb	0 <video.c+0x4c3>
     4c3:	62  <unknown>
     4c4:	61  <unknown>
     4c5:	73 65 	jae	101 <video.c+0x52c>
     4c7:	5f 	popq	%rdi
     4c8:	6c 	insb	%dx, %es:(%rdi)
     4c9:	6f 	outsl	(%rsi), %dx
     4ca:	77 00 	ja	0 <video.c+0x4cc>
     4cc:	67 64 74 65 	je	101 <video.c+0x535>
     4d0:	6e 	outsb	(%rsi), %dx
     4d1:	74 72 	je	114 <video.c+0x545>
     4d3:	69 65 73 00 6f 66 66 	imull	$1717989120, 115(%rbp), %esp
     4da:	73 65 	jae	101 <video.c+0x541>
     4dc:	74 00 	je	0 <video.c+0x4de>
     4de:	6c 	insb	%dx, %es:(%rdi)
     4df:	6f 	outsl	(%rsi), %dx
     4e0:	61  <unknown>
     4e1:	64 47 44  <unknown>
     4e4:	54 	pushq	%rsp
     4e5:	00 62 61 	addb	%ah, 97(%rdx)
     4e8:	73 65 	jae	101 <video.c+0x54f>
     4ea:	5f 	popq	%rdi
     4eb:	6d 	insl	%dx, %es:(%rdi)
     4ec:	69 64 64 6c 65 00 67 64 	imull	$1684471909, 108(%rsp,%riz,2), %esp
     4f4:	74 53 	je	83 <video.c+0x549>
     4f6:	65 74 45 	je	69 <video.c+0x53e>
     4f9:	6e 	outsb	(%rsi), %dx
     4fa:	74 72 	je	114 <video.c+0x56e>
     4fc:	79 00 	jns	0 <video.c+0x4fe>
     4fe:	6c 	insb	%dx, %es:(%rdi)
     4ff:	69 6d 69 74 5f 6c 6f 	imull	$1869373300, 105(%rbp), %ebp
     506:	77 00 	ja	0 <video.c+0x508>
     508:	70 61 	jo	97 <video.c+0x56b>
     50a:	64 64 72 00 	jb	0 <video.c+0x50e>
     50e:	69 67 6e 6f 72 65 64 	imull	$1684370031, 110(%rdi), %esp
     515:	30 00 	xorb	%al, (%rax)
     517:	69 67 6e 6f 72 65 64 	imull	$1684370031, 110(%rdi), %esp
     51e:	31 00 	xorl	%eax, (%rax)
     520:	69 67 6e 6f 72 65 64 	imull	$1684370031, 110(%rdi), %esp
     527:	32 00 	xorb	(%rax), %al
     529:	70 6d 	jo	109 <video.c+0x598>
     52b:	6c 	insb	%dx, %es:(%rdi)
     52c:	34 00 	xorb	$0, %al
     52e:	6d 	insl	%dx, %es:(%rdi)
     52f:	61  <unknown>
     530:	70 50 	jo	80 <video.c+0x582>
     532:	68 79 73 69 63 	pushq	$1667855225
     537:	61  <unknown>
     538:	6c 	insb	%dx, %es:(%rdi)
     539:	54 	pushq	%rsp
     53a:	6f 	outsl	(%rsi), %dx
     53b:	56 	pushq	%rsi
     53c:	69 72 74 75 61 6c 41 	imull	$1097621877, 116(%rdx), %esi
     543:	64 64 72 00 	jb	0 <video.c+0x547>
     547:	61  <unknown>
     548:	63  <unknown>
     549:	63  <unknown>
     54a:	65 73 73 	jae	115 <video.c+0x5c0>
     54d:	65 64 00 50 4d 	addb	%dl, %fs:77(%rax)
     552:	4c 34 45 	xorb	$69, %al
     555:	6e 	outsb	(%rsi), %dx
     556:	74 72 	je	114 <video.c+0x5ca>
     558:	79 5f 	jns	95 <video.c+0x5b9>
     55a:	74 00 	je	0 <video.c+0x55c>
     55c:	70 64 	jo	100 <video.c+0x5c2>
     55e:	70 74 	jo	116 <video.c+0x5d4>
     560:	69 6e 64 65 78 00 67 	imull	$1728084069, 100(%rsi), %ebp
     567:	6c 	insb	%dx, %es:(%rdi)
     568:	6f 	outsl	(%rsi), %dx
     569:	62 61 6c 00 70  <unknown>
     56e:	61  <unknown>
     56f:	67 65 44 69 72 65 63 74 6f 72 	imull	$1919906915, %gs:101(%edx), %r14d
     579:	79 5f 	jns	95 <video.c+0x5da>
     57b:	74 00 	je	0 <video.c+0x57d>
     57d:	50 	pushq	%rax
     57e:	4d 4c  <unknown>
     580:	34 5f 	xorb	$95, %al
     582:	74 00 	je	0 <video.c+0x584>
     584:	70 64 	jo	100 <video.c+0x5ea>
     586:	69 6e 64 65 78 00 70 	imull	$1879079013, 100(%rsi), %ebp
     58d:	61  <unknown>
     58e:	67 65 44 69 72 65 63 74 6f 72 	imull	$1919906915, %gs:101(%edx), %r14d
     598:	79 45 	jns	69 <video.c+0x5df>
     59a:	6e 	outsb	(%rsi), %dx
     59b:	74 72 	je	114 <video.c+0x60f>
     59d:	79 5f 	jns	95 <video.c+0x5fe>
     59f:	74 00 	je	0 <video.c+0x5a1>
     5a1:	64 69 72 65 63 74 6f 72 	imull	$1919906915, %fs:101(%rdx), %esi
     5a9:	79 00 	jns	0 <video.c+0x5ab>
     5ab:	72 65 	jb	101 <video.c+0x612>
     5ad:	73 65 	jae	101 <video.c+0x614>
     5af:	72 76 	jb	118 <video.c+0x627>
     5b1:	65 64 30 00 	xorb	%al, %fs:(%rax)
     5b5:	63  <unknown>
     5b6:	75 72 	jne	114 <video.c+0x62a>
     5b8:	72 65 	jb	101 <video.c+0x61f>
     5ba:	6e 	outsb	(%rsi), %dx
     5bb:	74 50 	je	80 <video.c+0x60d>
     5bd:	4d 4c  <unknown>
     5bf:	34 00 	xorb	$0, %al
     5c1:	73 65 	jae	101 <video.c+0x628>
     5c3:	74 41 	je	65 <video.c+0x606>
     5c5:	73 43 	jae	67 <video.c+0x60a>
     5c7:	75 72 	jne	114 <video.c+0x63b>
     5c9:	72 65 	jb	101 <video.c+0x630>
     5cb:	6e 	outsb	(%rsi), %dx
     5cc:	74 50 	je	80 <video.c+0x61e>
     5ce:	4d 4c  <unknown>
     5d0:	34 00 	xorb	$0, %al
     5d2:	70 64 	jo	100 <video.c+0x638>
     5d4:	70 74 	jo	116 <video.c+0x64a>
     5d6:	00 70 72 	addb	%dh, 114(%rax)
     5d9:	69 76 69 6c 65 67 65 	imull	$1701274988, 105(%rsi), %esi
     5e0:	00 67 65 	addb	%ah, 101(%rdi)
     5e3:	74 43 	je	67 <video.c+0x628>
     5e5:	75 72 	jne	114 <video.c+0x659>
     5e7:	72 65 	jb	101 <video.c+0x64e>
     5e9:	6e 	outsb	(%rsi), %dx
     5ea:	74 50 	je	80 <video.c+0x63c>
     5ec:	4d 4c  <unknown>
     5ee:	34 00 	xorb	$0, %al
     5f0:	70 6d 	jo	109 <video.c+0x65f>
     5f2:	6c 	insb	%dx, %es:(%rdi)
     5f3:	34 69 	xorb	$105, %al
     5f5:	6e 	outsb	(%rsi), %dx
     5f6:	64 65 78 00 	js	0 <video.c+0x5fa>
     5fa:	64 69 72 74 79 00 70 61 	imull	$1634730105, %fs:116(%rdx), %esi
     602:	67 65 54 	pushq	%rsp
     605:	61  <unknown>
     606:	62  <unknown>
     607:	6c 	insb	%dx, %es:(%rdi)
     608:	65 5f 	popq	%rdi
     60a:	74 00 	je	0 <video.c+0x60c>
     60c:	65 78 65 	js	101 <video.c+0x674>
     60f:	63  <unknown>
     610:	64 69 73 61 62 6c 65 00 	imull	$6646882, %fs:97(%rbx), %esi
     618:	76 61 	jbe	97 <video.c+0x67b>
     61a:	64 64 72 00 	jb	0 <video.c+0x61e>
     61e:	6b 65 72 6e 	imull	$110, 114(%rbp), %esp
     622:	65 6c 	insb	%dx, %es:(%rdi)
     624:	50 	pushq	%rax
     625:	4d 4c  <unknown>
     627:	34 00 	xorb	$0, %al
     629:	70 61 	jo	97 <video.c+0x68c>
     62b:	67 65 44 69 72 65 63 74 6f 72 	imull	$1919906915, %gs:101(%edx), %r14d
     635:	79 50 	jns	80 <video.c+0x687>
     637:	6f 	outsl	(%rsi), %dx
     638:	69 6e 74 65 72 54 61 	imull	$1632924261, 116(%rsi), %ebp
     63f:	62  <unknown>
     640:	6c 	insb	%dx, %es:(%rdi)
     641:	65 45 6e 	outsb	%gs:(%rsi), %dx
     644:	74 72 	je	114 <video.c+0x6b8>
     646:	79 5f 	jns	95 <video.c+0x6a7>
     648:	74 00 	je	0 <video.c+0x64a>
     64a:	5f 	popq	%rdi
     64b:	5f 	popq	%rdi
     64c:	6e 	outsb	(%rsi), %dx
     64d:	61  <unknown>
     64e:	74 69 	je	105 <video.c+0x6b9>
     650:	76 65 	jbe	101 <video.c+0x6b7>
     652:	5f 	popq	%rdi
     653:	66 6c 	insb	%dx, %es:(%rdi)
     655:	75 73 	jne	115 <video.c+0x6ca>
     657:	68 5f 74 6c 62 	pushq	$1651274847
     65c:	5f 	popq	%rdi
     65d:	73 69 	jae	105 <video.c+0x6c8>
     65f:	6e 	outsb	(%rsi), %dx
     660:	67 6c 	insb	%dx, %es:(%edi)
     662:	65 00 66 72 	addb	%ah, %gs:114(%rsi)
     666:	6f 	outsl	(%rsi), %dx
     667:	6d 	insl	%dx, %es:(%rdi)
     668:	00 6c 6f 61 	addb	%ch, 97(%rdi,%rbp,2)
     66c:	64 43 75 72 	jne	114 <video.c+0x6e2>
     670:	72 65 	jb	101 <video.c+0x6d7>
     672:	6e 	outsb	(%rsi), %dx
     673:	74 50 	je	80 <video.c+0x6c5>
     675:	4d 4c  <unknown>
     677:	34 00 	xorb	$0, %al
     679:	70 61 	jo	97 <video.c+0x6dc>
     67b:	67 65 54 	pushq	%rsp
     67e:	61  <unknown>
     67f:	62  <unknown>
     680:	6c 	insb	%dx, %es:(%rdi)
     681:	65 45 6e 	outsb	%gs:(%rsi), %dx
     684:	74 72 	je	114 <video.c+0x6f8>
     686:	79 5f 	jns	95 <video.c+0x6e7>
     688:	74 00 	je	0 <video.c+0x68a>
     68a:	70 61 	jo	97 <video.c+0x6ed>
     68c:	67 65 44 69 72 65 63 74 6f 72 	imull	$1919906915, %gs:101(%edx), %r14d
     696:	79 50 	jns	80 <video.c+0x6e8>
     698:	6f 	outsl	(%rsi), %dx
     699:	69 6e 74 65 72 54 61 	imull	$1632924261, 116(%rsi), %ebp
     6a0:	62  <unknown>
     6a1:	6c 	insb	%dx, %es:(%rdi)
     6a2:	65 5f 	popq	%rdi
     6a4:	74 00 	je	0 <video.c+0x6a6>
     6a6:	70 72 	jo	114 <video.c+0x71a>
     6a8:	65 73 65 	jae	101 <video.c+0x710>
     6ab:	6e 	outsb	(%rsi), %dx
     6ac:	74 00 	je	0 <video.c+0x6ae>
     6ae:	67 65 74 50 	je	80 <video.c+0x702>
     6b2:	68 79 73 69 63 	pushq	$1667855225
     6b7:	61  <unknown>
     6b8:	6c 	insb	%dx, %es:(%rdi)
     6b9:	41 64 	fs
     6bb:	64 72 65 	jb	101 <video.c+0x723>
     6be:	73 73 	jae	115 <video.c+0x733>
     6c0:	00 70 72 	addb	%dh, 114(%rax)
     6c3:	6f 	outsl	(%rsi), %dx
     6c4:	74 65 	je	101 <video.c+0x72b>
     6c6:	63  <unknown>
     6c7:	74 69 	je	105 <video.c+0x732>
     6c9:	6f 	outsl	(%rsi), %dx
     6ca:	6e 	outsb	(%rsi), %dx
     6cb:	00 7a 65 	addb	%bh, 101(%rdx)
     6ce:	72 6f 	jb	111 <video.c+0x73f>
     6d0:	00 68 65 	addb	%ch, 101(%rax)
     6d3:	61  <unknown>
     6d4:	70 5f 	jo	95 <video.c+0x735>
     6d6:	74 00 	je	0 <video.c+0x6d8>
     6d8:	61  <unknown>
     6d9:	74 74 	je	116 <video.c+0x74f>
     6db:	72 69 	jb	105 <video.c+0x746>
     6dd:	62  <unknown>
     6de:	75 74 	jne	116 <video.c+0x754>
     6e0:	65 73 00 	jae	0 <video.c+0x6e3>
     6e3:	62 61 64 64 72  <unknown>
     6e8:	00 61 66 	addb	%ah, 102(%rcx)
     6eb:	74 65 	je	101 <video.c+0x752>
     6ed:	72 66 	jb	102 <video.c+0x755>
     6ef:	75 6c 	jne	108 <video.c+0x75d>
     6f1:	6c 	insb	%dx, %es:(%rdi)
     6f2:	00 73 74 	addb	%dh, 116(%rbx)
     6f5:	61  <unknown>
     6f6:	72 74 	jb	116 <video.c+0x76c>
     6f8:	45 6e 	outsb	(%rsi), %dx
     6fa:	74 72 	je	114 <video.c+0x76e>
     6fc:	79 00 	jns	0 <video.c+0x6fe>
     6fe:	62  <unknown>
     6ff:	65 66 6f 	outsw	%gs:(%rsi), %dx
     702:	72 65 	jb	101 <video.c+0x769>
     704:	66 75 6c 	jne	108 <video.c+0x773>
     707:	6c 	insb	%dx, %es:(%rdi)
     708:	00 68 65 	addb	%ch, 101(%rax)
     70b:	61  <unknown>
     70c:	70 00 	jo	0 <video.c+0x70e>
     70e:	68 65 61 70 45 	pushq	$1164992869
     713:	6e 	outsb	(%rsi), %dx
     714:	74 72 	je	114 <video.c+0x788>
     716:	79 5f 	jns	95 <video.c+0x777>
     718:	74 00 	je	0 <video.c+0x71a>
     71a:	63  <unknown>
     71b:	75 72 	jne	114 <video.c+0x78f>
     71d:	72 65 	jb	101 <video.c+0x784>
     71f:	6e 	outsb	(%rsi), %dx
     720:	74 48 	je	72 <video.c+0x76a>
     722:	65 61  <unknown>
     724:	70 00 	jo	0 <video.c+0x726>
     726:	65 78 70 	js	112 <video.c+0x799>
     729:	61  <unknown>
     72a:	6e 	outsb	(%rsi), %dx
     72b:	64 48 65 	gs
     72e:	61  <unknown>
     72f:	70 00 	jo	0 <video.c+0x731>
     731:	68 65 61 70 4c 	pushq	$1282433381
     736:	61  <unknown>
     737:	73 74 	jae	116 <video.c+0x7ad>
     739:	00 48 65 	addb	%cl, 101(%rax)
     73c:	61  <unknown>
     73d:	70 45 	jo	69 <video.c+0x784>
     73f:	6e 	outsb	(%rsi), %dx
     740:	74 72 	je	114 <video.c+0x7b4>
     742:	79 00 	jns	0 <video.c+0x744>
     744:	62  <unknown>
     745:	65 66 6f 	outsw	%gs:(%rsi), %dx
     748:	72 65 	jb	101 <video.c+0x7af>
     74a:	00 6b 66 	addb	%ch, 102(%rbx)
     74d:	72 65 	jb	101 <video.c+0x7b4>
     74f:	65 00 73 70 	addb	%dh, %gs:112(%rbx)
     753:	61  <unknown>
     754:	63  <unknown>
     755:	65 4e 65 	gs
     758:	65 64 65 64 00 6b 65 	addb	%ch, %fs:101(%rbx)
     75f:	72 6e 	jb	110 <video.c+0x7cf>
     761:	65 6c 	insb	%dx, %es:(%rdi)
     763:	48 65 	gs
     765:	61  <unknown>
     766:	70 00 	jo	0 <video.c+0x768>
     768:	6b 6d 61 6c 	imull	$108, 97(%rbp), %ebp
     76c:	6c 	insb	%dx, %es:(%rdi)
     76d:	6f 	outsl	(%rsi), %dx
     76e:	63  <unknown>
     76f:	00 6e 65 	addb	%ch, 101(%rsi)
     772:	77 45 	ja	69 <video.c+0x7b9>
     774:	6e 	outsb	(%rsi), %dx
     775:	74 72 	je	114 <video.c+0x7e9>
     777:	79 00 	jns	0 <video.c+0x779>
     779:	72 6f 	jb	111 <video.c+0x7ea>
     77b:	6f 	outsl	(%rsi), %dx
     77c:	74 45 	je	69 <video.c+0x7c3>
     77e:	6e 	outsb	(%rsi), %dx
     77f:	74 72 	je	114 <video.c+0x7f3>
     781:	79 00 	jns	0 <video.c+0x783>
     783:	6e 	outsb	(%rsi), %dx
     784:	65 78 74 	js	116 <video.c+0x7fb>
     787:	00 6f 75 	addb	%ch, 117(%rdi)
     78a:	74 62 	je	98 <video.c+0x7ee>
     78c:	00 69 6f 	addb	%ch, 111(%rcx)
     78f:	5f 	popq	%rdi
     790:	77 61 	ja	97 <video.c+0x7f3>
     792:	69 74 00 72 65 73 75 6c 	imull	$1819636581, 114(%rax,%rax), %esi
     79a:	74 00 	je	0 <video.c+0x79c>
     79c:	70 6f 	jo	111 <video.c+0x80d>
     79e:	72 74 	jb	116 <video.c+0x814>
     7a0:	00 64 61 74 	addb	%ah, 116(%rcx,%riz,2)
     7a4:	61  <unknown>
     7a5:	00 6f 75 	addb	%ch, 117(%rdi)
     7a8:	74 77 	je	119 <video.c+0x821>
     7aa:	00 69 73 	addb	%ch, 115(%rcx)
     7ad:	72 32 	jb	50 <video.c+0x7e1>
     7af:	30 00 	xorb	%al, (%rax)
     7b1:	69 72 71 31 00 69 72 	imull	$1919483953, 113(%rdx), %esi
     7b8:	71 32 	jno	50 <video.c+0x7ec>
     7ba:	00 69 72 	addb	%ch, 114(%rcx)
     7bd:	71 33 	jno	51 <video.c+0x7f2>
     7bf:	00 69 72 	addb	%ch, 114(%rcx)
     7c2:	71 34 	jno	52 <video.c+0x7f8>
     7c4:	00 6f 66 	addb	%ch, 102(%rdi)
     7c7:	66 73 65 	jae	101 <video.c+0x82f>
     7ca:	74 33 	je	51 <video.c+0x7ff>
     7cc:	32 5f 36 	xorb	54(%rdi), %bl
     7cf:	33 00 	xorl	(%rax), %eax
     7d1:	69 72 71 36 00 69 72 	imull	$1919483958, 113(%rdx), %esi
     7d8:	71 37 	jno	55 <video.c+0x811>
     7da:	00 69 72 	addb	%ch, 114(%rcx)
     7dd:	71 38 	jno	56 <video.c+0x817>
     7df:	00 69 72 	addb	%ch, 114(%rcx)
     7e2:	71 39 	jno	57 <video.c+0x81d>
     7e4:	00 69 72 	addb	%ch, 114(%rcx)
     7e7:	71 31 	jno	49 <video.c+0x81a>
     7e9:	32 00 	xorb	(%rax), %al
     7eb:	7a 65 	jp	101 <video.c+0x852>
     7ed:	72 6f 	jb	111 <video.c+0x85e>
     7ef:	31 00 	xorl	%eax, (%rax)
     7f1:	69 64 74 5f 74 00 69 73 	imull	$1936261236, 95(%rsp,%rsi,2), %esp
     7f9:	72 30 	jb	48 <video.c+0x82b>
     7fb:	00 69 73 	addb	%ch, 115(%rcx)
     7fe:	72 31 	jb	49 <video.c+0x831>
     800:	00 63 75 	addb	%ah, 117(%rbx)
     803:	72 72 	jb	114 <video.c+0x877>
     805:	65 6e 	outsb	%gs:(%rsi), %dx
     807:	74 49 	je	73 <video.c+0x852>
     809:	44 54 	pushq	%rsp
     80b:	00 69 73 	addb	%ch, 115(%rcx)
     80e:	72 34 	jb	52 <video.c+0x844>
     810:	00 69 73 	addb	%ch, 115(%rcx)
     813:	72 35 	jb	53 <video.c+0x84a>
     815:	00 69 73 	addb	%ch, 115(%rcx)
     818:	72 36 	jb	54 <video.c+0x850>
     81a:	00 69 73 	addb	%ch, 115(%rcx)
     81d:	72 37 	jb	55 <video.c+0x856>
     81f:	00 69 73 	addb	%ch, 115(%rcx)
     822:	72 38 	jb	56 <video.c+0x85c>
     824:	00 69 73 	addb	%ch, 115(%rcx)
     827:	72 39 	jb	57 <video.c+0x862>
     829:	00 69 73 	addb	%ch, 115(%rcx)
     82c:	72 33 	jb	51 <video.c+0x861>
     82e:	30 00 	xorb	%al, (%rax)
     830:	69 72 71 30 00 69 72 	imull	$1919483952, 113(%rdx), %esi
     837:	71 35 	jno	53 <video.c+0x86e>
     839:	00 76 65 	addb	%dh, 101(%rsi)
     83c:	63  <unknown>
     83d:	4e 75 6d 	jne	109 <video.c+0x8ad>
     840:	00 73 65 	addb	%dh, 101(%rbx)
     843:	6c 	insb	%dx, %es:(%rdi)
     844:	65 63  <unknown>
     846:	74 6f 	je	111 <video.c+0x8b7>
     848:	72 00 	jb	0 <video.c+0x84a>
     84a:	69 73 72 31 32 00 69 	imull	$1761620529, 114(%rbx), %esi
     851:	64 74 45 	je	69 <video.c+0x899>
     854:	6e 	outsb	(%rsi), %dx
     855:	74 72 	je	114 <video.c+0x8c9>
     857:	69 65 73 00 6f 66 66 	imull	$1717989120, 115(%rbp), %esp
     85e:	73 65 	jae	101 <video.c+0x8c5>
     860:	74 31 	je	49 <video.c+0x893>
     862:	36 5f 	popq	%rdi
     864:	33 31 	xorl	(%rcx), %esi
     866:	00 69 72 	addb	%ch, 114(%rcx)
     869:	71 31 	jno	49 <video.c+0x89c>
     86b:	30 00 	xorb	%al, (%rax)
     86d:	69 72 71 31 31 00 69 	imull	$1761620273, 113(%rdx), %esi
     874:	72 71 	jb	113 <video.c+0x8e7>
     876:	31 33 	xorl	%esi, (%rbx)
     878:	00 69 72 	addb	%ch, 114(%rcx)
     87b:	71 31 	jno	49 <video.c+0x8ae>
     87d:	34 00 	xorb	$0, %al
     87f:	69 72 71 31 35 00 6f 	imull	$1862284593, 113(%rdx), %esi
     886:	66 66 73 65 	jae	101 <video.c+0x8ef>
     88a:	74 30 	je	48 <video.c+0x8bc>
     88c:	5f 	popq	%rdi
     88d:	31 35 00 63 72 65 	xorl	%esi, 1701995264(%rip)
     893:	61  <unknown>
     894:	74 65 	je	101 <video.c+0x8fb>
     896:	49 64 	fs
     898:	74 47 	je	71 <video.c+0x8e1>
     89a:	61  <unknown>
     89b:	74 65 	je	101 <video.c+0x902>
     89d:	00 69 73 	addb	%ch, 115(%rcx)
     8a0:	72 31 	jb	49 <video.c+0x8d3>
     8a2:	30 00 	xorb	%al, (%rax)
     8a4:	69 73 72 31 31 00 69 	imull	$1761620273, 114(%rbx), %esi
     8ab:	73 72 	jae	114 <video.c+0x91f>
     8ad:	31 33 	xorl	%esi, (%rbx)
     8af:	00 69 73 	addb	%ch, 115(%rcx)
     8b2:	72 31 	jb	49 <video.c+0x8e5>
     8b4:	34 00 	xorb	$0, %al
     8b6:	69 73 72 31 36 00 69 	imull	$1761621553, 114(%rbx), %esi
     8bd:	73 72 	jae	114 <video.c+0x931>
     8bf:	31 37 	xorl	%esi, (%rdi)
     8c1:	00 69 73 	addb	%ch, 115(%rcx)
     8c4:	72 31 	jb	49 <video.c+0x8f7>
     8c6:	38 00 	cmpb	%al, (%rax)
     8c8:	69 73 72 31 39 00 61 	imull	$1627404593, 114(%rbx), %esi
     8cf:	74 74 	je	116 <video.c+0x945>
     8d1:	72 00 	jb	0 <video.c+0x8d3>
     8d3:	69 73 72 32 00 69 73 	imull	$1936261170, 114(%rbx), %esi
     8da:	72 33 	jb	51 <video.c+0x90f>
     8dc:	00 69 64 	addb	%ch, 100(%rcx)
     8df:	74 5f 	je	95 <video.c+0x940>
     8e1:	66 6c 	insb	%dx, %es:(%rdi)
     8e3:	75 73 	jne	115 <video.c+0x958>
     8e5:	68 00 69 64 65 	pushq	$1701079296
     8ea:	45 6e 	outsb	(%rsi), %dx
     8ec:	74 72 	je	114 <video.c+0x960>
     8ee:	79 5f 	jns	95 <video.c+0x94f>
     8f0:	74 00 	je	0 <video.c+0x8f2>
     8f2:	69 6e 69 74 5f 70 69 	imull	$1768972148, 105(%rsi), %ebp
     8f9:	63  <unknown>
     8fa:	00 69 73 	addb	%ch, 115(%rcx)
     8fd:	72 31 	jb	49 <video.c+0x930>
     8ff:	36 5f 	popq	%rdi
     901:	68 61 6e 64 6c 	pushq	$1818521185
     906:	65 72 00 	jb	0 <video.c+0x909>
     909:	69 73 72 31 37 5f 68 	imull	$1751070513, 114(%rbx), %esi
     910:	61  <unknown>
     911:	6e 	outsb	(%rsi), %dx
     912:	64 6c 	insb	%dx, %es:(%rdi)
     914:	65 72 00 	jb	0 <video.c+0x917>
     917:	69 73 72 31 38 5f 68 	imull	$1751070769, 114(%rbx), %esi
     91e:	61  <unknown>
     91f:	6e 	outsb	(%rsi), %dx
     920:	64 6c 	insb	%dx, %es:(%rdi)
     922:	65 72 00 	jb	0 <video.c+0x925>
     925:	69 73 72 31 39 5f 68 	imull	$1751071025, 114(%rbx), %esi
     92c:	61  <unknown>
     92d:	6e 	outsb	(%rsi), %dx
     92e:	64 6c 	insb	%dx, %es:(%rdi)
     930:	65 72 00 	jb	0 <video.c+0x933>
     933:	69 73 72 32 30 5f 68 	imull	$1751068722, 114(%rbx), %esi
     93a:	61  <unknown>
     93b:	6e 	outsb	(%rsi), %dx
     93c:	64 6c 	insb	%dx, %es:(%rdi)
     93e:	65 72 00 	jb	0 <video.c+0x941>
     941:	69 6e 74 65 72 72 75 	imull	$1970434661, 116(%rsi), %ebp
     948:	70 74 	jo	116 <video.c+0x9be>
     94a:	5f 	popq	%rdi
     94b:	66 72 61 	jb	97 <video.c+0x9af>
     94e:	6d 	insl	%dx, %es:(%rdi)
     94f:	65 5f 	popq	%rdi
     951:	74 00 	je	0 <video.c+0x953>
     953:	66 72 61 	jb	97 <video.c+0x9b7>
     956:	6d 	insl	%dx, %es:(%rdi)
     957:	65 00 72 66 	addb	%dh, %gs:102(%rdx)
     95b:	6c 	insb	%dx, %es:(%rdi)
     95c:	61  <unknown>
     95d:	67 73 00 	jae	0 <video.c+0x960>
     960:	69 73 72 31 33 5f 68 	imull	$1751069489, 114(%rbx), %esi
     967:	61  <unknown>
     968:	6e 	outsb	(%rsi), %dx
     969:	64 6c 	insb	%dx, %es:(%rdi)
     96b:	65 72 00 	jb	0 <video.c+0x96e>
     96e:	75 73 	jne	115 <video.c+0x9e3>
     970:	65 6c 	insb	%dx, %es:(%rdi)
     972:	65 73 73 	jae	115 <video.c+0x9e8>
     975:	00 69 73 	addb	%ch, 115(%rcx)
     978:	72 30 	jb	48 <video.c+0x9aa>
     97a:	5f 	popq	%rdi
     97b:	68 61 6e 64 6c 	pushq	$1818521185
     980:	65 72 00 	jb	0 <video.c+0x983>
     983:	69 73 72 33 30 5f 68 	imull	$1751068723, 114(%rbx), %esi
     98a:	61  <unknown>
     98b:	6e 	outsb	(%rsi), %dx
     98c:	64 6c 	insb	%dx, %es:(%rdi)
     98e:	65 72 00 	jb	0 <video.c+0x991>
     991:	69 73 72 34 5f 68 61 	imull	$1634230068, 114(%rbx), %esi
     998:	6e 	outsb	(%rsi), %dx
     999:	64 6c 	insb	%dx, %es:(%rdi)
     99b:	65 72 00 	jb	0 <video.c+0x99e>
     99e:	69 73 72 31 5f 68 61 	imull	$1634230065, 114(%rbx), %esi
     9a5:	6e 	outsb	(%rsi), %dx
     9a6:	64 6c 	insb	%dx, %es:(%rdi)
     9a8:	65 72 00 	jb	0 <video.c+0x9ab>
     9ab:	69 73 72 32 5f 68 61 	imull	$1634230066, 114(%rbx), %esi
     9b2:	6e 	outsb	(%rsi), %dx
     9b3:	64 6c 	insb	%dx, %es:(%rdi)
     9b5:	65 72 00 	jb	0 <video.c+0x9b8>
     9b8:	65 72 72 	jb	114 <video.c+0xa2d>
     9bb:	5f 	popq	%rdi
     9bc:	63  <unknown>
     9bd:	6f 	outsl	(%rsi), %dx
     9be:	64 65 00 69 73 	addb	%ch, %gs:115(%rcx)
     9c3:	72 33 	jb	51 <video.c+0x9f8>
     9c5:	5f 	popq	%rdi
     9c6:	68 61 6e 64 6c 	pushq	$1818521185
     9cb:	65 72 00 	jb	0 <video.c+0x9ce>
     9ce:	69 6e 74 5f 6e 6f 00 	imull	$7302751, 116(%rsi), %ebp
     9d5:	69 73 72 35 5f 68 61 	imull	$1634230069, 114(%rbx), %esi
     9dc:	6e 	outsb	(%rsi), %dx
     9dd:	64 6c 	insb	%dx, %es:(%rdi)
     9df:	65 72 00 	jb	0 <video.c+0x9e2>
     9e2:	69 73 72 31 30 5f 68 	imull	$1751068721, 114(%rbx), %esi
     9e9:	61  <unknown>
     9ea:	6e 	outsb	(%rsi), %dx
     9eb:	64 6c 	insb	%dx, %es:(%rdi)
     9ed:	65 72 00 	jb	0 <video.c+0x9f0>
     9f0:	69 73 72 36 5f 68 61 	imull	$1634230070, 114(%rbx), %esi
     9f7:	6e 	outsb	(%rsi), %dx
     9f8:	64 6c 	insb	%dx, %es:(%rdi)
     9fa:	65 72 00 	jb	0 <video.c+0x9fd>
     9fd:	69 73 72 31 31 5f 68 	imull	$1751068977, 114(%rbx), %esi
     a04:	61  <unknown>
     a05:	6e 	outsb	(%rsi), %dx
     a06:	64 6c 	insb	%dx, %es:(%rdi)
     a08:	65 72 00 	jb	0 <video.c+0xa0b>
     a0b:	69 73 72 37 5f 68 61 	imull	$1634230071, 114(%rbx), %esi
     a12:	6e 	outsb	(%rsi), %dx
     a13:	64 6c 	insb	%dx, %es:(%rdi)
     a15:	65 72 00 	jb	0 <video.c+0xa18>
     a18:	69 73 72 31 32 5f 68 	imull	$1751069233, 114(%rbx), %esi
     a1f:	61  <unknown>
     a20:	6e 	outsb	(%rsi), %dx
     a21:	64 6c 	insb	%dx, %es:(%rdi)
     a23:	65 72 00 	jb	0 <video.c+0xa26>
     a26:	69 73 72 38 5f 68 61 	imull	$1634230072, 114(%rbx), %esi
     a2d:	6e 	outsb	(%rsi), %dx
     a2e:	64 6c 	insb	%dx, %es:(%rdi)
     a30:	65 72 00 	jb	0 <video.c+0xa33>
     a33:	69 73 72 39 5f 68 61 	imull	$1634230073, 114(%rbx), %esi
     a3a:	6e 	outsb	(%rsi), %dx
     a3b:	64 6c 	insb	%dx, %es:(%rdi)
     a3d:	65 72 00 	jb	0 <video.c+0xa40>
     a40:	69 73 72 31 34 5f 68 	imull	$1751069745, 114(%rbx), %esi
     a47:	61  <unknown>
     a48:	6e 	outsb	(%rsi), %dx
     a49:	64 6c 	insb	%dx, %es:(%rdi)
     a4b:	65 72 00 	jb	0 <video.c+0xa4e>
     a4e:	64 72 61 	jb	97 <video.c+0xab2>
     a51:	77 43 	ja	67 <video.c+0xa96>
     a53:	69 72 63 6c 65 00 64 	imull	$1677747564, 99(%rdx), %esi
     a5a:	65 6c 	insb	%dx, %es:(%rdi)
     a5c:	74 61 	je	97 <video.c+0xabf>
     a5e:	00 64 72 61 	addb	%ah, 97(%rdx,%rsi,2)
     a62:	77 56 	ja	86 <video.c+0xaba>
     a64:	4c 69 6e 65 00 66 69 6c 	imulq	$1818846720, 101(%rsi), %r13
     a6c:	6c 	insb	%dx, %es:(%rdi)
     a6d:	54 	pushq	%rsp
     a6e:	72 69 	jb	105 <video.c+0xad9>
     a70:	61  <unknown>
     a71:	6e 	outsb	(%rsi), %dx
     a72:	67 6c 	insb	%dx, %es:(%edi)
     a74:	65 00 64 72 61 	addb	%ah, %gs:97(%rdx,%rsi,2)
     a79:	77 54 	ja	84 <video.c+0xacf>
     a7b:	72 69 	jb	105 <video.c+0xae6>
     a7d:	61  <unknown>
     a7e:	6e 	outsb	(%rsi), %dx
     a7f:	67 6c 	insb	%dx, %es:(%edi)
     a81:	65 00 64 72 61 	addb	%ah, %gs:97(%rdx,%rsi,2)
     a86:	77 48 	ja	72 <video.c+0xad0>
     a88:	4c 69 6e 65 00 64 72 61 	imulq	$1634886656, 101(%rsi), %r13
     a90:	77 4c 	ja	76 <video.c+0xade>
     a92:	69 6e 65 00 66 69 6c 	imull	$1818846720, 101(%rsi), %ebp
     a99:	6c 	insb	%dx, %es:(%rdi)
     a9a:	52 	pushq	%rdx
     a9b:	65 63  <unknown>
     a9d:	74 00 	je	0 <video.c+0xa9f>
     a9f:	63  <unknown>
     aa0:	6f 	outsl	(%rsi), %dx
     aa1:	72 6e 	jb	110 <video.c+0xb11>
     aa3:	65 72 00 	jb	0 <video.c+0xaa6>
     aa6:	64 78 30 	js	48 <video.c+0xad9>
     aa9:	31 00 	xorl	%eax, (%rax)
     aab:	70 75 	jo	117 <video.c+0xb22>
     aad:	74 70 	je	112 <video.c+0xb1f>
     aaf:	69 78 65 6c 00 66 69 	imull	$1768292460, 101(%rax), %edi
     ab6:	6c 	insb	%dx, %es:(%rdi)
     ab7:	6c 	insb	%dx, %es:(%rdi)
     ab8:	43 69 72 63 6c 65 00 77 	imull	$1996514668, 99(%r10), %esi
     ac0:	68 65 72 65 00 	pushq	$6648421
     ac5:	63  <unknown>
     ac6:	6f 	outsl	(%rsi), %dx
     ac7:	6c 	insb	%dx, %es:(%rdi)
     ac8:	6f 	outsl	(%rsi), %dx
     ac9:	72 00 	jb	0 <video.c+0xacb>
     acb:	73 63 	jae	99 <video.c+0xb30>
     acd:	72 65 	jb	101 <video.c+0xb34>
     acf:	65 6e 	outsb	%gs:(%rsi), %dx
     ad1:	00 67 65 	addb	%ah, 101(%rdi)
     ad4:	74 70 	je	112 <video.c+0xb46>
     ad6:	69 78 65 6c 00 6c 61 	imull	$1634467948, 101(%rax), %edi
     add:	73 74 	jae	116 <video.c+0xb53>
     adf:	00 64 79 30 	addb	%ah, 48(%rcx,%rdi,2)
     ae3:	31 00 	xorl	%eax, (%rax)
     ae5:	64 79 30 	jns	48 <video.c+0xb18>
     ae8:	32 00 	xorb	(%rax), %al
     aea:	73 74 	jae	116 <video.c+0xb60>
     aec:	65 65 70 00 	jo	0 <video.c+0xaf0>
     af0:	64 78 30 	js	48 <video.c+0xb23>
     af3:	32 00 	xorb	(%rax), %al
     af5:	64 64 46 5f 	popq	%rdi
     af9:	78 00 	js	0 <video.c+0xafb>
     afb:	64 64 46 5f 	popq	%rdi
     aff:	79 00 	jns	0 <video.c+0xb01>
     b01:	79 73 	jns	115 <video.c+0xb76>
     b03:	74 65 	je	101 <video.c+0xb6a>
     b05:	70 00 	jo	0 <video.c+0xb07>
     b07:	64 79 31 	jns	49 <video.c+0xb3b>
     b0a:	32 00 	xorb	(%rax), %al
     b0c:	64 78 31 	js	49 <video.c+0xb40>
     b0f:	32 00 	xorb	(%rax), %al
Disassembly of section .debug_line_str:
.debug_line_str:
       0:	53 	pushq	%rbx
       1:	72 63 	jb	99 <video.c+0x66>
       3:	2f  <unknown>
       4:	4b 65 	gs
       6:	72 6e 	jb	110 <video.c+0x76>
       8:	65 6c 	insb	%dx, %es:(%rdi)
       a:	2f  <unknown>
       b:	6b 6d 61 69 	imull	$105, 97(%rbp), %ebp
       f:	6e 	outsb	(%rsi), %dx
      10:	2f  <unknown>
      11:	6b 6d 61 69 	imull	$105, 97(%rbp), %ebp
      15:	6e 	outsb	(%rsi), %dx
      16:	2e 63  <unknown>
      18:	00 2f 	addb	%ch, (%rdi)
      1a:	55 	pushq	%rbp
      1b:	73 65 	jae	101 <video.c+0x82>
      1d:	72 73 	jb	115 <video.c+0x92>
      1f:	2f  <unknown>
      20:	6f 	outsl	(%rsi), %dx
      21:	7a 67 	jp	103 <video.c+0x8a>
      23:	75 72 	jne	114 <video.c+0x97>
      25:	67 75 7a 	jne	122 <video.c+0xa2>
      28:	65 6c 	insb	%dx, %es:(%rdi)
      2a:	64 65 72 65 	jb	101 <video.c+0x93>
      2e:	6c 	insb	%dx, %es:(%rdi)
      2f:	69 2f 44 65 73 6b 	imull	$1802724676, (%rdi), %ebp
      35:	74 6f 	je	111 <video.c+0xa6>
      37:	70 2f 	jo	47 <video.c+0x68>
      39:	32 30 	xorb	(%rax), %dh
      3b:	32 31 	xorb	(%rcx), %dh
      3d:	2f  <unknown>
      3e:	4f 74 68 	je	104 <video.c+0xa9>
      41:	65 72 2f 	jb	47 <video.c+0x73>
      44:	74 72 	je	114 <video.c+0xb8>
      46:	79 35 	jns	53 <video.c+0x7d>
      48:	2f  <unknown>
      49:	4e 45  <unknown>
      4b:	57 	pushq	%rdi
      4c:	4f 53 	pushq	%r11
      4e:	44 45  <unknown>
      50:	56 	pushq	%rsi
      51:	2f  <unknown>
      52:	6e 	outsb	(%rsi), %dx
      53:	65 77 20 	ja	32 <video.c+0x76>
      56:	36 34 20 	xorb	$32, %al
      59:	62  <unknown>
      5a:	69 74 00 53 72 63 2f 4b 	imull	$1261396850, 83(%rax,%rax), %esi
      62:	65 72 6e 	jb	110 <video.c+0xd3>
      65:	65 6c 	insb	%dx, %es:(%rdi)
      67:	2f  <unknown>
      68:	6b 6d 61 69 	imull	$105, 97(%rbp), %ebp
      6c:	6e 	outsb	(%rsi), %dx
      6d:	00 53 72 	addb	%dl, 114(%rbx)
      70:	63  <unknown>
      71:	2f  <unknown>
      72:	4b 65 	gs
      74:	72 6e 	jb	110 <video.c+0xe4>
      76:	65 6c 	insb	%dx, %es:(%rdi)
      78:	2f  <unknown>
      79:	6b 6d 61 69 	imull	$105, 97(%rbp), %ebp
      7d:	6e 	outsb	(%rsi), %dx
      7e:	2f  <unknown>
      7f:	2e 2e 2f  <unknown>
      82:	54 	pushq	%rsp
      83:	79 70 	jns	112 <video.c+0xf5>
      85:	65 73 00 	jae	0 <video.c+0x88>
      88:	53 	pushq	%rbx
      89:	72 63 	jb	99 <video.c+0xee>
      8b:	2f  <unknown>
      8c:	4b 65 	gs
      8e:	72 6e 	jb	110 <video.c+0xfe>
      90:	65 6c 	insb	%dx, %es:(%rdi)
      92:	2f  <unknown>
      93:	6b 6d 61 69 	imull	$105, 97(%rbp), %ebp
      97:	6e 	outsb	(%rsi), %dx
      98:	2f  <unknown>
      99:	2e 2e 2f  <unknown>
      9c:	4d 65 	gs
      9e:	6d 	insl	%dx, %es:(%rdi)
      9f:	6f 	outsl	(%rsi), %dx
      a0:	72 79 	jb	121 <video.c+0x11b>
      a2:	00 53 72 	addb	%dl, 114(%rbx)
      a5:	63  <unknown>
      a6:	2f  <unknown>
      a7:	4b 65 	gs
      a9:	72 6e 	jb	110 <video.c+0x119>
      ab:	65 6c 	insb	%dx, %es:(%rdi)
      ad:	2f  <unknown>
      ae:	6b 6d 61 69 	imull	$105, 97(%rbp), %ebp
      b2:	6e 	outsb	(%rsi), %dx
      b3:	2f  <unknown>
      b4:	2e 2e 2f  <unknown>
      b7:	56 	pushq	%rsi
      b8:	69 64 65 6f 00 53 72 63 	imull	$1668436736, 111(%rbp,%riz,2), %esp
      c0:	2f  <unknown>
      c1:	4b 65 	gs
      c3:	72 6e 	jb	110 <video.c+0x133>
      c5:	65 6c 	insb	%dx, %es:(%rdi)
      c7:	2f  <unknown>
      c8:	6b 6d 61 69 	imull	$105, 97(%rbp), %ebp
      cc:	6e 	outsb	(%rsi), %dx
      cd:	2f  <unknown>
      ce:	2e 2e 2f  <unknown>
      d1:	4d 65 	gs
      d3:	6d 	insl	%dx, %es:(%rdi)
      d4:	6f 	outsl	(%rsi), %dx
      d5:	72 79 	jb	121 <video.c+0x150>
      d7:	2f  <unknown>
      d8:	76 6d 	jbe	109 <video.c+0x147>
      da:	6d 	insl	%dx, %es:(%rdi)
      db:	00 53 72 	addb	%dl, 114(%rbx)
      de:	63  <unknown>
      df:	2f  <unknown>
      e0:	4b 65 	gs
      e2:	72 6e 	jb	110 <video.c+0x152>
      e4:	65 6c 	insb	%dx, %es:(%rdi)
      e6:	2f  <unknown>
      e7:	6b 6d 61 69 	imull	$105, 97(%rbp), %ebp
      eb:	6e 	outsb	(%rsi), %dx
      ec:	2f  <unknown>
      ed:	2e 2e 2f  <unknown>
      f0:	49 44  <unknown>
      f2:	54 	pushq	%rsp
      f3:	00 53 72 	addb	%dl, 114(%rbx)
      f6:	63  <unknown>
      f7:	2f  <unknown>
      f8:	4b 65 	gs
      fa:	72 6e 	jb	110 <video.c+0x16a>
      fc:	65 6c 	insb	%dx, %es:(%rdi)
      fe:	2f  <unknown>
      ff:	6b 6d 61 69 	imull	$105, 97(%rbp), %ebp
     103:	6e 	outsb	(%rsi), %dx
     104:	2f  <unknown>
     105:	2e 2e 2f  <unknown>
     108:	47 44  <unknown>
     10a:	54 	pushq	%rsp
     10b:	00 53 72 	addb	%dl, 114(%rbx)
     10e:	63  <unknown>
     10f:	2f  <unknown>
     110:	4b 65 	gs
     112:	72 6e 	jb	110 <video.c+0x182>
     114:	65 6c 	insb	%dx, %es:(%rdi)
     116:	2f  <unknown>
     117:	6b 6d 61 69 	imull	$105, 97(%rbp), %ebp
     11b:	6e 	outsb	(%rsi), %dx
     11c:	2f  <unknown>
     11d:	2e 2e 2f  <unknown>
     120:	4d 65 	gs
     122:	6d 	insl	%dx, %es:(%rdi)
     123:	6f 	outsl	(%rsi), %dx
     124:	72 79 	jb	121 <video.c+0x19f>
     126:	2f  <unknown>
     127:	70 6d 	jo	109 <video.c+0x196>
     129:	6d 	insl	%dx, %es:(%rdi)
     12a:	00 53 72 	addb	%dl, 114(%rbx)
     12d:	63  <unknown>
     12e:	2f  <unknown>
     12f:	4b 65 	gs
     131:	72 6e 	jb	110 <video.c+0x1a1>
     133:	65 6c 	insb	%dx, %es:(%rdi)
     135:	2f  <unknown>
     136:	6b 6d 61 69 	imull	$105, 97(%rbp), %ebp
     13a:	6e 	outsb	(%rsi), %dx
     13b:	2f  <unknown>
     13c:	2e 2e 2f  <unknown>
     13f:	53 	pushq	%rbx
     140:	74 72 	je	114 <video.c+0x1b4>
     142:	69 6e 67 00 74 79 70 	imull	$1887007744, 103(%rsi), %ebp
     149:	65 73 2e 	jae	46 <video.c+0x17a>
     14c:	68 00 6b 6d 61 	pushq	$1634560768
     151:	69 6e 2e 68 00 6d 65 	imull	$1701642344, 46(%rsi), %ebp
     158:	6d 	insl	%dx, %es:(%rdi)
     159:	6f 	outsl	(%rsi), %dx
     15a:	72 79 	jb	121 <video.c+0x1d5>
     15c:	2e 68 00 76 69 64 	pushq	$1684633088
     162:	65 6f 	outsl	%gs:(%rsi), %dx
     164:	2e 68 00 68 65 61 	pushq	$1634035712
     16a:	70 2e 	jo	46 <video.c+0x19a>
     16c:	68 00 69 64 74 	pushq	$1952737536
     171:	2e 68 00 70 61 67 	pushq	$1734438912
     177:	69 6e 67 2e 68 00 67 	imull	$1728079918, 103(%rsi), %ebp
     17e:	64 74 2e 	je	46 <video.c+0x1af>
     181:	68 00 70 6d 6d 	pushq	$1835888640
     186:	2e 68 00 73 74 72 	pushq	$1920234240
     18c:	69 6e 67 2e 68 00 53 	imull	$1392535598, 103(%rsi), %ebp
     193:	72 63 	jb	99 <video.c+0x1f8>
     195:	2f  <unknown>
     196:	4b 65 	gs
     198:	72 6e 	jb	110 <video.c+0x208>
     19a:	65 6c 	insb	%dx, %es:(%rdi)
     19c:	2f  <unknown>
     19d:	4d 61  <unknown>
     19f:	74 68 	je	104 <video.c+0x209>
     1a1:	2f  <unknown>
     1a2:	6d 	insl	%dx, %es:(%rdi)
     1a3:	61  <unknown>
     1a4:	74 68 	je	104 <video.c+0x20e>
     1a6:	2e 63  <unknown>
     1a8:	00 53 72 	addb	%dl, 114(%rbx)
     1ab:	63  <unknown>
     1ac:	2f  <unknown>
     1ad:	4b 65 	gs
     1af:	72 6e 	jb	110 <video.c+0x21f>
     1b1:	65 6c 	insb	%dx, %es:(%rdi)
     1b3:	2f  <unknown>
     1b4:	4d 61  <unknown>
     1b6:	74 68 	je	104 <video.c+0x220>
     1b8:	00 53 72 	addb	%dl, 114(%rbx)
     1bb:	63  <unknown>
     1bc:	2f  <unknown>
     1bd:	4b 65 	gs
     1bf:	72 6e 	jb	110 <video.c+0x22f>
     1c1:	65 6c 	insb	%dx, %es:(%rdi)
     1c3:	2f  <unknown>
     1c4:	4d 61  <unknown>
     1c6:	74 68 	je	104 <video.c+0x230>
     1c8:	2f  <unknown>
     1c9:	2e 2e 2f  <unknown>
     1cc:	54 	pushq	%rsp
     1cd:	79 70 	jns	112 <video.c+0x23f>
     1cf:	65 73 00 	jae	0 <video.c+0x1d2>
     1d2:	53 	pushq	%rbx
     1d3:	72 63 	jb	99 <video.c+0x238>
     1d5:	2f  <unknown>
     1d6:	4b 65 	gs
     1d8:	72 6e 	jb	110 <video.c+0x248>
     1da:	65 6c 	insb	%dx, %es:(%rdi)
     1dc:	2f  <unknown>
     1dd:	53 	pushq	%rbx
     1de:	74 72 	je	114 <video.c+0x252>
     1e0:	69 6e 67 2f 73 74 72 	imull	$1920234287, 103(%rsi), %ebp
     1e7:	69 6e 67 2e 63 00 53 	imull	$1392534318, 103(%rsi), %ebp
     1ee:	72 63 	jb	99 <video.c+0x253>
     1f0:	2f  <unknown>
     1f1:	4b 65 	gs
     1f3:	72 6e 	jb	110 <video.c+0x263>
     1f5:	65 6c 	insb	%dx, %es:(%rdi)
     1f7:	2f  <unknown>
     1f8:	53 	pushq	%rbx
     1f9:	74 72 	je	114 <video.c+0x26d>
     1fb:	69 6e 67 00 53 72 63 	imull	$1668436736, 103(%rsi), %ebp
     202:	2f  <unknown>
     203:	4b 65 	gs
     205:	72 6e 	jb	110 <video.c+0x275>
     207:	65 6c 	insb	%dx, %es:(%rdi)
     209:	2f  <unknown>
     20a:	53 	pushq	%rbx
     20b:	74 72 	je	114 <video.c+0x27f>
     20d:	69 6e 67 2f 2e 2e 2f 	imull	$791555631, 103(%rsi), %ebp
     214:	54 	pushq	%rsp
     215:	79 70 	jns	112 <video.c+0x287>
     217:	65 73 00 	jae	0 <video.c+0x21a>
     21a:	53 	pushq	%rbx
     21b:	72 63 	jb	99 <video.c+0x280>
     21d:	2f  <unknown>
     21e:	4b 65 	gs
     220:	72 6e 	jb	110 <video.c+0x290>
     222:	65 6c 	insb	%dx, %es:(%rdi)
     224:	2f  <unknown>
     225:	4d 65 	gs
     227:	6d 	insl	%dx, %es:(%rdi)
     228:	6f 	outsl	(%rsi), %dx
     229:	72 79 	jb	121 <video.c+0x2a4>
     22b:	2f  <unknown>
     22c:	6d 	insl	%dx, %es:(%rdi)
     22d:	65 6d 	insl	%dx, %es:(%rdi)
     22f:	6f 	outsl	(%rsi), %dx
     230:	72 79 	jb	121 <video.c+0x2ab>
     232:	2e 63  <unknown>
     234:	00 53 72 	addb	%dl, 114(%rbx)
     237:	63  <unknown>
     238:	2f  <unknown>
     239:	4b 65 	gs
     23b:	72 6e 	jb	110 <video.c+0x2ab>
     23d:	65 6c 	insb	%dx, %es:(%rdi)
     23f:	2f  <unknown>
     240:	4d 65 	gs
     242:	6d 	insl	%dx, %es:(%rdi)
     243:	6f 	outsl	(%rsi), %dx
     244:	72 79 	jb	121 <video.c+0x2bf>
     246:	00 53 72 	addb	%dl, 114(%rbx)
     249:	63  <unknown>
     24a:	2f  <unknown>
     24b:	4b 65 	gs
     24d:	72 6e 	jb	110 <video.c+0x2bd>
     24f:	65 6c 	insb	%dx, %es:(%rdi)
     251:	2f  <unknown>
     252:	4d 65 	gs
     254:	6d 	insl	%dx, %es:(%rdi)
     255:	6f 	outsl	(%rsi), %dx
     256:	72 79 	jb	121 <video.c+0x2d1>
     258:	2f  <unknown>
     259:	2e 2e 2f  <unknown>
     25c:	54 	pushq	%rsp
     25d:	79 70 	jns	112 <video.c+0x2cf>
     25f:	65 73 00 	jae	0 <video.c+0x262>
     262:	53 	pushq	%rbx
     263:	72 63 	jb	99 <video.c+0x2c8>
     265:	2f  <unknown>
     266:	4b 65 	gs
     268:	72 6e 	jb	110 <video.c+0x2d8>
     26a:	65 6c 	insb	%dx, %es:(%rdi)
     26c:	2f  <unknown>
     26d:	44 61  <unknown>
     26f:	74 61 	je	97 <video.c+0x2d2>
     271:	53 	pushq	%rbx
     272:	74 72 	je	114 <video.c+0x2e6>
     274:	75 63 	jne	99 <video.c+0x2d9>
     276:	74 73 	je	115 <video.c+0x2eb>
     278:	2f  <unknown>
     279:	62  <unknown>
     27a:	69 74 6d 61 70 2e 63 00 	imull	$6499952, 97(%rbp,%rbp,2), %esi
     282:	53 	pushq	%rbx
     283:	72 63 	jb	99 <video.c+0x2e8>
     285:	2f  <unknown>
     286:	4b 65 	gs
     288:	72 6e 	jb	110 <video.c+0x2f8>
     28a:	65 6c 	insb	%dx, %es:(%rdi)
     28c:	2f  <unknown>
     28d:	44 61  <unknown>
     28f:	74 61 	je	97 <video.c+0x2f2>
     291:	53 	pushq	%rbx
     292:	74 72 	je	114 <video.c+0x306>
     294:	75 63 	jne	99 <video.c+0x2f9>
     296:	74 73 	je	115 <video.c+0x30b>
     298:	00 53 72 	addb	%dl, 114(%rbx)
     29b:	63  <unknown>
     29c:	2f  <unknown>
     29d:	4b 65 	gs
     29f:	72 6e 	jb	110 <video.c+0x30f>
     2a1:	65 6c 	insb	%dx, %es:(%rdi)
     2a3:	2f  <unknown>
     2a4:	44 61  <unknown>
     2a6:	74 61 	je	97 <video.c+0x309>
     2a8:	53 	pushq	%rbx
     2a9:	74 72 	je	114 <video.c+0x31d>
     2ab:	75 63 	jne	99 <video.c+0x310>
     2ad:	74 73 	je	115 <video.c+0x322>
     2af:	2f  <unknown>
     2b0:	2e 2e 2f  <unknown>
     2b3:	54 	pushq	%rsp
     2b4:	79 70 	jns	112 <video.c+0x326>
     2b6:	65 73 00 	jae	0 <video.c+0x2b9>
     2b9:	62  <unknown>
     2ba:	69 74 6d 61 70 2e 68 00 	imull	$6827632, 97(%rbp,%rbp,2), %esi
     2c2:	53 	pushq	%rbx
     2c3:	72 63 	jb	99 <video.c+0x328>
     2c5:	2f  <unknown>
     2c6:	4b 65 	gs
     2c8:	72 6e 	jb	110 <video.c+0x338>
     2ca:	65 6c 	insb	%dx, %es:(%rdi)
     2cc:	2f  <unknown>
     2cd:	4d 65 	gs
     2cf:	6d 	insl	%dx, %es:(%rdi)
     2d0:	6f 	outsl	(%rsi), %dx
     2d1:	72 79 	jb	121 <video.c+0x34c>
     2d3:	2f  <unknown>
     2d4:	70 6d 	jo	109 <video.c+0x343>
     2d6:	6d 	insl	%dx, %es:(%rdi)
     2d7:	2f  <unknown>
     2d8:	70 6d 	jo	109 <video.c+0x347>
     2da:	6d 	insl	%dx, %es:(%rdi)
     2db:	2e 63  <unknown>
     2dd:	00 53 72 	addb	%dl, 114(%rbx)
     2e0:	63  <unknown>
     2e1:	2f  <unknown>
     2e2:	4b 65 	gs
     2e4:	72 6e 	jb	110 <video.c+0x354>
     2e6:	65 6c 	insb	%dx, %es:(%rdi)
     2e8:	2f  <unknown>
     2e9:	4d 65 	gs
     2eb:	6d 	insl	%dx, %es:(%rdi)
     2ec:	6f 	outsl	(%rsi), %dx
     2ed:	72 79 	jb	121 <video.c+0x368>
     2ef:	2f  <unknown>
     2f0:	70 6d 	jo	109 <video.c+0x35f>
     2f2:	6d 	insl	%dx, %es:(%rdi)
     2f3:	00 53 72 	addb	%dl, 114(%rbx)
     2f6:	63  <unknown>
     2f7:	2f  <unknown>
     2f8:	4b 65 	gs
     2fa:	72 6e 	jb	110 <video.c+0x36a>
     2fc:	65 6c 	insb	%dx, %es:(%rdi)
     2fe:	2f  <unknown>
     2ff:	4d 65 	gs
     301:	6d 	insl	%dx, %es:(%rdi)
     302:	6f 	outsl	(%rsi), %dx
     303:	72 79 	jb	121 <video.c+0x37e>
     305:	2f  <unknown>
     306:	70 6d 	jo	109 <video.c+0x375>
     308:	6d 	insl	%dx, %es:(%rdi)
     309:	2f  <unknown>
     30a:	2e 2e 2f  <unknown>
     30d:	2e 2e 2f  <unknown>
     310:	54 	pushq	%rsp
     311:	79 70 	jns	112 <video.c+0x383>
     313:	65 73 00 	jae	0 <video.c+0x316>
     316:	53 	pushq	%rbx
     317:	72 63 	jb	99 <video.c+0x37c>
     319:	2f  <unknown>
     31a:	4b 65 	gs
     31c:	72 6e 	jb	110 <video.c+0x38c>
     31e:	65 6c 	insb	%dx, %es:(%rdi)
     320:	2f  <unknown>
     321:	4d 65 	gs
     323:	6d 	insl	%dx, %es:(%rdi)
     324:	6f 	outsl	(%rsi), %dx
     325:	72 79 	jb	121 <video.c+0x3a0>
     327:	2f  <unknown>
     328:	70 6d 	jo	109 <video.c+0x397>
     32a:	6d 	insl	%dx, %es:(%rdi)
     32b:	2f  <unknown>
     32c:	2e 2e 2f  <unknown>
     32f:	2e 2e 2f  <unknown>
     332:	44 61  <unknown>
     334:	74 61 	je	97 <video.c+0x397>
     336:	53 	pushq	%rbx
     337:	74 72 	je	114 <video.c+0x3ab>
     339:	75 63 	jne	99 <video.c+0x39e>
     33b:	74 73 	je	115 <video.c+0x3b0>
     33d:	00 53 72 	addb	%dl, 114(%rbx)
     340:	63  <unknown>
     341:	2f  <unknown>
     342:	4b 65 	gs
     344:	72 6e 	jb	110 <video.c+0x3b4>
     346:	65 6c 	insb	%dx, %es:(%rdi)
     348:	2f  <unknown>
     349:	4d 65 	gs
     34b:	6d 	insl	%dx, %es:(%rdi)
     34c:	6f 	outsl	(%rsi), %dx
     34d:	72 79 	jb	121 <video.c+0x3c8>
     34f:	2f  <unknown>
     350:	70 6d 	jo	109 <video.c+0x3bf>
     352:	6d 	insl	%dx, %es:(%rdi)
     353:	2f  <unknown>
     354:	2e 2e 2f  <unknown>
     357:	2e 2e 2f  <unknown>
     35a:	44 61  <unknown>
     35c:	74 61 	je	97 <video.c+0x3bf>
     35e:	53 	pushq	%rbx
     35f:	74 72 	je	114 <video.c+0x3d3>
     361:	75 63 	jne	99 <video.c+0x3c6>
     363:	74 73 	je	115 <video.c+0x3d8>
     365:	2f  <unknown>
     366:	2e 2e 2f  <unknown>
     369:	53 	pushq	%rbx
     36a:	74 72 	je	114 <video.c+0x3de>
     36c:	69 6e 67 00 53 72 63 	imull	$1668436736, 103(%rsi), %ebp
     373:	2f  <unknown>
     374:	4b 65 	gs
     376:	72 6e 	jb	110 <video.c+0x3e6>
     378:	65 6c 	insb	%dx, %es:(%rdi)
     37a:	2f  <unknown>
     37b:	4d 65 	gs
     37d:	6d 	insl	%dx, %es:(%rdi)
     37e:	6f 	outsl	(%rsi), %dx
     37f:	72 79 	jb	121 <video.c+0x3fa>
     381:	2f  <unknown>
     382:	70 6d 	jo	109 <video.c+0x3f1>
     384:	6d 	insl	%dx, %es:(%rdi)
     385:	2f  <unknown>
     386:	2e 2e 00 53 72 	addb	%dl, %cs:114(%rbx)
     38b:	63  <unknown>
     38c:	2f  <unknown>
     38d:	4b 65 	gs
     38f:	72 6e 	jb	110 <video.c+0x3ff>
     391:	65 6c 	insb	%dx, %es:(%rdi)
     393:	2f  <unknown>
     394:	47 44  <unknown>
     396:	54 	pushq	%rsp
     397:	2f  <unknown>
     398:	67 64 74 2e 	je	46 <video.c+0x3ca>
     39c:	63  <unknown>
     39d:	00 53 72 	addb	%dl, 114(%rbx)
     3a0:	63  <unknown>
     3a1:	2f  <unknown>
     3a2:	4b 65 	gs
     3a4:	72 6e 	jb	110 <video.c+0x414>
     3a6:	65 6c 	insb	%dx, %es:(%rdi)
     3a8:	2f  <unknown>
     3a9:	47 44  <unknown>
     3ab:	54 	pushq	%rsp
     3ac:	00 53 72 	addb	%dl, 114(%rbx)
     3af:	63  <unknown>
     3b0:	2f  <unknown>
     3b1:	4b 65 	gs
     3b3:	72 6e 	jb	110 <video.c+0x423>
     3b5:	65 6c 	insb	%dx, %es:(%rdi)
     3b7:	2f  <unknown>
     3b8:	47 44  <unknown>
     3ba:	54 	pushq	%rsp
     3bb:	2f  <unknown>
     3bc:	2e 2e 2f  <unknown>
     3bf:	54 	pushq	%rsp
     3c0:	79 70 	jns	112 <video.c+0x432>
     3c2:	65 73 00 	jae	0 <video.c+0x3c5>
     3c5:	53 	pushq	%rbx
     3c6:	72 63 	jb	99 <video.c+0x42b>
     3c8:	2f  <unknown>
     3c9:	4b 65 	gs
     3cb:	72 6e 	jb	110 <video.c+0x43b>
     3cd:	65 6c 	insb	%dx, %es:(%rdi)
     3cf:	2f  <unknown>
     3d0:	4d 65 	gs
     3d2:	6d 	insl	%dx, %es:(%rdi)
     3d3:	6f 	outsl	(%rsi), %dx
     3d4:	72 79 	jb	121 <video.c+0x44f>
     3d6:	2f  <unknown>
     3d7:	76 6d 	jbe	109 <video.c+0x446>
     3d9:	6d 	insl	%dx, %es:(%rdi)
     3da:	2f  <unknown>
     3db:	70 61 	jo	97 <video.c+0x43e>
     3dd:	67 69 6e 67 2e 63 00 53 	imull	$1392534318, 103(%esi), %ebp
     3e5:	72 63 	jb	99 <video.c+0x44a>
     3e7:	2f  <unknown>
     3e8:	4b 65 	gs
     3ea:	72 6e 	jb	110 <video.c+0x45a>
     3ec:	65 6c 	insb	%dx, %es:(%rdi)
     3ee:	2f  <unknown>
     3ef:	4d 65 	gs
     3f1:	6d 	insl	%dx, %es:(%rdi)
     3f2:	6f 	outsl	(%rsi), %dx
     3f3:	72 79 	jb	121 <video.c+0x46e>
     3f5:	2f  <unknown>
     3f6:	76 6d 	jbe	109 <video.c+0x465>
     3f8:	6d 	insl	%dx, %es:(%rdi)
     3f9:	00 53 72 	addb	%dl, 114(%rbx)
     3fc:	63  <unknown>
     3fd:	2f  <unknown>
     3fe:	4b 65 	gs
     400:	72 6e 	jb	110 <video.c+0x470>
     402:	65 6c 	insb	%dx, %es:(%rdi)
     404:	2f  <unknown>
     405:	4d 65 	gs
     407:	6d 	insl	%dx, %es:(%rdi)
     408:	6f 	outsl	(%rsi), %dx
     409:	72 79 	jb	121 <video.c+0x484>
     40b:	2f  <unknown>
     40c:	76 6d 	jbe	109 <video.c+0x47b>
     40e:	6d 	insl	%dx, %es:(%rdi)
     40f:	2f  <unknown>
     410:	2e 2e 2f  <unknown>
     413:	2e 2e 2f  <unknown>
     416:	54 	pushq	%rsp
     417:	79 70 	jns	112 <video.c+0x489>
     419:	65 73 00 	jae	0 <video.c+0x41c>
     41c:	53 	pushq	%rbx
     41d:	72 63 	jb	99 <video.c+0x482>
     41f:	2f  <unknown>
     420:	4b 65 	gs
     422:	72 6e 	jb	110 <video.c+0x492>
     424:	65 6c 	insb	%dx, %es:(%rdi)
     426:	2f  <unknown>
     427:	4d 65 	gs
     429:	6d 	insl	%dx, %es:(%rdi)
     42a:	6f 	outsl	(%rsi), %dx
     42b:	72 79 	jb	121 <video.c+0x4a6>
     42d:	2f  <unknown>
     42e:	76 6d 	jbe	109 <video.c+0x49d>
     430:	6d 	insl	%dx, %es:(%rdi)
     431:	2f  <unknown>
     432:	2e 2e 2f  <unknown>
     435:	2e 2e 2f  <unknown>
     438:	6b 6d 61 69 	imull	$105, 97(%rbp), %ebp
     43c:	6e 	outsb	(%rsi), %dx
     43d:	00 53 72 	addb	%dl, 114(%rbx)
     440:	63  <unknown>
     441:	2f  <unknown>
     442:	4b 65 	gs
     444:	72 6e 	jb	110 <video.c+0x4b4>
     446:	65 6c 	insb	%dx, %es:(%rdi)
     448:	2f  <unknown>
     449:	4d 65 	gs
     44b:	6d 	insl	%dx, %es:(%rdi)
     44c:	6f 	outsl	(%rsi), %dx
     44d:	72 79 	jb	121 <video.c+0x4c8>
     44f:	2f  <unknown>
     450:	76 6d 	jbe	109 <video.c+0x4bf>
     452:	6d 	insl	%dx, %es:(%rdi)
     453:	2f  <unknown>
     454:	2e 2e 2f  <unknown>
     457:	70 6d 	jo	109 <video.c+0x4c6>
     459:	6d 	insl	%dx, %es:(%rdi)
     45a:	2f  <unknown>
     45b:	2e 2e 2f  <unknown>
     45e:	2e 2e 2f  <unknown>
     461:	44 61  <unknown>
     463:	74 61 	je	97 <video.c+0x4c6>
     465:	53 	pushq	%rbx
     466:	74 72 	je	114 <video.c+0x4da>
     468:	75 63 	jne	99 <video.c+0x4cd>
     46a:	74 73 	je	115 <video.c+0x4df>
     46c:	2f  <unknown>
     46d:	2e 2e 2f  <unknown>
     470:	53 	pushq	%rbx
     471:	74 72 	je	114 <video.c+0x4e5>
     473:	69 6e 67 00 53 72 63 	imull	$1668436736, 103(%rsi), %ebp
     47a:	2f  <unknown>
     47b:	4b 65 	gs
     47d:	72 6e 	jb	110 <video.c+0x4ed>
     47f:	65 6c 	insb	%dx, %es:(%rdi)
     481:	2f  <unknown>
     482:	4d 65 	gs
     484:	6d 	insl	%dx, %es:(%rdi)
     485:	6f 	outsl	(%rsi), %dx
     486:	72 79 	jb	121 <video.c+0x501>
     488:	2f  <unknown>
     489:	76 6d 	jbe	109 <video.c+0x4f8>
     48b:	6d 	insl	%dx, %es:(%rdi)
     48c:	2f  <unknown>
     48d:	2e 2e 2f  <unknown>
     490:	70 6d 	jo	109 <video.c+0x4ff>
     492:	6d 	insl	%dx, %es:(%rdi)
     493:	00 53 72 	addb	%dl, 114(%rbx)
     496:	63  <unknown>
     497:	2f  <unknown>
     498:	4b 65 	gs
     49a:	72 6e 	jb	110 <video.c+0x50a>
     49c:	65 6c 	insb	%dx, %es:(%rdi)
     49e:	2f  <unknown>
     49f:	4d 65 	gs
     4a1:	6d 	insl	%dx, %es:(%rdi)
     4a2:	6f 	outsl	(%rsi), %dx
     4a3:	72 79 	jb	121 <video.c+0x51e>
     4a5:	2f  <unknown>
     4a6:	76 6d 	jbe	109 <video.c+0x515>
     4a8:	6d 	insl	%dx, %es:(%rdi)
     4a9:	2f  <unknown>
     4aa:	68 65 61 70 2e 	pushq	$779116901
     4af:	63  <unknown>
     4b0:	00 53 72 	addb	%dl, 114(%rbx)
     4b3:	63  <unknown>
     4b4:	2f  <unknown>
     4b5:	4b 65 	gs
     4b7:	72 6e 	jb	110 <video.c+0x527>
     4b9:	65 6c 	insb	%dx, %es:(%rdi)
     4bb:	2f  <unknown>
     4bc:	4d 65 	gs
     4be:	6d 	insl	%dx, %es:(%rdi)
     4bf:	6f 	outsl	(%rsi), %dx
     4c0:	72 79 	jb	121 <video.c+0x53b>
     4c2:	2f  <unknown>
     4c3:	76 6d 	jbe	109 <video.c+0x532>
     4c5:	6d 	insl	%dx, %es:(%rdi)
     4c6:	2f  <unknown>
     4c7:	2e 2e 2f  <unknown>
     4ca:	2e 2e 2f  <unknown>
     4cd:	53 	pushq	%rbx
     4ce:	74 72 	je	114 <video.c+0x542>
     4d0:	69 6e 67 00 53 72 63 	imull	$1668436736, 103(%rsi), %ebp
     4d7:	2f  <unknown>
     4d8:	4b 65 	gs
     4da:	72 6e 	jb	110 <video.c+0x54a>
     4dc:	65 6c 	insb	%dx, %es:(%rdi)
     4de:	2f  <unknown>
     4df:	49 4f  <unknown>
     4e1:	2f  <unknown>
     4e2:	69 6f 2e 63 00 53 72 	imull	$1918042211, 46(%rdi), %ebp
     4e9:	63  <unknown>
     4ea:	2f  <unknown>
     4eb:	4b 65 	gs
     4ed:	72 6e 	jb	110 <video.c+0x55d>
     4ef:	65 6c 	insb	%dx, %es:(%rdi)
     4f1:	2f  <unknown>
     4f2:	49 4f  <unknown>
     4f4:	00 53 72 	addb	%dl, 114(%rbx)
     4f7:	63  <unknown>
     4f8:	2f  <unknown>
     4f9:	4b 65 	gs
     4fb:	72 6e 	jb	110 <video.c+0x56b>
     4fd:	65 6c 	insb	%dx, %es:(%rdi)
     4ff:	2f  <unknown>
     500:	49 44  <unknown>
     502:	54 	pushq	%rsp
     503:	2f  <unknown>
     504:	69 64 74 2e 63 00 53 72 	imull	$1918042211, 46(%rsp,%rsi,2), %esp
     50c:	63  <unknown>
     50d:	2f  <unknown>
     50e:	4b 65 	gs
     510:	72 6e 	jb	110 <video.c+0x580>
     512:	65 6c 	insb	%dx, %es:(%rdi)
     514:	2f  <unknown>
     515:	49 44  <unknown>
     517:	54 	pushq	%rsp
     518:	00 53 72 	addb	%dl, 114(%rbx)
     51b:	63  <unknown>
     51c:	2f  <unknown>
     51d:	4b 65 	gs
     51f:	72 6e 	jb	110 <video.c+0x58f>
     521:	65 6c 	insb	%dx, %es:(%rdi)
     523:	2f  <unknown>
     524:	49 44  <unknown>
     526:	54 	pushq	%rsp
     527:	2f  <unknown>
     528:	2e 2e 2f  <unknown>
     52b:	54 	pushq	%rsp
     52c:	79 70 	jns	112 <video.c+0x59e>
     52e:	65 73 00 	jae	0 <video.c+0x531>
     531:	53 	pushq	%rbx
     532:	72 63 	jb	99 <video.c+0x597>
     534:	2f  <unknown>
     535:	4b 65 	gs
     537:	72 6e 	jb	110 <video.c+0x5a7>
     539:	65 6c 	insb	%dx, %es:(%rdi)
     53b:	2f  <unknown>
     53c:	49 44  <unknown>
     53e:	54 	pushq	%rsp
     53f:	2f  <unknown>
     540:	2e 2e 2f  <unknown>
     543:	53 	pushq	%rbx
     544:	74 72 	je	114 <video.c+0x5b8>
     546:	69 6e 67 00 53 72 63 	imull	$1668436736, 103(%rsi), %ebp
     54d:	2f  <unknown>
     54e:	4b 65 	gs
     550:	72 6e 	jb	110 <video.c+0x5c0>
     552:	65 6c 	insb	%dx, %es:(%rdi)
     554:	2f  <unknown>
     555:	49 44  <unknown>
     557:	54 	pushq	%rsp
     558:	2f  <unknown>
     559:	2e 2e 2f  <unknown>
     55c:	4d 65 	gs
     55e:	6d 	insl	%dx, %es:(%rdi)
     55f:	6f 	outsl	(%rsi), %dx
     560:	72 79 	jb	121 <video.c+0x5db>
     562:	2f  <unknown>
     563:	70 6d 	jo	109 <video.c+0x5d2>
     565:	6d 	insl	%dx, %es:(%rdi)
     566:	00 53 72 	addb	%dl, 114(%rbx)
     569:	63  <unknown>
     56a:	2f  <unknown>
     56b:	4b 65 	gs
     56d:	72 6e 	jb	110 <video.c+0x5dd>
     56f:	65 6c 	insb	%dx, %es:(%rdi)
     571:	2f  <unknown>
     572:	49 44  <unknown>
     574:	54 	pushq	%rsp
     575:	2f  <unknown>
     576:	2e 2e 2f  <unknown>
     579:	49 4f  <unknown>
     57b:	00 69 6f 	addb	%ch, 111(%rcx)
     57e:	2e 68 00 53 72 63 	pushq	$1668436736
     584:	2f  <unknown>
     585:	4b 65 	gs
     587:	72 6e 	jb	110 <video.c+0x5f7>
     589:	65 6c 	insb	%dx, %es:(%rdi)
     58b:	2f  <unknown>
     58c:	49 44  <unknown>
     58e:	54 	pushq	%rsp
     58f:	2f  <unknown>
     590:	69 73 72 2f 69 73 72 	imull	$1920166191, 114(%rbx), %esi
     597:	2e 63  <unknown>
     599:	00 53 72 	addb	%dl, 114(%rbx)
     59c:	63  <unknown>
     59d:	2f  <unknown>
     59e:	4b 65 	gs
     5a0:	72 6e 	jb	110 <video.c+0x610>
     5a2:	65 6c 	insb	%dx, %es:(%rdi)
     5a4:	2f  <unknown>
     5a5:	49 44  <unknown>
     5a7:	54 	pushq	%rsp
     5a8:	2f  <unknown>
     5a9:	69 73 72 00 53 72 63 	imull	$1668436736, 114(%rbx), %esi
     5b0:	2f  <unknown>
     5b1:	4b 65 	gs
     5b3:	72 6e 	jb	110 <video.c+0x623>
     5b5:	65 6c 	insb	%dx, %es:(%rdi)
     5b7:	2f  <unknown>
     5b8:	49 44  <unknown>
     5ba:	54 	pushq	%rsp
     5bb:	2f  <unknown>
     5bc:	69 73 72 2f 2e 2e 00 	imull	$3026479, 114(%rbx), %esi
     5c3:	53 	pushq	%rbx
     5c4:	72 63 	jb	99 <video.c+0x629>
     5c6:	2f  <unknown>
     5c7:	4b 65 	gs
     5c9:	72 6e 	jb	110 <video.c+0x639>
     5cb:	65 6c 	insb	%dx, %es:(%rdi)
     5cd:	2f  <unknown>
     5ce:	49 44  <unknown>
     5d0:	54 	pushq	%rsp
     5d1:	2f  <unknown>
     5d2:	69 73 72 2f 2e 2e 2f 	imull	$791555631, 114(%rbx), %esi
     5d9:	2e 2e 2f  <unknown>
     5dc:	54 	pushq	%rsp
     5dd:	79 70 	jns	112 <video.c+0x64f>
     5df:	65 73 00 	jae	0 <video.c+0x5e2>
     5e2:	53 	pushq	%rbx
     5e3:	72 63 	jb	99 <video.c+0x648>
     5e5:	2f  <unknown>
     5e6:	4b 65 	gs
     5e8:	72 6e 	jb	110 <video.c+0x658>
     5ea:	65 6c 	insb	%dx, %es:(%rdi)
     5ec:	2f  <unknown>
     5ed:	56 	pushq	%rsi
     5ee:	69 64 65 6f 2f 76 69 64 	imull	$1684633135, 111(%rbp,%riz,2), %esp
     5f6:	65 6f 	outsl	%gs:(%rsi), %dx
     5f8:	2e 63  <unknown>
     5fa:	00 53 72 	addb	%dl, 114(%rbx)
     5fd:	63  <unknown>
     5fe:	2f  <unknown>
     5ff:	4b 65 	gs
     601:	72 6e 	jb	110 <video.c+0x671>
     603:	65 6c 	insb	%dx, %es:(%rdi)
     605:	2f  <unknown>
     606:	56 	pushq	%rsi
     607:	69 64 65 6f 00 53 72 63 	imull	$1668436736, 111(%rbp,%riz,2), %esp
     60f:	2f  <unknown>
     610:	4b 65 	gs
     612:	72 6e 	jb	110 <video.c+0x682>
     614:	65 6c 	insb	%dx, %es:(%rdi)
     616:	2f  <unknown>
     617:	56 	pushq	%rsi
     618:	69 64 65 6f 2f 2e 2e 2f 	imull	$791555631, 111(%rbp,%riz,2), %esp
     620:	54 	pushq	%rsp
     621:	79 70 	jns	112 <video.c+0x693>
     623:	65 73 00 	jae	0 <video.c+0x626>
     626:	53 	pushq	%rbx
     627:	72 63 	jb	99 <video.c+0x68c>
     629:	2f  <unknown>
     62a:	4b 65 	gs
     62c:	72 6e 	jb	110 <video.c+0x69c>
     62e:	65 6c 	insb	%dx, %es:(%rdi)
     630:	2f  <unknown>
     631:	56 	pushq	%rsi
     632:	69 64 65 6f 2f 2e 2e 2f 	imull	$791555631, 111(%rbp,%riz,2), %esp
     63a:	6b 6d 61 69 	imull	$105, 97(%rbp), %ebp
     63e:	6e 	outsb	(%rsi), %dx
     63f:	00  <unknown>
Disassembly of section .symtab:
.symtab:
       0:	00 00 	addb	%al, (%rax)
       2:	00 00 	addb	%al, (%rax)
       4:	00 00 	addb	%al, (%rax)
       6:	00 00 	addb	%al, (%rax)
       8:	00 00 	addb	%al, (%rax)
       a:	00 00 	addb	%al, (%rax)
       c:	00 00 	addb	%al, (%rax)
       e:	00 00 	addb	%al, (%rax)
      10:	00 00 	addb	%al, (%rax)
      12:	00 00 	addb	%al, (%rax)
      14:	00 00 	addb	%al, (%rax)
      16:	00 00 	addb	%al, (%rax)
      18:	01 00 	addl	%eax, (%rax)
      1a:	00 00 	addb	%al, (%rax)
      1c:	04 00 	addb	$0, %al
      1e:	f1  <unknown>
      1f:	ff 00 	incl	(%rax)
      21:	00 00 	addb	%al, (%rax)
      23:	00 00 	addb	%al, (%rax)
      25:	00 00 	addb	%al, (%rax)
      27:	00 00 	addb	%al, (%rax)
      29:	00 00 	addb	%al, (%rax)
      2b:	00 00 	addb	%al, (%rax)
      2d:	00 00 	addb	%al, (%rax)
      2f:	00 1d 00 00 00 04 	addb	%bl, 67108864(%rip)
      35:	00 f1 	addb	%dh, %cl
      37:	ff 00 	incl	(%rax)
      39:	00 00 	addb	%al, (%rax)
      3b:	00 00 	addb	%al, (%rax)
      3d:	00 00 	addb	%al, (%rax)
      3f:	00 00 	addb	%al, (%rax)
      41:	00 00 	addb	%al, (%rax)
      43:	00 00 	addb	%al, (%rax)
      45:	00 00 	addb	%al, (%rax)
      47:	00 25 00 00 00 04 	addb	%ah, 67108864(%rip)
      4d:	00 f1 	addb	%dh, %cl
      4f:	ff 00 	incl	(%rax)
      51:	00 00 	addb	%al, (%rax)
      53:	00 00 	addb	%al, (%rax)
      55:	00 00 	addb	%al, (%rax)
      57:	00 00 	addb	%al, (%rax)
      59:	00 00 	addb	%al, (%rax)
      5b:	00 00 	addb	%al, (%rax)
      5d:	00 00 	addb	%al, (%rax)
      5f:	00 2c 00 	addb	%ch, (%rax,%rax)
      62:	00 00 	addb	%al, (%rax)
      64:	04 00 	addb	$0, %al
      66:	f1  <unknown>
      67:	ff 00 	incl	(%rax)
      69:	00 00 	addb	%al, (%rax)
      6b:	00 00 	addb	%al, (%rax)
      6d:	00 00 	addb	%al, (%rax)
      6f:	00 00 	addb	%al, (%rax)
      71:	00 00 	addb	%al, (%rax)
      73:	00 00 	addb	%al, (%rax)
      75:	00 00 	addb	%al, (%rax)
      77:	00 35 00 00 00 04 	addb	%dh, 67108864(%rip)
      7d:	00 f1 	addb	%dh, %cl
      7f:	ff 00 	incl	(%rax)
      81:	00 00 	addb	%al, (%rax)
      83:	00 00 	addb	%al, (%rax)
      85:	00 00 	addb	%al, (%rax)
      87:	00 00 	addb	%al, (%rax)
      89:	00 00 	addb	%al, (%rax)
      8b:	00 00 	addb	%al, (%rax)
      8d:	00 00 	addb	%al, (%rax)
      8f:	00 3e 	addb	%bh, (%rsi)
      91:	00 00 	addb	%al, (%rax)
      93:	00 04 00 	addb	%al, (%rax,%rax)
      96:	f1  <unknown>
      97:	ff 00 	incl	(%rax)
      99:	00 00 	addb	%al, (%rax)
      9b:	00 00 	addb	%al, (%rax)
      9d:	00 00 	addb	%al, (%rax)
      9f:	00 00 	addb	%al, (%rax)
      a1:	00 00 	addb	%al, (%rax)
      a3:	00 00 	addb	%al, (%rax)
      a5:	00 00 	addb	%al, (%rax)
      a7:	00 47 00 	addb	%al, (%rdi)
      aa:	00 00 	addb	%al, (%rax)
      ac:	04 00 	addb	$0, %al
      ae:	f1  <unknown>
      af:	ff 00 	incl	(%rax)
      b1:	00 00 	addb	%al, (%rax)
      b3:	00 00 	addb	%al, (%rax)
      b5:	00 00 	addb	%al, (%rax)
      b7:	00 00 	addb	%al, (%rax)
      b9:	00 00 	addb	%al, (%rax)
      bb:	00 00 	addb	%al, (%rax)
      bd:	00 00 	addb	%al, (%rax)
      bf:	00 4d 00 	addb	%cl, (%rbp)
      c2:	00 00 	addb	%al, (%rax)
      c4:	04 00 	addb	$0, %al
      c6:	f1  <unknown>
      c7:	ff 00 	incl	(%rax)
      c9:	00 00 	addb	%al, (%rax)
      cb:	00 00 	addb	%al, (%rax)
      cd:	00 00 	addb	%al, (%rax)
      cf:	00 00 	addb	%al, (%rax)
      d1:	00 00 	addb	%al, (%rax)
      d3:	00 00 	addb	%al, (%rax)
      d5:	00 00 	addb	%al, (%rax)
      d7:	00 67 00 	addb	%ah, (%rdi)
      da:	00 00 	addb	%al, (%rax)
      dc:	04 00 	addb	$0, %al
      de:	f1  <unknown>
      df:	ff 00 	incl	(%rax)
      e1:	00 00 	addb	%al, (%rax)
      e3:	00 00 	addb	%al, (%rax)
      e5:	00 00 	addb	%al, (%rax)
      e7:	00 00 	addb	%al, (%rax)
      e9:	00 00 	addb	%al, (%rax)
      eb:	00 00 	addb	%al, (%rax)
      ed:	00 00 	addb	%al, (%rax)
      ef:	00 6d 00 	addb	%ch, (%rbp)
      f2:	00 00 	addb	%al, (%rax)
      f4:	04 00 	addb	$0, %al
      f6:	f1  <unknown>
      f7:	ff 00 	incl	(%rax)
      f9:	00 00 	addb	%al, (%rax)
      fb:	00 00 	addb	%al, (%rax)
      fd:	00 00 	addb	%al, (%rax)
      ff:	00 00 	addb	%al, (%rax)
     101:	00 00 	addb	%al, (%rax)
     103:	00 00 	addb	%al, (%rax)
     105:	00 00 	addb	%al, (%rax)
     107:	00 76 00 	addb	%dh, (%rsi)
     10a:	00 00 	addb	%al, (%rax)
     10c:	04 00 	addb	$0, %al
     10e:	f1  <unknown>
     10f:	ff 00 	incl	(%rax)
     111:	00 00 	addb	%al, (%rax)
     113:	00 00 	addb	%al, (%rax)
     115:	00 00 	addb	%al, (%rax)
     117:	00 00 	addb	%al, (%rax)
     119:	00 00 	addb	%al, (%rax)
     11b:	00 00 	addb	%al, (%rax)
     11d:	00 00 	addb	%al, (%rax)
     11f:	00 7d 00 	addb	%bh, (%rbp)
     122:	00 00 	addb	%al, (%rax)
     124:	04 00 	addb	$0, %al
     126:	f1  <unknown>
     127:	ff 00 	incl	(%rax)
     129:	00 00 	addb	%al, (%rax)
     12b:	00 00 	addb	%al, (%rax)
     12d:	00 00 	addb	%al, (%rax)
     12f:	00 00 	addb	%al, (%rax)
     131:	00 00 	addb	%al, (%rax)
     133:	00 00 	addb	%al, (%rax)
     135:	00 00 	addb	%al, (%rax)
     137:	00 82 00 00 00 04 	addb	%al, 67108864(%rdx)
     13d:	00 f1 	addb	%dh, %cl
     13f:	ff 00 	incl	(%rax)
     141:	00 00 	addb	%al, (%rax)
     143:	00 00 	addb	%al, (%rax)
     145:	00 00 	addb	%al, (%rax)
     147:	00 00 	addb	%al, (%rax)
     149:	00 00 	addb	%al, (%rax)
     14b:	00 00 	addb	%al, (%rax)
     14d:	00 00 	addb	%al, (%rax)
     14f:	00 88 00 00 00 04 	addb	%cl, 67108864(%rax)
     155:	00 f1 	addb	%dh, %cl
     157:	ff 00 	incl	(%rax)
     159:	00 00 	addb	%al, (%rax)
     15b:	00 00 	addb	%al, (%rax)
     15d:	00 00 	addb	%al, (%rax)
     15f:	00 00 	addb	%al, (%rax)
     161:	00 00 	addb	%al, (%rax)
     163:	00 00 	addb	%al, (%rax)
     165:	00 00 	addb	%al, (%rax)
     167:	00 8e 00 00 00 04 	addb	%cl, 67108864(%rsi)
     16d:	00 f1 	addb	%dh, %cl
     16f:	ff 00 	incl	(%rax)
     171:	00 00 	addb	%al, (%rax)
     173:	00 00 	addb	%al, (%rax)
     175:	00 00 	addb	%al, (%rax)
     177:	00 00 	addb	%al, (%rax)
     179:	00 00 	addb	%al, (%rax)
     17b:	00 00 	addb	%al, (%rax)
     17d:	00 00 	addb	%al, (%rax)
     17f:	00 96 00 00 00 12 	addb	%dl, 301989888(%rsi)
     185:	00 02 	addb	%al, (%rdx)
     187:	00 7b 07 	addb	%bh, 7(%rbx)
     18a:	01 00 	addl	%eax, (%rax)
     18c:	00 00 	addb	%al, (%rax)
     18e:	00 00 	addb	%al, (%rax)
     190:	53 	pushq	%rbx
     191:	00 00 	addb	%al, (%rax)
     193:	00 00 	addb	%al, (%rax)
     195:	00 00 	addb	%al, (%rax)
     197:	00 9d 00 00 00 12 	addb	%bl, 301989888(%rbp)
     19d:	00 02 	addb	%al, (%rdx)
     19f:	00 9a 27 01 00 00 	addb	%bl, 295(%rdx)
     1a5:	00 00 	addb	%al, (%rax)
     1a7:	00 0a 	addb	%cl, (%rdx)
     1a9:	00 00 	addb	%al, (%rax)
     1ab:	00 00 	addb	%al, (%rax)
     1ad:	00 00 	addb	%al, (%rax)
     1af:	00 aa 00 00 00 12 	addb	%ch, 301989888(%rdx)
     1b5:	00 02 	addb	%al, (%rdx)
     1b7:	00 20 	addb	%ah, (%rax)
     1b9:	20 01 	andb	%al, (%rcx)
     1bb:	00 00 	addb	%al, (%rax)
     1bd:	00 00 	addb	%al, (%rax)
     1bf:	00 1a 	addb	%bl, (%rdx)
     1c1:	00 00 	addb	%al, (%rax)
     1c3:	00 00 	addb	%al, (%rax)
     1c5:	00 00 	addb	%al, (%rax)
     1c7:	00 ae 00 00 00 12 	addb	%ch, 301989888(%rsi)
     1cd:	00 02 	addb	%al, (%rdx)
     1cf:	00 45 01 	addb	%al, 1(%rbp)
     1d2:	01 00 	addl	%eax, (%rax)
     1d4:	00 00 	addb	%al, (%rax)
     1d6:	00 00 	addb	%al, (%rax)
     1d8:	67 00 00 	addb	%al, (%eax)
     1db:	00 00 	addb	%al, (%rax)
     1dd:	00 00 	addb	%al, (%rax)
     1df:	00 b3 00 00 00 11 	addb	%dh, 285212672(%rbx)
     1e5:	00 02 	addb	%al, (%rdx)
     1e7:	00 f8 	addb	%bh, %al
     1e9:	3f  <unknown>
     1ea:	01 00 	addl	%eax, (%rax)
     1ec:	00 00 	addb	%al, (%rax)
     1ee:	00 00 	addb	%al, (%rax)
     1f0:	08 00 	orb	%al, (%rax)
     1f2:	00 00 	addb	%al, (%rax)
     1f4:	00 00 	addb	%al, (%rax)
     1f6:	00 00 	addb	%al, (%rax)
     1f8:	be 00 00 00 12 	movl	$301989888, %esi
     1fd:	00 02 	addb	%al, (%rdx)
     1ff:	00 7c 27 01 	addb	%bh, 1(%rdi,%riz)
     203:	00 00 	addb	%al, (%rax)
     205:	00 00 	addb	%al, (%rax)
     207:	00 0a 	addb	%cl, (%rdx)
     209:	00 00 	addb	%al, (%rax)
     20b:	00 00 	addb	%al, (%rax)
     20d:	00 00 	addb	%al, (%rax)
     20f:	00 cb 	addb	%cl, %bl
     211:	00 00 	addb	%al, (%rax)
     213:	00 12 	addb	%dl, (%rdx)
     215:	00 02 	addb	%al, (%rdx)
     217:	00 9c 0c 01 00 00 00 	addb	%bl, 1(%rsp,%rcx)
     21e:	00 00 	addb	%al, (%rax)
     220:	a0 00 00 00 00 00 00 00 de 	movabsb	-2449958197289549824, %al
     229:	00 00 	addb	%al, (%rax)
     22b:	00 12 	addb	%dl, (%rdx)
     22d:	00 02 	addb	%al, (%rdx)
     22f:	00 d6 	addb	%dl, %dh
     231:	27  <unknown>
     232:	01 00 	addl	%eax, (%rax)
     234:	00 00 	addb	%al, (%rax)
     236:	00 00 	addb	%al, (%rax)
     238:	0a 00 	orb	(%rax), %al
     23a:	00 00 	addb	%al, (%rax)
     23c:	00 00 	addb	%al, (%rax)
     23e:	00 00 	addb	%al, (%rax)
     240:	ec 	inb	%dx, %al
     241:	00 00 	addb	%al, (%rax)
     243:	00 11 	addb	%dl, (%rcx)
     245:	00 02 	addb	%al, (%rdx)
     247:	00 c0 	addb	%al, %al
     249:	33 01 	xorl	(%rcx), %eax
     24b:	00 00 	addb	%al, (%rax)
     24d:	00 00 	addb	%al, (%rax)
     24f:	00 21 	addb	%ah, (%rcx)
     251:	00 00 	addb	%al, (%rax)
     253:	00 00 	addb	%al, (%rax)
     255:	00 00 	addb	%al, (%rax)
     257:	00 f7 	addb	%dh, %bh
     259:	00 00 	addb	%al, (%rax)
     25b:	00 10 	addb	%dl, (%rax)
     25d:	00 02 	addb	%al, (%rdx)
     25f:	00 b0 35 01 00 00 	addb	%dh, 309(%rax)
     265:	00 00 	addb	%al, (%rax)
     267:	00 00 	addb	%al, (%rax)
     269:	00 00 	addb	%al, (%rax)
     26b:	00 00 	addb	%al, (%rax)
     26d:	00 00 	addb	%al, (%rax)
     26f:	00 fc 	addb	%bh, %ah
     271:	00 00 	addb	%al, (%rax)
     273:	00 12 	addb	%dl, (%rdx)
     275:	00 02 	addb	%al, (%rdx)
     277:	00 d3 	addb	%dl, %bl
     279:	08 01 	orb	%al, (%rcx)
     27b:	00 00 	addb	%al, (%rax)
     27d:	00 00 	addb	%al, (%rax)
     27f:	00 b5 00 00 00 00 	addb	%dh, (%rbp)
     285:	00 00 	addb	%al, (%rax)
     287:	00 04 01 	addb	%al, (%rcx,%rax)
     28a:	00 00 	addb	%al, (%rax)
     28c:	11 00 	adcl	%eax, (%rax)
     28e:	02 00 	addb	(%rax), %al
     290:	20 34 01 	andb	%dh, (%rcx,%rax)
     293:	00 00 	addb	%al, (%rax)
     295:	00 00 	addb	%al, (%rax)
     297:	00 28 	addb	%ch, (%rax)
     299:	00 00 	addb	%al, (%rax)
     29b:	00 00 	addb	%al, (%rax)
     29d:	00 00 	addb	%al, (%rax)
     29f:	00 0f 	addb	%cl, (%rdi)
     2a1:	01 00 	addl	%eax, (%rax)
     2a3:	00 10 	addb	%dl, (%rax)
     2a5:	00 02 	addb	%al, (%rdx)
     2a7:	00 80 38 01 00 00 	addb	%al, 312(%rax)
     2ad:	00 00 	addb	%al, (%rax)
     2af:	00 00 	addb	%al, (%rax)
     2b1:	00 00 	addb	%al, (%rax)
     2b3:	00 00 	addb	%al, (%rax)
     2b5:	00 00 	addb	%al, (%rax)
     2b7:	00 15 01 00 00 12 	addb	%dl, 301989889(%rip)
     2bd:	00 02 	addb	%al, (%rdx)
     2bf:	00 f4 	addb	%dh, %ah
     2c1:	27  <unknown>
     2c2:	01 00 	addl	%eax, (%rax)
     2c4:	00 00 	addb	%al, (%rax)
     2c6:	00 00 	addb	%al, (%rax)
     2c8:	0a 00 	orb	(%rax), %al
     2ca:	00 00 	addb	%al, (%rax)
     2cc:	00 00 	addb	%al, (%rax)
     2ce:	00 00 	addb	%al, (%rax)
     2d0:	23 01 	andl	(%rcx), %eax
     2d2:	00 00 	addb	%al, (%rax)
     2d4:	12 00 	adcb	(%rax), %al
     2d6:	02 00 	addb	(%rax), %al
     2d8:	cc 	int3
     2d9:	19 01 	sbbl	%eax, (%rcx)
     2db:	00 00 	addb	%al, (%rax)
     2dd:	00 00 	addb	%al, (%rax)
     2df:	00 0d 00 00 00 00 	addb	%cl, (%rip)
     2e5:	00 00 	addb	%al, (%rax)
     2e7:	00 32 	addb	%dh, (%rdx)
     2e9:	01 00 	addl	%eax, (%rax)
     2eb:	00 10 	addb	%dl, (%rax)
     2ed:	00 02 	addb	%al, (%rdx)
     2ef:	00 c0 	addb	%al, %al
     2f1:	3e 01 00 	addl	%eax, %ds:(%rax)
     2f4:	00 00 	addb	%al, (%rax)
     2f6:	00 00 	addb	%al, (%rax)
     2f8:	00 00 	addb	%al, (%rax)
     2fa:	00 00 	addb	%al, (%rax)
     2fc:	00 00 	addb	%al, (%rax)
     2fe:	00 00 	addb	%al, (%rax)
     300:	38 01 	cmpb	%al, (%rcx)
     302:	00 00 	addb	%al, (%rax)
     304:	12 00 	adcb	(%rax), %al
     306:	02 00 	addb	(%rax), %al
     308:	30 28 	xorb	%ch, (%rax)
     30a:	01 00 	addl	%eax, (%rax)
     30c:	00 00 	addb	%al, (%rax)
     30e:	00 00 	addb	%al, (%rax)
     310:	0a 00 	orb	(%rax), %al
     312:	00 00 	addb	%al, (%rax)
     314:	00 00 	addb	%al, (%rax)
     316:	00 00 	addb	%al, (%rax)
     318:	46 01 00 	addl	%r8d, (%rax)
     31b:	00 12 	addb	%dl, (%rdx)
     31d:	00 02 	addb	%al, (%rdx)
     31f:	00 b9 00 01 00 00 	addb	%bh, 256(%rcx)
     325:	00 00 	addb	%al, (%rax)
     327:	00 4a 00 	addb	%cl, (%rdx)
     32a:	00 00 	addb	%al, (%rax)
     32c:	00 00 	addb	%al, (%rax)
     32e:	00 00 	addb	%al, (%rax)
     330:	4b 01 00 	addq	%rax, (%r8)
     333:	00 12 	addb	%dl, (%rdx)
     335:	00 02 	addb	%al, (%rdx)
     337:	00 44 28 01 	addb	%al, 1(%rax,%rbp)
     33b:	00 00 	addb	%al, (%rax)
     33d:	00 00 	addb	%al, (%rax)
     33f:	00 8e 00 00 00 00 	addb	%cl, (%rsi)
     345:	00 00 	addb	%al, (%rax)
     347:	00 54 01 00 	addb	%dl, (%rcx,%rax)
     34b:	00 12 	addb	%dl, (%rdx)
     34d:	00 02 	addb	%al, (%rdx)
     34f:	00 03 	addb	%al, (%rbx)
     351:	01 01 	addl	%eax, (%rcx)
     353:	00 00 	addb	%al, (%rax)
     355:	00 00 	addb	%al, (%rax)
     357:	00 14 00 	addb	%dl, (%rax,%rax)
     35a:	00 00 	addb	%al, (%rax)
     35c:	00 00 	addb	%al, (%rax)
     35e:	00 00 	addb	%al, (%rax)
     360:	5a 	popq	%rdx
     361:	01 00 	addl	%eax, (%rax)
     363:	00 12 	addb	%dl, (%rdx)
     365:	00 02 	addb	%al, (%rdx)
     367:	00 88 0b 01 00 00 	addb	%cl, 267(%rax)
     36d:	00 00 	addb	%al, (%rax)
     36f:	00 5c 00 00 	addb	%bl, (%rax,%rax)
     373:	00 00 	addb	%al, (%rax)
     375:	00 00 	addb	%al, (%rax)
     377:	00 64 01 00 	addb	%ah, (%rcx,%rax)
     37b:	00 10 	addb	%dl, (%rax)
     37d:	00 02 	addb	%al, (%rdx)
     37f:	00 20 	addb	%ah, (%rax)
     381:	3e 01 00 	addl	%eax, %ds:(%rax)
     384:	00 00 	addb	%al, (%rax)
     386:	00 00 	addb	%al, (%rax)
     388:	00 00 	addb	%al, (%rax)
     38a:	00 00 	addb	%al, (%rax)
     38c:	00 00 	addb	%al, (%rax)
     38e:	00 00 	addb	%al, (%rax)
     390:	6a 01 	pushq	$1
     392:	00 00 	addb	%al, (%rax)
     394:	10 00 	adcb	%al, (%rax)
     396:	02 00 	addb	(%rax), %al
     398:	60  <unknown>
     399:	3f  <unknown>
     39a:	01 00 	addl	%eax, (%rax)
     39c:	00 00 	addb	%al, (%rax)
     39e:	00 00 	addb	%al, (%rax)
     3a0:	00 00 	addb	%al, (%rax)
     3a2:	00 00 	addb	%al, (%rax)
     3a4:	00 00 	addb	%al, (%rax)
     3a6:	00 00 	addb	%al, (%rax)
     3a8:	70 01 	jo	1 <video.c+0x3ab>
     3aa:	00 00 	addb	%al, (%rax)
     3ac:	10 00 	adcb	%al, (%rax)
     3ae:	02 00 	addb	(%rax), %al
     3b0:	40 37  <unknown>
     3b2:	01 00 	addl	%eax, (%rax)
     3b4:	00 00 	addb	%al, (%rax)
     3b6:	00 00 	addb	%al, (%rax)
     3b8:	00 00 	addb	%al, (%rax)
     3ba:	00 00 	addb	%al, (%rax)
     3bc:	00 00 	addb	%al, (%rax)
     3be:	00 00 	addb	%al, (%rax)
     3c0:	75 01 	jne	1 <video.c+0x3c3>
     3c2:	00 00 	addb	%al, (%rax)
     3c4:	10 00 	adcb	%al, (%rax)
     3c6:	02 00 	addb	(%rax), %al
     3c8:	80 3d 01 00 00 00 00 	cmpb	$0, 1(%rip)
     3cf:	00 00 	addb	%al, (%rax)
     3d1:	00 00 	addb	%al, (%rax)
     3d3:	00 00 	addb	%al, (%rax)
     3d5:	00 00 	addb	%al, (%rax)
     3d7:	00 7a 01 	addb	%bh, 1(%rdx)
     3da:	00 00 	addb	%al, (%rax)
     3dc:	12 00 	adcb	(%rax), %al
     3de:	02 00 	addb	(%rax), %al
     3e0:	3d 08 01 00 00 	cmpl	$264, %eax
     3e5:	00 00 	addb	%al, (%rax)
     3e7:	00 54 00 00 	addb	%dl, (%rax,%rax)
     3eb:	00 00 	addb	%al, (%rax)
     3ed:	00 00 	addb	%al, (%rax)
     3ef:	00 81 01 00 00 12 	addb	%al, 301989889(%rcx)
     3f5:	00 02 	addb	%al, (%rdx)
     3f7:	00 2e 	addb	%ch, (%rsi)
     3f9:	1e  <unknown>
     3fa:	01 00 	addl	%eax, (%rax)
     3fc:	00 00 	addb	%al, (%rax)
     3fe:	00 00 	addb	%al, (%rax)
     400:	f2 01 00 	repne		addl	%eax, (%rax)
     403:	00 00 	addb	%al, (%rax)
     405:	00 00 	addb	%al, (%rax)
     407:	00 87 01 00 00 12 	addb	%al, 301989889(%rdi)
     40d:	00 02 	addb	%al, (%rdx)
     40f:	00 8d 21 01 00 00 	addb	%cl, 289(%rbp)
     415:	00 00 	addb	%al, (%rax)
     417:	00 2b 	addb	%ch, (%rbx)
     419:	01 00 	addl	%eax, (%rax)
     41b:	00 00 	addb	%al, (%rax)
     41d:	00 00 	addb	%al, (%rax)
     41f:	00 90 01 00 00 11 	addb	%dl, 285212673(%rax)
     425:	00 02 	addb	%al, (%rdx)
     427:	00 60 34 	addb	%ah, 52(%rax)
     42a:	01 00 	addl	%eax, (%rax)
     42c:	00 00 	addb	%al, (%rax)
     42e:	00 00 	addb	%al, (%rax)
     430:	0a 00 	orb	(%rax), %al
     432:	00 00 	addb	%al, (%rax)
     434:	00 00 	addb	%al, (%rax)
     436:	00 00 	addb	%al, (%rax)
     438:	9b 	wait
     439:	01 00 	addl	%eax, (%rax)
     43b:	00 12 	addb	%dl, (%rdx)
     43d:	00 02 	addb	%al, (%rdx)
     43f:	00 07 	addb	%al, (%rdi)
     441:	0f 01 00 	sgdtq	(%rax)
     444:	00 00 	addb	%al, (%rax)
     446:	00 00 	addb	%al, (%rax)
     448:	4f 00 00 	addb	%r8b, (%r8)
     44b:	00 00 	addb	%al, (%rax)
     44d:	00 00 	addb	%al, (%rax)
     44f:	00 af 01 00 00 10 	addb	%ch, 268435457(%rdi)
     455:	00 02 	addb	%al, (%rdx)
     457:	00 b0 33 01 00 00 	addb	%dh, 307(%rax)
     45d:	00 00 	addb	%al, (%rax)
     45f:	00 00 	addb	%al, (%rax)
     461:	00 00 	addb	%al, (%rax)
     463:	00 00 	addb	%al, (%rax)
     465:	00 00 	addb	%al, (%rax)
     467:	00 ba 01 00 00 12 	addb	%bh, 301989889(%rdx)
     46d:	00 02 	addb	%al, (%rdx)
     46f:	00 d0 	addb	%dl, %al
     471:	2d 01 00 00 00 	subl	$1, %eax
     476:	00 00 	addb	%al, (%rax)
     478:	7b 02 	jnp	2 <video.c+0x47c>
     47a:	00 00 	addb	%al, (%rax)
     47c:	00 00 	addb	%al, (%rax)
     47e:	00 00 	addb	%al, (%rax)
     480:	c7 01 00 00 10 00 	movl	$1048576, (%rcx)
     486:	02 00 	addb	(%rax), %al
     488:	70 3e 	jo	62 <video.c+0x4c8>
     48a:	01 00 	addl	%eax, (%rax)
     48c:	00 00 	addb	%al, (%rax)
     48e:	00 00 	addb	%al, (%rax)
     490:	00 00 	addb	%al, (%rax)
     492:	00 00 	addb	%al, (%rax)
     494:	00 00 	addb	%al, (%rax)
     496:	00 00 	addb	%al, (%rax)
     498:	cd 01 	int	$1
     49a:	00 00 	addb	%al, (%rax)
     49c:	12 00 	adcb	(%rax), %al
     49e:	02 00 	addb	(%rax), %al
     4a0:	d9 19 	fstps	(%rcx)
     4a2:	01 00 	addl	%eax, (%rax)
     4a4:	00 00 	addb	%al, (%rax)
     4a6:	00 00 	addb	%al, (%rax)
     4a8:	12 00 	adcb	(%rax), %al
     4aa:	00 00 	addb	%al, (%rax)
     4ac:	00 00 	addb	%al, (%rax)
     4ae:	00 00 	addb	%al, (%rax)
     4b0:	f6 01 00 	testb	$0, (%rcx)
     4b3:	00 12 	addb	%dl, (%rdx)
     4b5:	00 02 	addb	%al, (%rdx)
     4b7:	00 ad 0d 01 00 00 	addb	%ch, 269(%rbp)
     4bd:	00 00 	addb	%al, (%rax)
     4bf:	00 77 00 	addb	%dh, (%rdi)
     4c2:	00 00 	addb	%al, (%rax)
     4c4:	00 00 	addb	%al, (%rax)
     4c6:	00 00 	addb	%al, (%rax)
     4c8:	dd 01 	fldl	(%rcx)
     4ca:	00 00 	addb	%al, (%rax)
     4cc:	10 00 	adcb	%al, (%rax)
     4ce:	02 00 	addb	(%rax), %al
     4d0:	60  <unknown>
     4d1:	0f 01 00 	sgdtq	(%rax)
     4d4:	00 00 	addb	%al, (%rax)
     4d6:	00 00 	addb	%al, (%rax)
     4d8:	00 00 	addb	%al, (%rax)
     4da:	00 00 	addb	%al, (%rax)
     4dc:	00 00 	addb	%al, (%rax)
     4de:	00 00 	addb	%al, (%rax)
     4e0:	e5 01 	inl	$1, %eax
     4e2:	00 00 	addb	%al, (%rax)
     4e4:	10 00 	adcb	%al, (%rax)
     4e6:	f1  <unknown>
     4e7:	ff 00 	incl	(%rax)
     4e9:	00 01 	addb	%al, (%rcx)
     4eb:	00 00 	addb	%al, (%rax)
     4ed:	00 00 	addb	%al, (%rax)
     4ef:	00 00 	addb	%al, (%rax)
     4f1:	00 00 	addb	%al, (%rax)
     4f3:	00 00 	addb	%al, (%rax)
     4f5:	00 00 	addb	%al, (%rax)
     4f7:	00 f4 	addb	%dh, %ah
     4f9:	01 00 	addl	%eax, (%rax)
     4fb:	00 12 	addb	%dl, (%rdx)
     4fd:	00 02 	addb	%al, (%rdx)
     4ff:	00 24 0e 	addb	%ah, (%rsi,%rcx)
     502:	01 00 	addl	%eax, (%rax)
     504:	00 00 	addb	%al, (%rax)
     506:	00 00 	addb	%al, (%rax)
     508:	77 00 	ja	0 <video.c+0x50a>
     50a:	00 00 	addb	%al, (%rax)
     50c:	00 00 	addb	%al, (%rax)
     50e:	00 00 	addb	%al, (%rax)
     510:	03 02 	addl	(%rdx), %eax
     512:	00 00 	addb	%al, (%rax)
     514:	10 00 	adcb	%al, (%rax)
     516:	02 00 	addb	(%rax), %al
     518:	f0 	lock
     519:	36 01 00 	addl	%eax, %ss:(%rax)
     51c:	00 00 	addb	%al, (%rax)
     51e:	00 00 	addb	%al, (%rax)
     520:	00 00 	addb	%al, (%rax)
     522:	00 00 	addb	%al, (%rax)
     524:	00 00 	addb	%al, (%rax)
     526:	00 00 	addb	%al, (%rax)
     528:	08 02 	orb	%al, (%rdx)
     52a:	00 00 	addb	%al, (%rax)
     52c:	10 00 	adcb	%al, (%rax)
     52e:	02 00 	addb	(%rax), %al
     530:	90 	nop
     531:	3c 01 	cmpb	$1, %al
     533:	00 00 	addb	%al, (%rax)
     535:	00 00 	addb	%al, (%rax)
     537:	00 00 	addb	%al, (%rax)
     539:	00 00 	addb	%al, (%rax)
     53b:	00 00 	addb	%al, (%rax)
     53d:	00 00 	addb	%al, (%rax)
     53f:	00 0d 02 00 00 12 	addb	%cl, 301989890(%rip)
     545:	00 02 	addb	%al, (%rdx)
     547:	00 09 	addb	%cl, (%rcx)
     549:	04 01 	addb	$1, %al
     54b:	00 00 	addb	%al, (%rax)
     54d:	00 00 	addb	%al, (%rax)
     54f:	00 87 00 00 00 00 	addb	%al, (%rdi)
     555:	00 00 	addb	%al, (%rax)
     557:	00 19 	addb	%bl, (%rcx)
     559:	02 00 	addb	(%rax), %al
     55b:	00 12 	addb	%dl, (%rdx)
     55d:	00 02 	addb	%al, (%rdx)
     55f:	00 fe 	addb	%bh, %dh
     561:	27  <unknown>
     562:	01 00 	addl	%eax, (%rax)
     564:	00 00 	addb	%al, (%rax)
     566:	00 00 	addb	%al, (%rax)
     568:	0a 00 	orb	(%rax), %al
     56a:	00 00 	addb	%al, (%rax)
     56c:	00 00 	addb	%al, (%rax)
     56e:	00 00 	addb	%al, (%rax)
     570:	27  <unknown>
     571:	02 00 	addb	(%rax), %al
     573:	00 10 	addb	%dl, (%rax)
     575:	00 02 	addb	%al, (%rdx)
     577:	00 60 3a 	addb	%ah, 58(%rax)
     57a:	01 00 	addl	%eax, (%rax)
     57c:	00 00 	addb	%al, (%rax)
     57e:	00 00 	addb	%al, (%rax)
     580:	00 00 	addb	%al, (%rax)
     582:	00 00 	addb	%al, (%rax)
     584:	00 00 	addb	%al, (%rax)
     586:	00 00 	addb	%al, (%rax)
     588:	2d 02 00 00 12 	subl	$301989890, %eax
     58d:	00 02 	addb	%al, (%rdx)
     58f:	00 26 	addb	%ah, (%rsi)
     591:	28 01 	subb	%al, (%rcx)
     593:	00 00 	addb	%al, (%rax)
     595:	00 00 	addb	%al, (%rax)
     597:	00 0a 	addb	%cl, (%rdx)
     599:	00 00 	addb	%al, (%rax)
     59b:	00 00 	addb	%al, (%rax)
     59d:	00 00 	addb	%al, (%rax)
     59f:	00 3b 	addb	%bh, (%rbx)
     5a1:	02 00 	addb	(%rax), %al
     5a3:	00 10 	addb	%dl, (%rax)
     5a5:	00 02 	addb	%al, (%rdx)
     5a7:	00 d0 	addb	%dl, %al
     5a9:	38 01 	cmpb	%al, (%rcx)
     5ab:	00 00 	addb	%al, (%rax)
     5ad:	00 00 	addb	%al, (%rax)
     5af:	00 00 	addb	%al, (%rax)
     5b1:	00 00 	addb	%al, (%rax)
     5b3:	00 00 	addb	%al, (%rax)
     5b5:	00 00 	addb	%al, (%rax)
     5b7:	00 41 02 	addb	%al, 2(%rcx)
     5ba:	00 00 	addb	%al, (%rax)
     5bc:	10 00 	adcb	%al, (%rax)
     5be:	02 00 	addb	(%rax), %al
     5c0:	00 40 01 	addb	%al, 1(%rax)
     5c3:	00 00 	addb	%al, (%rax)
     5c5:	00 00 	addb	%al, (%rax)
     5c7:	00 00 	addb	%al, (%rax)
     5c9:	00 00 	addb	%al, (%rax)
     5cb:	00 00 	addb	%al, (%rax)
     5cd:	00 00 	addb	%al, (%rax)
     5cf:	00 4a 02 	addb	%cl, 2(%rdx)
     5d2:	00 00 	addb	%al, (%rax)
     5d4:	12 00 	adcb	(%rax), %al
     5d6:	02 00 	addb	(%rax), %al
     5d8:	57 	pushq	%rdi
     5d9:	20 01 	andb	%al, (%rcx)
     5db:	00 00 	addb	%al, (%rax)
     5dd:	00 00 	addb	%al, (%rax)
     5df:	00 1c 00 	addb	%bl, (%rax,%rax)
     5e2:	00 00 	addb	%al, (%rax)
     5e4:	00 00 	addb	%al, (%rax)
     5e6:	00 00 	addb	%al, (%rax)
     5e8:	4e 02 00 	addb	(%rax), %r8b
     5eb:	00 10 	addb	%dl, (%rax)
     5ed:	00 02 	addb	%al, (%rdx)
     5ef:	00 00 	addb	%al, (%rax)
     5f1:	36 01 00 	addl	%eax, %ss:(%rax)
     5f4:	00 00 	addb	%al, (%rax)
     5f6:	00 00 	addb	%al, (%rax)
     5f8:	00 00 	addb	%al, (%rax)
     5fa:	00 00 	addb	%al, (%rax)
     5fc:	00 00 	addb	%al, (%rax)
     5fe:	00 00 	addb	%al, (%rax)
     600:	53 	pushq	%rbx
     601:	02 00 	addb	(%rax), %al
     603:	00 12 	addb	%dl, (%rdx)
     605:	00 02 	addb	%al, (%rdx)
     607:	00 b8 27 01 00 00 	addb	%bh, 295(%rax)
     60d:	00 00 	addb	%al, (%rax)
     60f:	00 0a 	addb	%cl, (%rdx)
     611:	00 00 	addb	%al, (%rax)
     613:	00 00 	addb	%al, (%rax)
     615:	00 00 	addb	%al, (%rax)
     617:	00 60 02 	addb	%ah, 2(%rax)
     61a:	00 00 	addb	%al, (%rax)
     61c:	12 00 	adcb	(%rax), %al
     61e:	02 00 	addb	(%rax), %al
     620:	38 06 	cmpb	%al, (%rsi)
     622:	01 00 	addl	%eax, (%rax)
     624:	00 00 	addb	%al, (%rax)
     626:	00 00 	addb	%al, (%rax)
     628:	5d 	popq	%rbp
     629:	00 00 	addb	%al, (%rax)
     62b:	00 00 	addb	%al, (%rax)
     62d:	00 00 	addb	%al, (%rax)
     62f:	00 68 02 	addb	%ch, 2(%rax)
     632:	00 00 	addb	%al, (%rax)
     634:	11 00 	adcl	%eax, (%rax)
     636:	02 00 	addb	(%rax), %al
     638:	00 34 01 	addb	%dh, (%rcx,%rax)
     63b:	00 00 	addb	%al, (%rax)
     63d:	00 00 	addb	%al, (%rax)
     63f:	00 04 00 	addb	%al, (%rax,%rax)
     642:	00 00 	addb	%al, (%rax)
     644:	00 00 	addb	%al, (%rax)
     646:	00 00 	addb	%al, (%rax)
     648:	91 	xchgl	%ecx, %eax
     649:	02 00 	addb	(%rax), %al
     64b:	00 11 	addb	%dl, (%rcx)
     64d:	00 02 	addb	%al, (%rdx)
     64f:	00 50 34 	addb	%dl, 52(%rax)
     652:	01 00 	addl	%eax, (%rax)
     654:	00 00 	addb	%al, (%rax)
     656:	00 00 	addb	%al, (%rax)
     658:	08 00 	orb	%al, (%rax)
     65a:	00 00 	addb	%al, (%rax)
     65c:	00 00 	addb	%al, (%rax)
     65e:	00 00 	addb	%al, (%rax)
     660:	9d 	popfq
     661:	02 00 	addb	(%rax), %al
     663:	00 12 	addb	%dl, (%rdx)
     665:	00 02 	addb	%al, (%rdx)
     667:	00 ea 	addb	%ch, %dl
     669:	27  <unknown>
     66a:	01 00 	addl	%eax, (%rax)
     66c:	00 00 	addb	%al, (%rax)
     66e:	00 00 	addb	%al, (%rax)
     670:	0a 00 	orb	(%rax), %al
     672:	00 00 	addb	%al, (%rax)
     674:	00 00 	addb	%al, (%rax)
     676:	00 00 	addb	%al, (%rax)
     678:	ab 	stosl	%eax, %es:(%rdi)
     679:	02 00 	addb	(%rax), %al
     67b:	00 12 	addb	%dl, (%rdx)
     67d:	00 02 	addb	%al, (%rdx)
     67f:	00 90 04 01 00 00 	addb	%dl, 260(%rax)
     685:	00 00 	addb	%al, (%rax)
     687:	00 60 00 	addb	%ah, (%rax)
     68a:	00 00 	addb	%al, (%rax)
     68c:	00 00 	addb	%al, (%rax)
     68e:	00 00 	addb	%al, (%rax)
     690:	b2 02 	movb	$2, %dl
     692:	00 00 	addb	%al, (%rax)
     694:	10 00 	adcb	%al, (%rax)
     696:	02 00 	addb	(%rax), %al
     698:	e0 3c 	loopne	60
     69a:	01 00 	addl	%eax, (%rax)
     69c:	00 00 	addb	%al, (%rax)
     69e:	00 00 	addb	%al, (%rax)
     6a0:	00 00 	addb	%al, (%rax)
     6a2:	00 00 	addb	%al, (%rax)
     6a4:	00 00 	addb	%al, (%rax)
     6a6:	00 00 	addb	%al, (%rax)
     6a8:	b7 02 	movb	$2, %bh
     6aa:	00 00 	addb	%al, (%rax)
     6ac:	10 00 	adcb	%al, (%rax)
     6ae:	02 00 	addb	(%rax), %al
     6b0:	50 	pushq	%rax
     6b1:	3b 01 	cmpl	(%rcx), %eax
     6b3:	00 00 	addb	%al, (%rax)
     6b5:	00 00 	addb	%al, (%rax)
     6b7:	00 00 	addb	%al, (%rax)
     6b9:	00 00 	addb	%al, (%rax)
     6bb:	00 00 	addb	%al, (%rax)
     6bd:	00 00 	addb	%al, (%rax)
     6bf:	00 bc 02 00 00 12 00 	addb	%bh, 1179648(%rdx,%rax)
     6c6:	02 00 	addb	(%rax), %al
     6c8:	90 	nop
     6c9:	0a 01 	orb	(%rcx), %al
     6cb:	00 00 	addb	%al, (%rax)
     6cd:	00 00 	addb	%al, (%rax)
     6cf:	00 a7 00 00 00 00 	addb	%ah, (%rdi)
     6d5:	00 00 	addb	%al, (%rax)
     6d7:	00 d2 	addb	%dl, %dl
     6d9:	02 00 	addb	(%rax), %al
     6db:	00 12 	addb	%dl, (%rdx)
     6dd:	00 02 	addb	%al, (%rdx)
     6df:	00 66 2d 	addb	%ah, 45(%rsi)
     6e2:	01 00 	addl	%eax, (%rax)
     6e4:	00 00 	addb	%al, (%rax)
     6e6:	00 00 	addb	%al, (%rax)
     6e8:	6a 00 	pushq	$0
     6ea:	00 00 	addb	%al, (%rax)
     6ec:	00 00 	addb	%al, (%rax)
     6ee:	00 00 	addb	%al, (%rax)
     6f0:	df 02 	filds	(%rdx)
     6f2:	00 00 	addb	%al, (%rax)
     6f4:	12 00 	adcb	(%rax), %al
     6f6:	02 00 	addb	(%rax), %al
     6f8:	cc 	int3
     6f9:	27  <unknown>
     6fa:	01 00 	addl	%eax, (%rax)
     6fc:	00 00 	addb	%al, (%rax)
     6fe:	00 00 	addb	%al, (%rax)
     700:	0a 00 	orb	(%rax), %al
     702:	00 00 	addb	%al, (%rax)
     704:	00 00 	addb	%al, (%rax)
     706:	00 00 	addb	%al, (%rax)
     708:	ec 	inb	%dx, %al
     709:	02 00 	addb	(%rax), %al
     70b:	00 12 	addb	%dl, (%rdx)
     70d:	00 02 	addb	%al, (%rdx)
     70f:	00 b6 19 01 00 00 	addb	%dh, 281(%rsi)
     715:	00 00 	addb	%al, (%rax)
     717:	00 16 	addb	%dl, (%rsi)
     719:	00 00 	addb	%al, (%rax)
     71b:	00 00 	addb	%al, (%rax)
     71d:	00 00 	addb	%al, (%rax)
     71f:	00 fd 	addb	%bh, %ch
     721:	02 00 	addb	(%rax), %al
     723:	00 11 	addb	%dl, (%rcx)
     725:	00 02 	addb	%al, (%rdx)
     727:	00 e2 	addb	%ah, %dl
     729:	33 01 	xorl	(%rcx), %eax
     72b:	00 00 	addb	%al, (%rax)
     72d:	00 00 	addb	%al, (%rax)
     72f:	00 02 	addb	%al, (%rdx)
     731:	00 00 	addb	%al, (%rax)
     733:	00 00 	addb	%al, (%rax)
     735:	00 00 	addb	%al, (%rax)
     737:	00 11 	addb	%dl, (%rcx)
     739:	03 00 	addl	(%rax), %eax
     73b:	00 12 	addb	%dl, (%rdx)
     73d:	00 02 	addb	%al, (%rdx)
     73f:	00 8b 11 01 00 00 	addb	%cl, 273(%rbx)
     745:	00 00 	addb	%al, (%rax)
     747:	00 1b 	addb	%bl, (%rbx)
     749:	01 00 	addl	%eax, (%rax)
     74b:	00 00 	addb	%al, (%rax)
     74d:	00 00 	addb	%al, (%rax)
     74f:	00 1c 03 	addb	%bl, (%rbx,%rax)
     752:	00 00 	addb	%al, (%rax)
     754:	12 00 	adcb	(%rax), %al
     756:	02 00 	addb	(%rax), %al
     758:	95 	xchgl	%ebp, %eax
     759:	06  <unknown>
     75a:	01 00 	addl	%eax, (%rax)
     75c:	00 00 	addb	%al, (%rax)
     75e:	00 00 	addb	%al, (%rax)
     760:	5e 	popq	%rsi
     761:	00 00 	addb	%al, (%rax)
     763:	00 00 	addb	%al, (%rax)
     765:	00 00 	addb	%al, (%rax)
     767:	00 23 	addb	%ah, (%rbx)
     769:	03 00 	addl	(%rax), %eax
     76b:	00 10 	addb	%dl, (%rax)
     76d:	00 02 	addb	%al, (%rdx)
     76f:	00 c0 	addb	%al, %al
     771:	34 01 	xorb	$1, %al
     773:	00 00 	addb	%al, (%rax)
     775:	00 00 	addb	%al, (%rax)
     777:	00 00 	addb	%al, (%rax)
     779:	00 00 	addb	%al, (%rax)
     77b:	00 00 	addb	%al, (%rax)
     77d:	00 00 	addb	%al, (%rax)
     77f:	00 28 	addb	%ch, (%rax)
     781:	03 00 	addl	(%rax), %eax
     783:	00 10 	addb	%dl, (%rax)
     785:	00 02 	addb	%al, (%rdx)
     787:	00 d0 	addb	%dl, %al
     789:	3d 01 00 00 00 	cmpl	$1, %eax
     78e:	00 00 	addb	%al, (%rax)
     790:	00 00 	addb	%al, (%rax)
     792:	00 00 	addb	%al, (%rax)
     794:	00 00 	addb	%al, (%rax)
     796:	00 00 	addb	%al, (%rax)
     798:	2d 03 00 00 12 	subl	$301989891, %eax
     79d:	00 02 	addb	%al, (%rdx)
     79f:	00 2c 03 	addb	%ch, (%rbx,%rax)
     7a2:	01 00 	addl	%eax, (%rax)
     7a4:	00 00 	addb	%al, (%rax)
     7a6:	00 00 	addb	%al, (%rax)
     7a8:	68 00 00 00 00 	pushq	$0
     7ad:	00 00 	addb	%al, (%rax)
     7af:	00 35 03 00 00 12 	addb	%dh, 301989891(%rip)
     7b5:	00 02 	addb	%al, (%rdx)
     7b7:	00 86 27 01 00 00 	addb	%al, 295(%rsi)
     7bd:	00 00 	addb	%al, (%rax)
     7bf:	00 0a 	addb	%cl, (%rdx)
     7c1:	00 00 	addb	%al, (%rax)
     7c3:	00 00 	addb	%al, (%rax)
     7c5:	00 00 	addb	%al, (%rax)
     7c7:	00 42 03 	addb	%al, 3(%rdx)
     7ca:	00 00 	addb	%al, (%rax)
     7cc:	12 00 	adcb	(%rax), %al
     7ce:	02 00 	addb	(%rax), %al
     7d0:	0c 0a 	orb	$10, %al
     7d2:	01 00 	addl	%eax, (%rax)
     7d4:	00 00 	addb	%al, (%rax)
     7d6:	00 00 	addb	%al, (%rax)
     7d8:	18 00 	sbbb	%al, (%rax)
     7da:	00 00 	addb	%al, (%rax)
     7dc:	00 00 	addb	%al, (%rax)
     7de:	00 00 	addb	%al, (%rax)
     7e0:	50 	pushq	%rax
     7e1:	03 00 	addl	(%rax), %eax
     7e3:	00 12 	addb	%dl, (%rdx)
     7e5:	00 02 	addb	%al, (%rdx)
     7e7:	00 ac 01 01 00 00 00 	addb	%ch, 1(%rcx,%rax)
     7ee:	00 00 	addb	%al, (%rax)
     7f0:	65 00 00 	addb	%al, %gs:(%rax)
     7f3:	00 00 	addb	%al, (%rax)
     7f5:	00 00 	addb	%al, (%rax)
     7f7:	00 54 03 00 	addb	%dl, (%rbx,%rax)
     7fb:	00 12 	addb	%dl, (%rdx)
     7fd:	00 02 	addb	%al, (%rdx)
     7ff:	00 ce 	addb	%cl, %dh
     801:	07  <unknown>
     802:	01 00 	addl	%eax, (%rax)
     804:	00 00 	addb	%al, (%rax)
     806:	00 00 	addb	%al, (%rax)
     808:	6f 	outsl	(%rsi), %dx
     809:	00 00 	addb	%al, (%rax)
     80b:	00 00 	addb	%al, (%rax)
     80d:	00 00 	addb	%al, (%rax)
     80f:	00 5c 03 00 	addb	%bl, (%rbx,%rax)
     813:	00 12 	addb	%dl, (%rdx)
     815:	00 02 	addb	%al, (%rdx)
     817:	00 40 32 	addb	%al, 50(%rax)
     81a:	01 00 	addl	%eax, (%rax)
     81c:	00 00 	addb	%al, (%rax)
     81e:	00 00 	addb	%al, (%rax)
     820:	64 01 00 	addl	%eax, %fs:(%rax)
     823:	00 00 	addb	%al, (%rax)
     825:	00 00 	addb	%al, (%rax)
     827:	00 67 03 	addb	%ah, 3(%rdi)
     82a:	00 00 	addb	%al, (%rax)
     82c:	12 00 	adcb	(%rax), %al
     82e:	02 00 	addb	(%rax), %al
     830:	94 	xchgl	%esp, %eax
     831:	03 01 	addl	(%rcx), %eax
     833:	00 00 	addb	%al, (%rax)
     835:	00 00 	addb	%al, (%rax)
     837:	00 75 00 	addb	%dh, (%rbp)
     83a:	00 00 	addb	%al, (%rax)
     83c:	00 00 	addb	%al, (%rax)
     83e:	00 00 	addb	%al, (%rax)
     840:	72 03 	jb	3 <video.c+0x845>
     842:	00 00 	addb	%al, (%rax)
     844:	12 00 	adcb	(%rax), %al
     846:	02 00 	addb	(%rax), %al
     848:	a6 	cmpsb	%es:(%rdi), (%rsi)
     849:	12 01 	adcb	(%rcx), %al
     84b:	00 00 	addb	%al, (%rax)
     84d:	00 00 	addb	%al, (%rax)
     84f:	00 b0 05 00 00 00 	addb	%dh, 5(%rax)
     855:	00 00 	addb	%al, (%rax)
     857:	00 8b 03 00 00 10 	addb	%cl, 268435459(%rbx)
     85d:	00 02 	addb	%al, (%rdx)
     85f:	00 e0 	addb	%ah, %al
     861:	37  <unknown>
     862:	01 00 	addl	%eax, (%rax)
     864:	00 00 	addb	%al, (%rax)
     866:	00 00 	addb	%al, (%rax)
     868:	00 00 	addb	%al, (%rax)
     86a:	00 00 	addb	%al, (%rax)
     86c:	00 00 	addb	%al, (%rax)
     86e:	00 00 	addb	%al, (%rax)
     870:	91 	xchgl	%ecx, %eax
     871:	03 00 	addl	(%rax), %eax
     873:	00 12 	addb	%dl, (%rdx)
     875:	00 02 	addb	%al, (%rdx)
     877:	00 d7 	addb	%dl, %bh
     879:	0e  <unknown>
     87a:	01 00 	addl	%eax, (%rax)
     87c:	00 00 	addb	%al, (%rax)
     87e:	00 00 	addb	%al, (%rax)
     880:	30 00 	xorb	%al, (%rax)
     882:	00 00 	addb	%al, (%rax)
     884:	00 00 	addb	%al, (%rax)
     886:	00 00 	addb	%al, (%rax)
     888:	a5 	movsl	(%rsi), %es:(%rdi)
     889:	03 00 	addl	(%rax), %eax
     88b:	00 12 	addb	%dl, (%rdx)
     88d:	00 02 	addb	%al, (%rdx)
     88f:	00 51 2b 	addb	%dl, 43(%rcx)
     892:	01 00 	addl	%eax, (%rax)
     894:	00 00 	addb	%al, (%rax)
     896:	00 00 	addb	%al, (%rax)
     898:	b6 00 	movb	$0, %dh
     89a:	00 00 	addb	%al, (%rax)
     89c:	00 00 	addb	%al, (%rax)
     89e:	00 00 	addb	%al, (%rax)
     8a0:	af 	scasl	%es:(%rdi), %eax
     8a1:	03 00 	addl	(%rax), %eax
     8a3:	00 12 	addb	%dl, (%rdx)
     8a5:	00 02 	addb	%al, (%rdx)
     8a7:	00 2e 	addb	%ch, (%rsi)
     8a9:	01 01 	addl	%eax, (%rcx)
     8ab:	00 00 	addb	%al, (%rax)
     8ad:	00 00 	addb	%al, (%rax)
     8af:	00 17 	addb	%dl, (%rdi)
     8b1:	00 00 	addb	%al, (%rax)
     8b3:	00 00 	addb	%al, (%rax)
     8b5:	00 00 	addb	%al, (%rax)
     8b7:	00 b3 03 00 00 12 	addb	%dh, 301989891(%rbx)
     8bd:	00 02 	addb	%al, (%rdx)
     8bf:	00 88 09 01 00 00 	addb	%cl, 265(%rax)
     8c5:	00 00 	addb	%al, (%rax)
     8c7:	00 84 00 00 00 00 00 	addb	%al, (%rax,%rax)
     8ce:	00 00 	addb	%al, (%rax)
     8d0:	ba 03 00 00 12 	movl	$301989891, %edx
     8d5:	00 02 	addb	%al, (%rdx)
     8d7:	00 8e 02 01 00 00 	addb	%cl, 258(%rsi)
     8dd:	00 00 	addb	%al, (%rax)
     8df:	00 1e 	addb	%bl, (%rsi)
     8e1:	00 00 	addb	%al, (%rax)
     8e3:	00 00 	addb	%al, (%rax)
     8e5:	00 00 	addb	%al, (%rax)
     8e7:	00 c6 	addb	%al, %dh
     8e9:	03 00 	addl	(%rax), %eax
     8eb:	00 12 	addb	%dl, (%rdx)
     8ed:	00 02 	addb	%al, (%rdx)
     8ef:	00 4b 30 	addb	%cl, 48(%rbx)
     8f2:	01 00 	addl	%eax, (%rax)
     8f4:	00 00 	addb	%al, (%rax)
     8f6:	00 00 	addb	%al, (%rax)
     8f8:	f5 	cmc
     8f9:	01 00 	addl	%eax, (%rax)
     8fb:	00 00 	addb	%al, (%rax)
     8fd:	00 00 	addb	%al, (%rax)
     8ff:	00 d1 	addb	%dl, %cl
     901:	03 00 	addl	(%rax), %eax
     903:	00 12 	addb	%dl, (%rdx)
     905:	00 02 	addb	%al, (%rdx)
     907:	00 f0 	addb	%dh, %al
     909:	04 01 	addb	$1, %al
     90b:	00 00 	addb	%al, (%rax)
     90d:	00 00 	addb	%al, (%rax)
     90f:	00 76 00 	addb	%dh, (%rsi)
     912:	00 00 	addb	%al, (%rax)
     914:	00 00 	addb	%al, (%rax)
     916:	00 00 	addb	%al, (%rax)
     918:	d9 03 	flds	(%rbx)
     91a:	00 00 	addb	%al, (%rax)
     91c:	12 00 	adcb	(%rax), %al
     91e:	02 00 	addb	(%rax), %al
     920:	07  <unknown>
     921:	2c 01 	subb	$1, %al
     923:	00 00 	addb	%al, (%rax)
     925:	00 00 	addb	%al, (%rax)
     927:	00 73 00 	addb	%dh, (%rbx)
     92a:	00 00 	addb	%al, (%rax)
     92c:	00 00 	addb	%al, (%rax)
     92e:	00 00 	addb	%al, (%rax)
     930:	e2 03 	loop	3
     932:	00 00 	addb	%al, (%rax)
     934:	12 00 	adcb	(%rax), %al
     936:	02 00 	addb	(%rax), %al
     938:	3a 20 	cmpb	(%rax), %ah
     93a:	01 00 	addl	%eax, (%rax)
     93c:	00 00 	addb	%al, (%rax)
     93e:	00 00 	addb	%al, (%rax)
     940:	1d 00 00 00 00 	sbbl	$0, %eax
     945:	00 00 	addb	%al, (%rax)
     947:	00 e7 	addb	%ah, %bh
     949:	03 00 	addl	(%rax), %eax
     94b:	00 12 	addb	%dl, (%rdx)
     94d:	00 02 	addb	%al, (%rdx)
     94f:	00 72 27 	addb	%dh, 39(%rdx)
     952:	01 00 	addl	%eax, (%rax)
     954:	00 00 	addb	%al, (%rax)
     956:	00 00 	addb	%al, (%rax)
     958:	0a 00 	orb	(%rax), %al
     95a:	00 00 	addb	%al, (%rax)
     95c:	00 00 	addb	%al, (%rax)
     95e:	00 00 	addb	%al, (%rax)
     960:	f4 	hlt
     961:	03 00 	addl	(%rax), %eax
     963:	00 10 	addb	%dl, (%rax)
     965:	00 02 	addb	%al, (%rdx)
     967:	00 10 	addb	%dl, (%rax)
     969:	3f  <unknown>
     96a:	01 00 	addl	%eax, (%rax)
     96c:	00 00 	addb	%al, (%rax)
     96e:	00 00 	addb	%al, (%rax)
     970:	00 00 	addb	%al, (%rax)
     972:	00 00 	addb	%al, (%rax)
     974:	00 00 	addb	%al, (%rax)
     976:	00 00 	addb	%al, (%rax)
     978:	fa 	cli
     979:	03 00 	addl	(%rax), %eax
     97b:	00 10 	addb	%dl, (%rax)
     97d:	00 02 	addb	%al, (%rdx)
     97f:	00 30 	addb	%dh, (%rax)
     981:	38 01 	cmpb	%al, (%rcx)
     983:	00 00 	addb	%al, (%rax)
     985:	00 00 	addb	%al, (%rax)
     987:	00 00 	addb	%al, (%rax)
     989:	00 00 	addb	%al, (%rax)
     98b:	00 00 	addb	%al, (%rax)
     98d:	00 00 	addb	%al, (%rax)
     98f:	00 00 	addb	%al, (%rax)
     991:	04 00 	addb	$0, %al
     993:	00 12 	addb	%dl, (%rdx)
     995:	00 02 	addb	%al, (%rdx)
     997:	00 d2 	addb	%dl, %dl
     999:	28 01 	subb	%al, (%rcx)
     99b:	00 00 	addb	%al, (%rax)
     99d:	00 00 	addb	%al, (%rax)
     99f:	00 73 00 	addb	%dh, (%rbx)
     9a2:	00 00 	addb	%al, (%rax)
     9a4:	00 00 	addb	%al, (%rax)
     9a6:	00 00 	addb	%al, (%rax)
     9a8:	09 04 00 	orl	%eax, (%rax,%rax)
     9ab:	00 11 	addb	%dl, (%rcx)
     9ad:	00 02 	addb	%al, (%rdx)
     9af:	00 48 34 	addb	%cl, 52(%rax)
     9b2:	01 00 	addl	%eax, (%rax)
     9b4:	00 00 	addb	%al, (%rax)
     9b6:	00 00 	addb	%al, (%rax)
     9b8:	08 00 	orb	%al, (%rax)
     9ba:	00 00 	addb	%al, (%rax)
     9bc:	00 00 	addb	%al, (%rax)
     9be:	00 00 	addb	%al, (%rax)
     9c0:	15 04 00 00 12 	adcl	$301989892, %eax
     9c5:	00 02 	addb	%al, (%rdx)
     9c7:	00 91 08 01 00 00 	addb	%dl, 264(%rcx)
     9cd:	00 00 	addb	%al, (%rax)
     9cf:	00 42 00 	addb	%al, (%rdx)
     9d2:	00 00 	addb	%al, (%rax)
     9d4:	00 00 	addb	%al, (%rax)
     9d6:	00 00 	addb	%al, (%rax)
     9d8:	1c 04 	sbbb	$4, %al
     9da:	00 00 	addb	%al, (%rax)
     9dc:	12 00 	adcb	(%rax), %al
     9de:	02 00 	addb	(%rax), %al
     9e0:	a5 	movsl	(%rsi), %es:(%rdi)
     9e1:	19 01 	sbbl	%eax, (%rcx)
     9e3:	00 00 	addb	%al, (%rax)
     9e5:	00 00 	addb	%al, (%rax)
     9e7:	00 11 	addb	%dl, (%rcx)
     9e9:	00 00 	addb	%al, (%rax)
     9eb:	00 00 	addb	%al, (%rax)
     9ed:	00 00 	addb	%al, (%rax)
     9ef:	00 36 	addb	%dh, (%rsi)
     9f1:	04 00 	addb	$0, %al
     9f3:	00 12 	addb	%dl, (%rdx)
     9f5:	00 02 	addb	%al, (%rdx)
     9f7:	00 bf 1a 01 00 00 	addb	%bh, 282(%rdi)
     9fd:	00 00 	addb	%al, (%rax)
     9ff:	00 74 00 00 	addb	%dh, (%rax,%rax)
     a03:	00 00 	addb	%al, (%rax)
     a05:	00 00 	addb	%al, (%rax)
     a07:	00 41 04 	addb	%al, 4(%rcx)
     a0a:	00 00 	addb	%al, (%rax)
     a0c:	10 00 	adcb	%al, (%rax)
     a0e:	02 00 	addb	(%rax), %al
     a10:	70 34 	jo	52 <video.c+0xa46>
     a12:	01 00 	addl	%eax, (%rax)
     a14:	00 00 	addb	%al, (%rax)
     a16:	00 00 	addb	%al, (%rax)
     a18:	00 00 	addb	%al, (%rax)
     a1a:	00 00 	addb	%al, (%rax)
     a1c:	00 00 	addb	%al, (%rax)
     a1e:	00 00 	addb	%al, (%rax)
     a20:	46 04 00 	addb	$0, %al
     a23:	00 10 	addb	%dl, (%rax)
     a25:	00 02 	addb	%al, (%rdx)
     a27:	00 a0 3b 01 00 00 	addb	%ah, 315(%rax)
     a2d:	00 00 	addb	%al, (%rax)
     a2f:	00 00 	addb	%al, (%rax)
     a31:	00 00 	addb	%al, (%rax)
     a33:	00 00 	addb	%al, (%rax)
     a35:	00 00 	addb	%al, (%rax)
     a37:	00 4b 04 	addb	%cl, 4(%rbx)
     a3a:	00 00 	addb	%al, (%rax)
     a3c:	12 00 	adcb	(%rax), %al
     a3e:	02 00 	addb	(%rax), %al
     a40:	9b 	wait
     a41:	0e  <unknown>
     a42:	01 00 	addl	%eax, (%rax)
     a44:	00 00 	addb	%al, (%rax)
     a46:	00 00 	addb	%al, (%rax)
     a48:	3c 00 	cmpb	$0, %al
     a4a:	00 00 	addb	%al, (%rax)
     a4c:	00 00 	addb	%al, (%rax)
     a4e:	00 00 	addb	%al, (%rax)
     a50:	5a 	popq	%rdx
     a51:	04 00 	addb	$0, %al
     a53:	00 12 	addb	%dl, (%rdx)
     a55:	00 02 	addb	%al, (%rdx)
     a57:	00 b8 22 01 00 00 	addb	%bh, 290(%rax)
     a5d:	00 00 	addb	%al, (%rax)
     a5f:	00 ba 04 00 00 00 	addb	%bh, 4(%rdx)
     a65:	00 00 	addb	%al, (%rax)
     a67:	00 62 04 	addb	%ah, 4(%rdx)
     a6a:	00 00 	addb	%al, (%rax)
     a6c:	12 00 	adcb	(%rax), %al
     a6e:	02 00 	addb	(%rax), %al
     a70:	e4 0b 	inb	$11, %al
     a72:	01 00 	addl	%eax, (%rax)
     a74:	00 00 	addb	%al, (%rax)
     a76:	00 00 	addb	%al, (%rax)
     a78:	b8 00 00 00 00 	movl	$0, %eax
     a7d:	00 00 	addb	%al, (%rax)
     a7f:	00 6c 04 00 	addb	%ch, (%rsp,%rax)
     a83:	00 10 	addb	%dl, (%rax)
     a85:	00 02 	addb	%al, (%rdx)
     a87:	00 20 	addb	%ah, (%rax)
     a89:	39 01 	cmpl	%eax, (%rcx)
     a8b:	00 00 	addb	%al, (%rax)
     a8d:	00 00 	addb	%al, (%rax)
     a8f:	00 00 	addb	%al, (%rax)
     a91:	00 00 	addb	%al, (%rax)
     a93:	00 00 	addb	%al, (%rax)
     a95:	00 00 	addb	%al, (%rax)
     a97:	00 72 04 	addb	%dh, 4(%rdx)
     a9a:	00 00 	addb	%al, (%rax)
     a9c:	12 00 	adcb	(%rax), %al
     a9e:	02 00 	addb	(%rax), %al
     aa0:	d6  <unknown>
     aa1:	02 01 	addb	(%rcx), %al
     aa3:	00 00 	addb	%al, (%rax)
     aa5:	00 00 	addb	%al, (%rax)
     aa7:	00 56 00 	addb	%dl, (%rsi)
     aaa:	00 00 	addb	%al, (%rax)
     aac:	00 00 	addb	%al, (%rax)
     aae:	00 00 	addb	%al, (%rax)
     ab0:	79 04 	jns	4 <video.c+0xab6>
     ab2:	00 00 	addb	%al, (%rax)
     ab4:	12 00 	adcb	(%rax), %al
     ab6:	02 00 	addb	(%rax), %al
     ab8:	a4 	movsb	(%rsi), %es:(%rdi)
     ab9:	27  <unknown>
     aba:	01 00 	addl	%eax, (%rax)
     abc:	00 00 	addb	%al, (%rax)
     abe:	00 00 	addb	%al, (%rax)
     ac0:	0a 00 	orb	(%rax), %al
     ac2:	00 00 	addb	%al, (%rax)
     ac4:	00 00 	addb	%al, (%rax)
     ac6:	00 00 	addb	%al, (%rax)
     ac8:	86 04 00 	xchgb	%al, (%rax,%rax)
     acb:	00 12 	addb	%dl, (%rdx)
     acd:	00 02 	addb	%al, (%rdx)
     acf:	00 ba 05 01 00 00 	addb	%bh, 261(%rdx)
     ad5:	00 00 	addb	%al, (%rax)
     ad7:	00 7e 00 	addb	%bh, (%rsi)
     ada:	00 00 	addb	%al, (%rax)
     adc:	00 00 	addb	%al, (%rax)
     ade:	00 00 	addb	%al, (%rax)
     ae0:	8e 04 00 	movw	(%rax,%rax), %es
     ae3:	00 12 	addb	%dl, (%rdx)
     ae5:	00 02 	addb	%al, (%rdx)
     ae7:	00 17 	addb	%dl, (%rdi)
     ae9:	01 01 	addl	%eax, (%rcx)
     aeb:	00 00 	addb	%al, (%rax)
     aed:	00 00 	addb	%al, (%rax)
     aef:	00 17 	addb	%dl, (%rdi)
     af1:	00 00 	addb	%al, (%rax)
     af3:	00 00 	addb	%al, (%rax)
     af5:	00 00 	addb	%al, (%rax)
     af7:	00 92 04 00 00 12 	addb	%dl, 301989892(%rdx)
     afd:	00 02 	addb	%al, (%rdx)
     aff:	00 7a 2c 	addb	%bh, 44(%rdx)
     b02:	01 00 	addl	%eax, (%rax)
     b04:	00 00 	addb	%al, (%rax)
     b06:	00 00 	addb	%al, (%rax)
     b08:	ec 	inb	%dx, %al
     b09:	00 00 	addb	%al, (%rax)
     b0b:	00 00 	addb	%al, (%rax)
     b0d:	00 00 	addb	%al, (%rax)
     b0f:	00 9b 04 00 00 12 	addb	%bl, 301989892(%rbx)
     b15:	00 02 	addb	%al, (%rdx)
     b17:	00 45 29 	addb	%al, 41(%rbp)
     b1a:	01 00 	addl	%eax, (%rax)
     b1c:	00 00 	addb	%al, (%rax)
     b1e:	00 00 	addb	%al, (%rax)
     b20:	4d 01 00 	addq	%r8, (%r8)
     b23:	00 00 	addb	%al, (%rax)
     b25:	00 00 	addb	%al, (%rax)
     b27:	00 a4 04 00 00 10 00 	addb	%ah, 1048576(%rsp,%rax)
     b2e:	01 00 	addl	%eax, (%rax)
     b30:	00 00 	addb	%al, (%rax)
     b32:	01 00 	addl	%eax, (%rax)
     b34:	00 00 	addb	%al, (%rax)
     b36:	00 00 	addb	%al, (%rax)
     b38:	00 00 	addb	%al, (%rax)
     b3a:	00 00 	addb	%al, (%rax)
     b3c:	00 00 	addb	%al, (%rax)
     b3e:	00 00 	addb	%al, (%rax)
     b40:	ab 	stosl	%eax, %es:(%rdi)
     b41:	04 00 	addb	$0, %al
     b43:	00 10 	addb	%dl, (%rax)
     b45:	00 02 	addb	%al, (%rdx)
     b47:	00 60 35 	addb	%ah, 53(%rax)
     b4a:	01 00 	addl	%eax, (%rax)
     b4c:	00 00 	addb	%al, (%rax)
     b4e:	00 00 	addb	%al, (%rax)
     b50:	00 00 	addb	%al, (%rax)
     b52:	00 00 	addb	%al, (%rax)
     b54:	00 00 	addb	%al, (%rax)
     b56:	00 00 	addb	%al, (%rax)
     b58:	b0 04 	movb	$4, %al
     b5a:	00 00 	addb	%al, (%rax)
     b5c:	12 00 	adcb	(%rax), %al
     b5e:	02 00 	addb	(%rax), %al
     b60:	90 	nop
     b61:	27  <unknown>
     b62:	01 00 	addl	%eax, (%rax)
     b64:	00 00 	addb	%al, (%rax)
     b66:	00 00 	addb	%al, (%rax)
     b68:	0a 00 	orb	(%rax), %al
     b6a:	00 00 	addb	%al, (%rax)
     b6c:	00 00 	addb	%al, (%rax)
     b6e:	00 00 	addb	%al, (%rax)
     b70:	bd 04 00 00 12 	movl	$301989892, %ebp
     b75:	00 02 	addb	%al, (%rdx)
     b77:	00 90 20 01 00 00 	addb	%dl, 288(%rax)
     b7d:	00 00 	addb	%al, (%rax)
     b7f:	00 0e 	addb	%cl, (%rsi)
     b81:	00 00 	addb	%al, (%rax)
     b83:	00 00 	addb	%al, (%rax)
     b85:	00 00 	addb	%al, (%rax)
     b87:	00 c5 	addb	%al, %ch
     b89:	04 00 	addb	$0, %al
     b8b:	00 12 	addb	%dl, (%rdx)
     b8d:	00 02 	addb	%al, (%rdx)
     b8f:	00 08 	addb	%cl, (%rax)
     b91:	28 01 	subb	%al, (%rcx)
     b93:	00 00 	addb	%al, (%rax)
     b95:	00 00 	addb	%al, (%rax)
     b97:	00 0a 	addb	%cl, (%rdx)
     b99:	00 00 	addb	%al, (%rax)
     b9b:	00 00 	addb	%al, (%rax)
     b9d:	00 00 	addb	%al, (%rax)
     b9f:	00 d3 	addb	%dl, %bl
     ba1:	04 00 	addb	$0, %al
     ba3:	00 12 	addb	%dl, (%rdx)
     ba5:	00 02 	addb	%al, (%rdx)
     ba7:	00 c2 	addb	%al, %dl
     ba9:	27  <unknown>
     baa:	01 00 	addl	%eax, (%rax)
     bac:	00 00 	addb	%al, (%rax)
     bae:	00 00 	addb	%al, (%rax)
     bb0:	0a 00 	orb	(%rax), %al
     bb2:	00 00 	addb	%al, (%rax)
     bb4:	00 00 	addb	%al, (%rax)
     bb6:	00 00 	addb	%al, (%rax)
     bb8:	e0 04 	loopne	4
     bba:	00 00 	addb	%al, (%rax)
     bbc:	10 00 	adcb	%al, (%rax)
     bbe:	02 00 	addb	(%rax), %al
     bc0:	50 	pushq	%rax
     bc1:	36 01 00 	addl	%eax, %ss:(%rax)
     bc4:	00 00 	addb	%al, (%rax)
     bc6:	00 00 	addb	%al, (%rax)
     bc8:	00 00 	addb	%al, (%rax)
     bca:	00 00 	addb	%al, (%rax)
     bcc:	00 00 	addb	%al, (%rax)
     bce:	00 00 	addb	%al, (%rax)
     bd0:	e5 04 	inl	$4, %eax
     bd2:	00 00 	addb	%al, (%rax)
     bd4:	12 00 	adcb	(%rax), %al
     bd6:	02 00 	addb	(%rax), %al
     bd8:	12 28 	adcb	(%rax), %ch
     bda:	01 00 	addl	%eax, (%rax)
     bdc:	00 00 	addb	%al, (%rax)
     bde:	00 00 	addb	%al, (%rax)
     be0:	0a 00 	orb	(%rax), %al
     be2:	00 00 	addb	%al, (%rax)
     be4:	00 00 	addb	%al, (%rax)
     be6:	00 00 	addb	%al, (%rax)
     be8:	f3 04 00 	rep		addb	$0, %al
     beb:	00 10 	addb	%dl, (%rax)
     bed:	00 02 	addb	%al, (%rdx)
     bef:	00 30 	addb	%dh, (%rax)
     bf1:	3d 01 00 00 00 	cmpl	$1, %eax
     bf6:	00 00 	addb	%al, (%rax)
     bf8:	00 00 	addb	%al, (%rax)
     bfa:	00 00 	addb	%al, (%rax)
     bfc:	00 00 	addb	%al, (%rax)
     bfe:	00 00 	addb	%al, (%rax)
     c00:	f8 	clc
     c01:	04 00 	addb	$0, %al
     c03:	00 12 	addb	%dl, (%rdx)
     c05:	00 02 	addb	%al, (%rdx)
     c07:	00 f3 	addb	%dh, %bl
     c09:	06  <unknown>
     c0a:	01 00 	addl	%eax, (%rax)
     c0c:	00 00 	addb	%al, (%rax)
     c0e:	00 00 	addb	%al, (%rax)
     c10:	88 00 	movb	%al, (%rax)
     c12:	00 00 	addb	%al, (%rax)
     c14:	00 00 	addb	%al, (%rax)
     c16:	00 00 	addb	%al, (%rax)
     c18:	00 05 00 00 12 00 	addb	%al, 1179648(%rip)
     c1e:	02 00 	addb	(%rax), %al
     c20:	7b 10 	jnp	16 <video.c+0xc32>
     c22:	01 00 	addl	%eax, (%rax)
     c24:	00 00 	addb	%al, (%rax)
     c26:	00 00 	addb	%al, (%rax)
     c28:	10 01 	adcb	%al, (%rcx)
     c2a:	00 00 	addb	%al, (%rax)
     c2c:	00 00 	addb	%al, (%rax)
     c2e:	00 00 	addb	%al, (%rax)
     c30:	0c 05 	orb	$5, %al
     c32:	00 00 	addb	%al, (%rax)
     c34:	12 00 	adcb	(%rax), %al
     c36:	02 00 	addb	(%rax), %al
     c38:	73 20 	jae	32 <video.c+0xc5a>
     c3a:	01 00 	addl	%eax, (%rax)
     c3c:	00 00 	addb	%al, (%rax)
     c3e:	00 00 	addb	%al, (%rax)
     c40:	1d 00 00 00 00 	sbbl	$0, %eax
     c45:	00 00 	addb	%al, (%rax)
     c47:	00 11 	addb	%dl, (%rcx)
     c49:	05 00 00 10 00 	addl	$1048576, %eax
     c4e:	02 00 	addb	(%rax), %al
     c50:	c0 39 01 	sarb	$1, (%rcx)
     c53:	00 00 	addb	%al, (%rax)
     c55:	00 00 	addb	%al, (%rax)
     c57:	00 00 	addb	%al, (%rax)
     c59:	00 00 	addb	%al, (%rax)
     c5b:	00 00 	addb	%al, (%rax)
     c5d:	00 00 	addb	%al, (%rax)
     c5f:	00 17 	addb	%dl, (%rdi)
     c61:	05 00 00 10 00 	addl	$1048576, %eax
     c66:	02 00 	addb	(%rax), %al
     c68:	00 3b 	addb	%bh, (%rbx)
     c6a:	01 00 	addl	%eax, (%rax)
     c6c:	00 00 	addb	%al, (%rax)
     c6e:	00 00 	addb	%al, (%rax)
     c70:	00 00 	addb	%al, (%rax)
     c72:	00 00 	addb	%al, (%rax)
     c74:	00 00 	addb	%al, (%rax)
     c76:	00 00 	addb	%al, (%rax)
     c78:	1c 05 	sbbb	$5, %al
     c7a:	00 00 	addb	%al, (%rax)
     c7c:	12 00 	adcb	(%rax), %al
     c7e:	02 00 	addb	(%rax), %al
     c80:	70 02 	jo	2 <video.c+0xc84>
     c82:	01 00 	addl	%eax, (%rax)
     c84:	00 00 	addb	%al, (%rax)
     c86:	00 00 	addb	%al, (%rax)
     c88:	1e  <unknown>
     c89:	00 00 	addb	%al, (%rax)
     c8b:	00 00 	addb	%al, (%rax)
     c8d:	00 00 	addb	%al, (%rax)
     c8f:	00 28 	addb	%ch, (%rax)
     c91:	05 00 00 12 00 	addl	$1179648, %eax
     c96:	02 00 	addb	(%rax), %al
     c98:	ae 	scasb	%es:(%rdi), %al
     c99:	27  <unknown>
     c9a:	01 00 	addl	%eax, (%rax)
     c9c:	00 00 	addb	%al, (%rax)
     c9e:	00 00 	addb	%al, (%rax)
     ca0:	0a 00 	orb	(%rax), %al
     ca2:	00 00 	addb	%al, (%rax)
     ca4:	00 00 	addb	%al, (%rax)
     ca6:	00 00 	addb	%al, (%rax)
     ca8:	35 05 00 00 10 	xorl	$268435461, %eax
     cad:	00 02 	addb	%al, (%rdx)
     caf:	00 90 37 01 00 00 	addb	%dl, 311(%rax)
     cb5:	00 00 	addb	%al, (%rax)
     cb7:	00 00 	addb	%al, (%rax)
     cb9:	00 00 	addb	%al, (%rax)
     cbb:	00 00 	addb	%al, (%rax)
     cbd:	00 00 	addb	%al, (%rax)
     cbf:	00 3b 	addb	%bh, (%rbx)
     cc1:	05 00 00 12 00 	addl	$1179648, %eax
     cc6:	02 00 	addb	(%rax), %al
     cc8:	33 1b 	xorl	(%rbx), %ebx
     cca:	01 00 	addl	%eax, (%rax)
     ccc:	00 00 	addb	%al, (%rax)
     cce:	00 00 	addb	%al, (%rax)
     cd0:	fb 	sti
     cd1:	02 00 	addb	(%rax), %al
     cd3:	00 00 	addb	%al, (%rax)
     cd5:	00 00 	addb	%al, (%rax)
     cd7:	00 43 05 	addb	%al, 5(%rbx)
     cda:	00 00 	addb	%al, (%rax)
     cdc:	12 00 	adcb	(%rax), %al
     cde:	02 00 	addb	(%rax), %al
     ce0:	7a 0f 	jp	15 <video.c+0xcf1>
     ce2:	01 00 	addl	%eax, (%rax)
     ce4:	00 00 	addb	%al, (%rax)
     ce6:	00 00 	addb	%al, (%rax)
     ce8:	01 01 	addl	%eax, (%rcx)
     cea:	00 00 	addb	%al, (%rax)
     cec:	00 00 	addb	%al, (%rax)
     cee:	00 00 	addb	%al, (%rax)
     cf0:	4b 05 00 00 10 00 	addq	$1048576, %rax
     cf6:	02 00 	addb	(%rax), %al
     cf8:	70 39 	jo	57 <video.c+0xd33>
     cfa:	01 00 	addl	%eax, (%rax)
     cfc:	00 00 	addb	%al, (%rax)
     cfe:	00 00 	addb	%al, (%rax)
     d00:	00 00 	addb	%al, (%rax)
     d02:	00 00 	addb	%al, (%rax)
     d04:	00 00 	addb	%al, (%rax)
     d06:	00 00 	addb	%al, (%rax)
     d08:	51 	pushq	%rcx
     d09:	05 00 00 10 00 	addl	$1048576, %eax
     d0e:	02 00 	addb	(%rax), %al
     d10:	10 35 01 00 00 00 	adcb	%dh, 1(%rip)
     d16:	00 00 	addb	%al, (%rax)
     d18:	00 00 	addb	%al, (%rax)
     d1a:	00 00 	addb	%al, (%rax)
     d1c:	00 00 	addb	%al, (%rax)
     d1e:	00 00 	addb	%al, (%rax)
     d20:	56 	pushq	%rsi
     d21:	05 00 00 12 00 	addl	$1179648, %eax
     d26:	02 00 	addb	(%rax), %al
     d28:	24 0a 	andb	$10, %al
     d2a:	01 00 	addl	%eax, (%rax)
     d2c:	00 00 	addb	%al, (%rax)
     d2e:	00 00 	addb	%al, (%rax)
     d30:	6c 	insb	%dx, %es:(%rdi)
     d31:	00 00 	addb	%al, (%rax)
     d33:	00 00 	addb	%al, (%rax)
     d35:	00 00 	addb	%al, (%rax)
     d37:	00 66 05 	addb	%ah, 5(%rsi)
     d3a:	00 00 	addb	%al, (%rax)
     d3c:	10 00 	adcb	%al, (%rax)
     d3e:	02 00 	addb	(%rax), %al
     d40:	10 3a 	adcb	%bh, (%rdx)
     d42:	01 00 	addl	%eax, (%rax)
     d44:	00 00 	addb	%al, (%rax)
     d46:	00 00 	addb	%al, (%rax)
     d48:	00 00 	addb	%al, (%rax)
     d4a:	00 00 	addb	%al, (%rax)
     d4c:	00 00 	addb	%al, (%rax)
     d4e:	00 00 	addb	%al, (%rax)
     d50:	6c 	insb	%dx, %es:(%rdi)
     d51:	05 00 00 12 00 	addl	$1179648, %eax
     d56:	02 00 	addb	(%rax), %al
     d58:	20 00 	andb	%al, (%rax)
     d5a:	01 00 	addl	%eax, (%rax)
     d5c:	00 00 	addb	%al, (%rax)
     d5e:	00 00 	addb	%al, (%rax)
     d60:	99 	cltd
     d61:	00 00 	addb	%al, (%rax)
     d63:	00 00 	addb	%al, (%rax)
     d65:	00 00 	addb	%al, (%rax)
     d67:	00 72 05 	addb	%dh, 5(%rdx)
     d6a:	00 00 	addb	%al, (%rax)
     d6c:	11 00 	adcl	%eax, (%rax)
     d6e:	02 00 	addb	(%rax), %al
     d70:	f0 	lock
     d71:	33 01 	xorl	(%rcx), %eax
     d73:	00 00 	addb	%al, (%rax)
     d75:	00 00 	addb	%al, (%rax)
     d77:	00 10 	addb	%dl, (%rax)
     d79:	00 00 	addb	%al, (%rax)
     d7b:	00 00 	addb	%al, (%rax)
     d7d:	00 00 	addb	%al, (%rax)
     d7f:	00 85 05 00 00 12 	addb	%al, 301989893(%rbp)
     d85:	00 02 	addb	%al, (%rdx)
     d87:	00 9e 20 01 00 00 	addb	%bl, 288(%rsi)
     d8d:	00 00 	addb	%al, (%rax)
     d8f:	00 12 	addb	%dl, (%rdx)
     d91:	00 00 	addb	%al, (%rax)
     d93:	00 00 	addb	%al, (%rax)
     d95:	00 00 	addb	%al, (%rax)
     d97:	00 8f 05 00 00 10 	addb	%cl, 268435461(%rdi)
     d9d:	00 02 	addb	%al, (%rdx)
     d9f:	00 b0 3a 01 00 00 	addb	%dh, 314(%rax)
     da5:	00 00 	addb	%al, (%rax)
     da7:	00 00 	addb	%al, (%rax)
     da9:	00 00 	addb	%al, (%rax)
     dab:	00 00 	addb	%al, (%rax)
     dad:	00 00 	addb	%al, (%rax)
     daf:	00 95 05 00 00 12 	addb	%dl, 301989893(%rbp)
     db5:	00 02 	addb	%al, (%rdx)
     db7:	00 92 2a 01 00 00 	addb	%dl, 298(%rdx)
     dbd:	00 00 	addb	%al, (%rax)
     dbf:	00 bf 00 00 00 00 	addb	%bh, (%rdi)
     dc5:	00 00 	addb	%al, (%rax)
     dc7:	00 9f 05 00 00 12 	addb	%bl, 301989893(%rdi)
     dcd:	00 02 	addb	%al, (%rdx)
     dcf:	00 ac 02 01 00 00 00 	addb	%ch, 1(%rdx,%rax)
     dd6:	00 00 	addb	%al, (%rax)
     dd8:	2a 00 	subb	(%rax), %al
     dda:	00 00 	addb	%al, (%rax)
     ddc:	00 00 	addb	%al, (%rax)
     dde:	00 00 	addb	%al, (%rax)
     de0:	a6 	cmpsb	%es:(%rdi), (%rsi)
     de1:	05 00 00 12 00 	addl	$1179648, %eax
     de6:	02 00 	addb	(%rax), %al
     de8:	11 02 	adcl	%eax, (%rdx)
     dea:	01 00 	addl	%eax, (%rax)
     dec:	00 00 	addb	%al, (%rax)
     dee:	00 00 	addb	%al, (%rax)
     df0:	18 00 	sbbb	%al, (%rax)
     df2:	00 00 	addb	%al, (%rax)
     df4:	00 00 	addb	%al, (%rax)
     df6:	00 00 	addb	%al, (%rax)
     df8:	aa 	stosb	%al, %es:(%rdi)
     df9:	05 00 00 10 00 	addl	$1048576, %eax
     dfe:	02 00 	addb	(%rax), %al
     e00:	b0 3f 	movb	$63, %al
     e02:	01 00 	addl	%eax, (%rax)
     e04:	00 00 	addb	%al, (%rax)
     e06:	00 00 	addb	%al, (%rax)
     e08:	00 00 	addb	%al, (%rax)
     e0a:	00 00 	addb	%al, (%rax)
     e0c:	00 00 	addb	%al, (%rax)
     e0e:	00 00 	addb	%al, (%rax)
     e10:	b0 05 	movb	$5, %al
     e12:	00 00 	addb	%al, (%rax)
     e14:	12 00 	adcb	(%rax), %al
     e16:	02 00 	addb	(%rax), %al
     e18:	66 05 01 00 	addw	$1, %ax
     e1c:	00 00 	addb	%al, (%rax)
     e1e:	00 00 	addb	%al, (%rax)
     e20:	54 	pushq	%rsp
     e21:	00 00 	addb	%al, (%rax)
     e23:	00 00 	addb	%al, (%rax)
     e25:	00 00 	addb	%al, (%rax)
     e27:	00 b7 05 00 00 10 	addb	%dh, 268435461(%rdi)
     e2d:	00 02 	addb	%al, (%rdx)
     e2f:	00 a0 36 01 00 00 	addb	%ah, 310(%rax)
     e35:	00 00 	addb	%al, (%rax)
     e37:	00 00 	addb	%al, (%rax)
     e39:	00 00 	addb	%al, (%rax)
     e3b:	00 00 	addb	%al, (%rax)
     e3d:	00 00 	addb	%al, (%rax)
     e3f:	00 bc 05 00 00 12 00 	addb	%bh, 1179648(%rbp,%rax)
     e46:	02 00 	addb	(%rax), %al
     e48:	56 	pushq	%rsi
     e49:	18 01 	sbbb	%al, (%rcx)
     e4b:	00 00 	addb	%al, (%rax)
     e4d:	00 00 	addb	%al, (%rax)
     e4f:	00 4f 01 	addb	%cl, 1(%rdi)
     e52:	00 00 	addb	%al, (%rax)
     e54:	00 00 	addb	%al, (%rax)
     e56:	00 00 	addb	%al, (%rax)
     e58:	cf 	iretl
     e59:	05 00 00 12 00 	addl	$1179648, %eax
     e5e:	02 00 	addb	(%rax), %al
     e60:	37  <unknown>
     e61:	0b 01 	orl	(%rcx), %eax
     e63:	00 00 	addb	%al, (%rax)
     e65:	00 00 	addb	%al, (%rax)
     e67:	00 51 00 	addb	%dl, (%rcx)
     e6a:	00 00 	addb	%al, (%rax)
     e6c:	00 00 	addb	%al, (%rax)
     e6e:	00 00 	addb	%al, (%rax)
     e70:	e3 05 	jrcxz	5 <video.c+0xe77>
     e72:	00 00 	addb	%al, (%rax)
     e74:	12 00 	adcb	(%rax), %al
     e76:	02 00 	addb	(%rax), %al
     e78:	b0 20 	movb	$32, %al
     e7a:	01 00 	addl	%eax, (%rax)
     e7c:	00 00 	addb	%al, (%rax)
     e7e:	00 00 	addb	%al, (%rax)
     e80:	dd 00 	fldl	(%rax)
     e82:	00 00 	addb	%al, (%rax)
     e84:	00 00 	addb	%al, (%rax)
     e86:	00 00 	addb	%al, (%rax)
     e88:	f1  <unknown>
     e89:	05 00 00 12 00 	addl	$1179648, %eax
     e8e:	02 00 	addb	(%rax), %al
     e90:	29 02 	subl	%eax, (%rdx)
     e92:	01 00 	addl	%eax, (%rax)
     e94:	00 00 	addb	%al, (%rax)
     e96:	00 00 	addb	%al, (%rax)
     e98:	47 00 00 	addb	%r8b, (%r8)
     e9b:	00 00 	addb	%al, (%rax)
     e9d:	00 00 	addb	%al, (%rax)
     e9f:	00 f7 	addb	%dh, %bh
     ea1:	05 00 00 12 00 	addl	$1179648, %eax
     ea6:	02 00 	addb	(%rax), %al
     ea8:	3a 28 	cmpb	(%rax), %ch
     eaa:	01 00 	addl	%eax, (%rax)
     eac:	00 00 	addb	%al, (%rax)
     eae:	00 00 	addb	%al, (%rax)
     eb0:	0a 00 	orb	(%rax), %al
     eb2:	00 00 	addb	%al, (%rax)
     eb4:	00 00 	addb	%al, (%rax)
     eb6:	00 00 	addb	%al, (%rax)
     eb8:	05 06 00 00 10 	addl	$268435462, %eax
     ebd:	00 02 	addb	%al, (%rdx)
     ebf:	00 40 3c 	addb	%al, 60(%rax)
     ec2:	01 00 	addl	%eax, (%rax)
     ec4:	00 00 	addb	%al, (%rax)
     ec6:	00 00 	addb	%al, (%rax)
     ec8:	00 00 	addb	%al, (%rax)
     eca:	00 00 	addb	%al, (%rax)
     ecc:	00 00 	addb	%al, (%rax)
     ece:	00 00 	addb	%al, (%rax)
     ed0:	0a 06 	orb	(%rsi), %al
     ed2:	00 00 	addb	%al, (%rax)
     ed4:	10 00 	adcb	%al, (%rax)
     ed6:	02 00 	addb	(%rax), %al
     ed8:	f0 	lock
     ed9:	3b 01 	cmpl	(%rcx), %eax
     edb:	00 00 	addb	%al, (%rax)
     edd:	00 00 	addb	%al, (%rax)
     edf:	00 00 	addb	%al, (%rax)
     ee1:	00 00 	addb	%al, (%rax)
     ee3:	00 00 	addb	%al, (%rax)
     ee5:	00 00 	addb	%al, (%rax)
     ee7:	00 0f 	addb	%cl, (%rdi)
     ee9:	06  <unknown>
     eea:	00 00 	addb	%al, (%rax)
     eec:	12 00 	adcb	(%rax), %al
     eee:	02 00 	addb	(%rax), %al
     ef0:	eb 19 	jmp	25 <video.c+0xf0b>
     ef2:	01 00 	addl	%eax, (%rax)
     ef4:	00 00 	addb	%al, (%rax)
     ef6:	00 00 	addb	%al, (%rax)
     ef8:	d4  <unknown>
     ef9:	00 00 	addb	%al, (%rax)
     efb:	00 00 	addb	%al, (%rax)
     efd:	00 00 	addb	%al, (%rax)
     eff:	00 18 	addb	%bl, (%rax)
     f01:	06  <unknown>
     f02:	00 00 	addb	%al, (%rax)
     f04:	12 00 	adcb	(%rax), %al
     f06:	02 00 	addb	(%rax), %al
     f08:	3c 0d 	cmpb	$13, %al
     f0a:	01 00 	addl	%eax, (%rax)
     f0c:	00 00 	addb	%al, (%rax)
     f0e:	00 00 	addb	%al, (%rax)
     f10:	71 00 	jno	0 <video.c+0xf12>
     f12:	00 00 	addb	%al, (%rax)
     f14:	00 00 	addb	%al, (%rax)
     f16:	00 00 	addb	%al, (%rax)
     f18:	38 06 	cmpb	%al, (%rsi)
     f1a:	00 00 	addb	%al, (%rax)
     f1c:	12 00 	adcb	(%rax), %al
     f1e:	02 00 	addb	(%rax), %al
     f20:	1c 28 	sbbb	$40, %al
     f22:	01 00 	addl	%eax, (%rax)
     f24:	00 00 	addb	%al, (%rax)
     f26:	00 00 	addb	%al, (%rax)
     f28:	0a 00 	orb	(%rax), %al
     f2a:	00 00 	addb	%al, (%rax)
     f2c:	00 00 	addb	%al, (%rax)
     f2e:	00 00 	addb	%al, (%rax)
     f30:	46 06  <unknown>
     f32:	00 00 	addb	%al, (%rax)
     f34:	12 00 	adcb	(%rax), %al
     f36:	02 00 	addb	(%rax), %al
     f38:	e0 27 	loopne	39
     f3a:	01 00 	addl	%eax, (%rax)
     f3c:	00 00 	addb	%al, (%rax)
     f3e:	00 00 	addb	%al, (%rax)
     f40:	0a 00 	orb	(%rax), %al
     f42:	00 00 	addb	%al, (%rax)
     f44:	00 00 	addb	%al, (%rax)
     f46:	00 00 	addb	%al, (%rax)
Disassembly of section .strtab:
.strtab:
       0:	00 53 72 	addb	%dl, 114(%rbx)
       3:	63  <unknown>
       4:	2f  <unknown>
       5:	4b 65 	gs
       7:	72 6e 	jb	110 <video.c+0x77>
       9:	65 6c 	insb	%dx, %es:(%rdi)
       b:	2f  <unknown>
       c:	6b 6d 61 69 	imull	$105, 97(%rbp), %ebp
      10:	6e 	outsb	(%rsi), %dx
      11:	2f  <unknown>
      12:	6b 65 6e 74 	imull	$116, 110(%rbp), %esp
      16:	72 79 	jb	121 <video.c+0x91>
      18:	2e 61  <unknown>
      1a:	73 6d 	jae	109 <video.c+0x89>
      1c:	00 6b 6d 	addb	%ch, 109(%rbx)
      1f:	61  <unknown>
      20:	69 6e 2e 63 00 6d 61 	imull	$1634533475, 46(%rsi), %ebp
      27:	74 68 	je	104 <video.c+0x91>
      29:	2e 63  <unknown>
      2b:	00 73 74 	addb	%dh, 116(%rbx)
      2e:	72 69 	jb	105 <video.c+0x99>
      30:	6e 	outsb	(%rsi), %dx
      31:	67 2e 63  <unknown>
      34:	00 6d 65 	addb	%ch, 101(%rbp)
      37:	6d 	insl	%dx, %es:(%rdi)
      38:	6f 	outsl	(%rsi), %dx
      39:	72 79 	jb	121 <video.c+0xb4>
      3b:	2e 63  <unknown>
      3d:	00 62 69 	addb	%ah, 105(%rdx)
      40:	74 6d 	je	109 <video.c+0xaf>
      42:	61  <unknown>
      43:	70 2e 	jo	46 <video.c+0x73>
      45:	63  <unknown>
      46:	00 70 6d 	addb	%dh, 109(%rax)
      49:	6d 	insl	%dx, %es:(%rdi)
      4a:	2e 63  <unknown>
      4c:	00 53 72 	addb	%dl, 114(%rbx)
      4f:	63  <unknown>
      50:	2f  <unknown>
      51:	4b 65 	gs
      53:	72 6e 	jb	110 <video.c+0xc3>
      55:	65 6c 	insb	%dx, %es:(%rdi)
      57:	2f  <unknown>
      58:	47 44  <unknown>
      5a:	54 	pushq	%rsp
      5b:	2f  <unknown>
      5c:	67 64 74 61 	je	97 <video.c+0xc1>
      60:	73 6d 	jae	109 <video.c+0xcf>
      62:	2e 61  <unknown>
      64:	73 6d 	jae	109 <video.c+0xd3>
      66:	00 67 64 	addb	%ah, 100(%rdi)
      69:	74 2e 	je	46 <video.c+0x99>
      6b:	63  <unknown>
      6c:	00 70 61 	addb	%dh, 97(%rax)
      6f:	67 69 6e 67 2e 63 00 68 	imull	$1744855854, 103(%esi), %ebp
      77:	65 61  <unknown>
      79:	70 2e 	jo	46 <video.c+0xa9>
      7b:	63  <unknown>
      7c:	00 69 6f 	addb	%ch, 111(%rcx)
      7f:	2e 63  <unknown>
      81:	00 69 64 	addb	%ch, 100(%rcx)
      84:	74 2e 	je	46 <video.c+0xb4>
      86:	63  <unknown>
      87:	00 69 73 	addb	%ch, 115(%rcx)
      8a:	72 2e 	jb	46 <video.c+0xba>
      8c:	63  <unknown>
      8d:	00 76 69 	addb	%dh, 105(%rsi)
      90:	64 65 6f 	outsl	%gs:(%rsi), %dx
      93:	2e 63  <unknown>
      95:	00 73 74 	addb	%dh, 116(%rbx)
      98:	72 63 	jb	99 <video.c+0xfd>
      9a:	70 79 	jo	121 <video.c+0x115>
      9c:	00 69 73 	addb	%ch, 115(%rcx)
      9f:	72 34 	jb	52 <video.c+0xd5>
      a1:	5f 	popq	%rdi
      a2:	68 61 6e 64 6c 	pushq	$1818521185
      a7:	65 72 00 	jb	0 <video.c+0xaa>
      aa:	69 6e 62 00 73 71 72 	imull	$1920037632, 98(%rsi), %ebp
      b1:	74 00 	je	0 <video.c+0xb3>
      b3:	69 64 74 45 6e 74 72 69 	imull	$1769108590, 69(%rsp,%rsi,2), %esp
      bb:	65 73 00 	jae	0 <video.c+0xbe>
      be:	69 73 72 31 5f 68 61 	imull	$1634230065, 114(%rbx), %esi
      c5:	6e 	outsb	(%rsi), %dx
      c6:	64 6c 	insb	%dx, %es:(%rdi)
      c8:	65 72 00 	jb	0 <video.c+0xcb>
      cb:	62  <unknown>
      cc:	69 74 6d 61 70 46 69 72 	imull	$1919501936, 97(%rbp,%rbp,2), %esi
      d4:	73 74 	jae	116 <video.c+0x14a>
      d6:	5a 	popq	%rdx
      d7:	65 72 69 	jb	105 <video.c+0x143>
      da:	42 69 74 00 69 73 72 31 30 	imull	$808546931, 105(%rax,%r8), %esi
      e3:	5f 	popq	%rdi
      e4:	68 61 6e 64 6c 	pushq	$1818521185
      e9:	65 72 00 	jb	0 <video.c+0xec>
      ec:	6b 65 72 6e 	imull	$110, 114(%rbp), %esp
      f0:	65 6c 	insb	%dx, %es:(%rdi)
      f2:	49 6e 	outsb	(%rsi), %dx
      f4:	66 6f 	outsw	(%rsi), %dx
      f6:	00 69 73 	addb	%ch, 115(%rcx)
      f9:	72 34 	jb	52 <video.c+0x12f>
      fb:	00 6d 65 	addb	%ch, 101(%rbp)
      fe:	6d 	insl	%dx, %es:(%rdi)
      ff:	6d 	insl	%dx, %es:(%rdi)
     100:	6f 	outsl	(%rsi), %dx
     101:	76 65 	jbe	101 <video.c+0x168>
     103:	00 67 64 	addb	%ah, 100(%rdi)
     106:	74 65 	je	101 <video.c+0x16d>
     108:	6e 	outsb	(%rsi), %dx
     109:	74 72 	je	114 <video.c+0x17d>
     10b:	69 65 73 00 69 73 72 	imull	$1920166144, 115(%rbp), %esp
     112:	31 33 	xorl	%esi, (%rbx)
     114:	00 69 73 	addb	%ch, 115(%rcx)
     117:	72 31 	jb	49 <video.c+0x14a>
     119:	33 5f 68 	xorl	104(%rdi), %ebx
     11c:	61  <unknown>
     11d:	6e 	outsb	(%rsi), %dx
     11e:	64 6c 	insb	%dx, %es:(%rdi)
     120:	65 72 00 	jb	0 <video.c+0x123>
     123:	67 65 74 43 	je	67 <video.c+0x16a>
     127:	75 72 	jne	114 <video.c+0x19b>
     129:	72 65 	jb	101 <video.c+0x190>
     12b:	6e 	outsb	(%rsi), %dx
     12c:	74 50 	je	80 <video.c+0x17e>
     12e:	4d 4c  <unknown>
     130:	34 00 	xorb	$0, %al
     132:	69 72 71 31 32 00 69 	imull	$1761620529, 113(%rdx), %esi
     139:	73 72 	jae	114 <video.c+0x1ad>
     13b:	32 30 	xorb	(%rax), %dh
     13d:	5f 	popq	%rdi
     13e:	68 61 6e 64 6c 	pushq	$1818521185
     143:	65 72 00 	jb	0 <video.c+0x146>
     146:	63  <unknown>
     147:	65 69 6c 00 70 75 74 70 69 	imull	$1768977525, %gs:112(%rax,%rax), %ebp
     150:	78 65 	js	101 <video.c+0x1b7>
     152:	6c 	insb	%dx, %es:(%rdi)
     153:	00 66 6c 	addb	%ah, 108(%rsi)
     156:	6f 	outsl	(%rsi), %dx
     157:	6f 	outsl	(%rsi), %dx
     158:	72 00 	jb	0 <video.c+0x15a>
     15a:	62  <unknown>
     15b:	69 74 6d 61 70 47 65 74 	imull	$1952794480, 97(%rbp,%rbp,2), %esi
     163:	00 69 72 	addb	%ch, 114(%rcx)
     166:	71 31 	jno	49 <video.c+0x199>
     168:	30 00 	xorb	%al, (%rax)
     16a:	69 72 71 31 34 00 69 	imull	$1761621041, 113(%rdx), %esi
     171:	73 72 	jae	114 <video.c+0x1e5>
     173:	39 00 	cmpl	%eax, (%rax)
     175:	69 72 71 38 00 6d 65 	imull	$1701642296, 113(%rdx), %esi
     17c:	6d 	insl	%dx, %es:(%rdi)
     17d:	63  <unknown>
     17e:	70 79 	jo	121 <video.c+0x1f9>
     180:	00 6b 66 	addb	%ch, 102(%rbx)
     183:	72 65 	jb	101 <video.c+0x1ea>
     185:	65 00 69 6e 	addb	%ch, %gs:110(%rcx)
     189:	69 74 5f 70 69 63 00 63 	imull	$1660969833, 112(%rdi,%rbx,2), %esi
     191:	75 72 	jne	114 <video.c+0x205>
     193:	72 65 	jb	101 <video.c+0x1fa>
     195:	6e 	outsb	(%rsi), %dx
     196:	74 49 	je	73 <video.c+0x1e1>
     198:	44 54 	pushq	%rsp
     19a:	00 52 65 	addb	%dl, 101(%rdx)
     19d:	71 75 	jno	117 <video.c+0x214>
     19f:	65 73 74 	jae	116 <video.c+0x216>
     1a2:	50 	pushq	%rax
     1a3:	68 79 73 69 63 	pushq	$1667855225
     1a8:	61  <unknown>
     1a9:	6c 	insb	%dx, %es:(%rdi)
     1aa:	50 	pushq	%rax
     1ab:	61  <unknown>
     1ac:	67 65 00 5f 62 	addb	%bl, %gs:98(%edi)
     1b1:	73 73 	jae	115 <video.c+0x226>
     1b3:	5f 	popq	%rdi
     1b4:	73 74 	jae	116 <video.c+0x22a>
     1b6:	61  <unknown>
     1b7:	72 74 	jb	116 <video.c+0x22d>
     1b9:	00 66 69 	addb	%ah, 105(%rsi)
     1bc:	6c 	insb	%dx, %es:(%rdi)
     1bd:	6c 	insb	%dx, %es:(%rdi)
     1be:	54 	pushq	%rsp
     1bf:	72 69 	jb	105 <video.c+0x22a>
     1c1:	61  <unknown>
     1c2:	6e 	outsb	(%rsi), %dx
     1c3:	67 6c 	insb	%dx, %es:(%edi)
     1c5:	65 00 69 72 	addb	%ch, %gs:114(%rcx)
     1c9:	71 31 	jno	49 <video.c+0x1fc>
     1cb:	31 00 	xorl	%eax, (%rax)
     1cd:	6c 	insb	%dx, %es:(%rdi)
     1ce:	6f 	outsl	(%rsi), %dx
     1cf:	61  <unknown>
     1d0:	64 43 75 72 	jne	114 <video.c+0x246>
     1d4:	72 65 	jb	101 <video.c+0x23b>
     1d6:	6e 	outsb	(%rsi), %dx
     1d7:	74 50 	je	80 <video.c+0x229>
     1d9:	4d 4c  <unknown>
     1db:	34 00 	xorb	$0, %al
     1dd:	6c 	insb	%dx, %es:(%rdi)
     1de:	6f 	outsl	(%rsi), %dx
     1df:	61  <unknown>
     1e0:	64 47 44  <unknown>
     1e3:	54 	pushq	%rsp
     1e4:	00 2e 	addb	%ch, (%rsi)
     1e6:	74 6f 	je	111 <video.c+0x257>
     1e8:	70 5f 	jo	95 <video.c+0x249>
     1ea:	6f 	outsl	(%rsi), %dx
     1eb:	66 5f 	popw	%di
     1ed:	6b 65 72 6e 	imull	$110, 114(%rbp), %esp
     1f1:	65 6c 	insb	%dx, %es:(%rdi)
     1f3:	00 75 6e 	addb	%dh, 110(%rbp)
     1f6:	72 65 	jb	101 <video.c+0x25d>
     1f8:	73 65 	jae	101 <video.c+0x25f>
     1fa:	72 76 	jb	118 <video.c+0x272>
     1fc:	65 50 	pushq	%rax
     1fe:	61  <unknown>
     1ff:	67 65 73 00 	jae	0 <video.c+0x203>
     203:	69 73 72 38 00 69 72 	imull	$1919483960, 114(%rbx), %esi
     20a:	71 35 	jno	53 <video.c+0x241>
     20c:	00 73 74 	addb	%dh, 116(%rbx)
     20f:	72 6e 	jb	110 <video.c+0x27f>
     211:	63  <unknown>
     212:	61  <unknown>
     213:	73 65 	jae	101 <video.c+0x27a>
     215:	63  <unknown>
     216:	6d 	insl	%dx, %es:(%rdi)
     217:	70 00 	jo	0 <video.c+0x219>
     219:	69 73 72 31 34 5f 68 	imull	$1751069745, 114(%rbx), %esi
     220:	61  <unknown>
     221:	6e 	outsb	(%rsi), %dx
     222:	64 6c 	insb	%dx, %es:(%rdi)
     224:	65 72 00 	jb	0 <video.c+0x227>
     227:	69 73 72 32 30 00 69 	imull	$1761620018, 114(%rbx), %esi
     22e:	73 72 	jae	114 <video.c+0x2a2>
     230:	31 39 	xorl	%edi, (%rcx)
     232:	5f 	popq	%rdi
     233:	68 61 6e 64 6c 	pushq	$1818521185
     238:	65 72 00 	jb	0 <video.c+0x23b>
     23b:	69 73 72 31 34 00 5f 	imull	$1593848881, 114(%rbx), %esi
     242:	62  <unknown>
     243:	73 73 	jae	115 <video.c+0x2b8>
     245:	5f 	popq	%rdi
     246:	65 6e 	outsb	%gs:(%rsi), %dx
     248:	64 00 69 6e 	addb	%ch, %fs:110(%rcx)
     24c:	77 00 	ja	0 <video.c+0x24e>
     24e:	69 73 72 35 00 69 73 	imull	$1936261173, 114(%rbx), %esi
     255:	72 37 	jb	55 <video.c+0x28e>
     257:	5f 	popq	%rdi
     258:	68 61 6e 64 6c 	pushq	$1818521185
     25d:	65 72 00 	jb	0 <video.c+0x260>
     260:	73 74 	jae	116 <video.c+0x2d6>
     262:	72 72 	jb	114 <video.c+0x2d6>
     264:	63  <unknown>
     265:	68 72 00 69 73 	pushq	$1936261234
     26a:	50 	pushq	%rax
     26b:	68 79 73 69 63 	pushq	$1667855225
     270:	61  <unknown>
     271:	6c 	insb	%dx, %es:(%rdi)
     272:	50 	pushq	%rax
     273:	61  <unknown>
     274:	67 65 46 72 61 	jb	97 <video.c+0x2da>
     279:	6d 	insl	%dx, %es:(%rdi)
     27a:	65 41 6c 	insb	%dx, %es:(%rdi)
     27d:	6c 	insb	%dx, %es:(%rdi)
     27e:	6f 	outsl	(%rsi), %dx
     27f:	63  <unknown>
     280:	61  <unknown>
     281:	74 69 	je	105 <video.c+0x2ec>
     283:	6f 	outsl	(%rsi), %dx
     284:	6e 	outsb	(%rsi), %dx
     285:	49 6e 	outsb	(%rsi), %dx
     287:	69 74 69 61 6c 69 7a 65 	imull	$1702521196, 97(%rcx,%rbp,2), %esi
     28f:	64 00 63 75 	addb	%ah, %fs:117(%rbx)
     293:	72 72 	jb	114 <video.c+0x307>
     295:	65 6e 	outsb	%gs:(%rsi), %dx
     297:	74 48 	je	72 <video.c+0x2e1>
     299:	65 61  <unknown>
     29b:	70 00 	jo	0 <video.c+0x29d>
     29d:	69 73 72 31 32 5f 68 	imull	$1751069233, 114(%rbx), %esi
     2a4:	61  <unknown>
     2a5:	6e 	outsb	(%rsi), %dx
     2a6:	64 6c 	insb	%dx, %es:(%rdi)
     2a8:	65 72 00 	jb	0 <video.c+0x2ab>
     2ab:	73 74 	jae	116 <video.c+0x321>
     2ad:	72 63 	jb	99 <video.c+0x312>
     2af:	61  <unknown>
     2b0:	74 00 	je	0 <video.c+0x2b2>
     2b2:	69 72 71 36 00 69 72 	imull	$1919483958, 113(%rdx), %esi
     2b9:	71 31 	jno	49 <video.c+0x2ec>
     2bb:	00 67 65 	addb	%ah, 101(%rdi)
     2be:	74 55 	je	85 <video.c+0x315>
     2c0:	73 61 	jae	97 <video.c+0x323>
     2c2:	62  <unknown>
     2c3:	6c 	insb	%dx, %es:(%rdi)
     2c4:	65 53 	pushq	%rbx
     2c6:	79 73 	jns	115 <video.c+0x33b>
     2c8:	74 65 	je	101 <video.c+0x32f>
     2ca:	6d 	insl	%dx, %es:(%rdi)
     2cb:	4d 65 	gs
     2cd:	6d 	insl	%dx, %es:(%rdi)
     2ce:	6f 	outsl	(%rsi), %dx
     2cf:	72 79 	jb	121 <video.c+0x34a>
     2d1:	00 64 72 61 	addb	%ah, 97(%rdx,%rsi,2)
     2d5:	77 54 	ja	84 <video.c+0x32b>
     2d7:	72 69 	jb	105 <video.c+0x342>
     2d9:	61  <unknown>
     2da:	6e 	outsb	(%rsi), %dx
     2db:	67 6c 	insb	%dx, %es:(%edi)
     2dd:	65 00 69 73 	addb	%ch, %gs:115(%rcx)
     2e1:	72 39 	jb	57 <video.c+0x31c>
     2e3:	5f 	popq	%rdi
     2e4:	68 61 6e 64 6c 	pushq	$1818521185
     2e9:	65 72 00 	jb	0 <video.c+0x2ec>
     2ec:	73 65 	jae	101 <video.c+0x353>
     2ee:	74 41 	je	65 <video.c+0x331>
     2f0:	73 43 	jae	67 <video.c+0x335>
     2f2:	75 72 	jne	114 <video.c+0x366>
     2f4:	72 65 	jb	101 <video.c+0x35b>
     2f6:	6e 	outsb	(%rsi), %dx
     2f7:	74 50 	je	80 <video.c+0x349>
     2f9:	4d 4c  <unknown>
     2fb:	34 00 	xorb	$0, %al
     2fd:	6d 	insl	%dx, %es:(%rdi)
     2fe:	65 6d 	insl	%dx, %es:(%rdi)
     300:	6f 	outsl	(%rsi), %dx
     301:	72 79 	jb	121 <video.c+0x37c>
     303:	4d 61  <unknown>
     305:	70 46 	jo	70 <video.c+0x34d>
     307:	69 72 73 74 45 6e 74 	imull	$1953383796, 115(%rdx), %esi
     30e:	72 79 	jb	121 <video.c+0x389>
     310:	00 69 6e 	addb	%ch, 110(%rcx)
     313:	69 74 50 61 67 69 6e 67 	imull	$1735289191, 97(%rax,%rdx,2), %esi
     31b:	00 73 74 	addb	%dh, 116(%rbx)
     31e:	72 73 	jb	115 <video.c+0x393>
     320:	74 72 	je	114 <video.c+0x394>
     322:	00 69 73 	addb	%ch, 115(%rcx)
     325:	72 31 	jb	49 <video.c+0x358>
     327:	00 69 72 	addb	%ch, 114(%rcx)
     32a:	71 39 	jno	57 <video.c+0x365>
     32c:	00 73 74 	addb	%dh, 116(%rbx)
     32f:	72 6e 	jb	110 <video.c+0x39f>
     331:	63  <unknown>
     332:	6d 	insl	%dx, %es:(%rdi)
     333:	70 00 	jo	0 <video.c+0x335>
     335:	69 73 72 32 5f 68 61 	imull	$1634230066, 114(%rbx), %esi
     33c:	6e 	outsb	(%rsi), %dx
     33d:	64 6c 	insb	%dx, %es:(%rdi)
     33f:	65 72 00 	jb	0 <video.c+0x342>
     342:	69 6e 69 74 4d 65 6d 	imull	$1835355508, 105(%rsi), %ebp
     349:	6f 	outsl	(%rsi), %dx
     34a:	72 79 	jb	121 <video.c+0x3c5>
     34c:	4d 61  <unknown>
     34e:	70 00 	jo	0 <video.c+0x350>
     350:	70 6f 	jo	111 <video.c+0x3c1>
     352:	77 00 	ja	0 <video.c+0x354>
     354:	73 74 	jae	116 <video.c+0x3ca>
     356:	72 6e 	jb	110 <video.c+0x3c6>
     358:	63  <unknown>
     359:	70 79 	jo	121 <video.c+0x3d4>
     35b:	00 66 69 	addb	%ah, 105(%rsi)
     35e:	6c 	insb	%dx, %es:(%rdi)
     35f:	6c 	insb	%dx, %es:(%rdi)
     360:	43 69 72 63 6c 65 00 73 	imull	$1929405804, 99(%r10), %esi
     368:	74 72 	je	114 <video.c+0x3dc>
     36a:	63  <unknown>
     36b:	61  <unknown>
     36c:	73 65 	jae	101 <video.c+0x3d3>
     36e:	63  <unknown>
     36f:	6d 	insl	%dx, %es:(%rdi)
     370:	70 00 	jo	0 <video.c+0x372>
     372:	6d 	insl	%dx, %es:(%rdi)
     373:	61  <unknown>
     374:	70 50 	jo	80 <video.c+0x3c6>
     376:	68 79 73 69 63 	pushq	$1667855225
     37b:	61  <unknown>
     37c:	6c 	insb	%dx, %es:(%rdi)
     37d:	54 	pushq	%rsp
     37e:	6f 	outsl	(%rsi), %dx
     37f:	56 	pushq	%rsi
     380:	69 72 74 75 61 6c 41 	imull	$1097621877, 116(%rdx), %esi
     387:	64 64 72 00 	jb	0 <video.c+0x38b>
     38b:	69 73 72 31 31 00 66 	imull	$1711288625, 114(%rbx), %esi
     392:	69 72 73 74 55 6e 72 	imull	$1919833460, 115(%rdx), %esi
     399:	65 73 65 	jae	101 <video.c+0x401>
     39c:	72 76 	jb	118 <video.c+0x414>
     39e:	65 64 50 	pushq	%rax
     3a1:	61  <unknown>
     3a2:	67 65 00 64 72 61 	addb	%ah, %gs:97(%edx,%esi,2)
     3a8:	77 48 	ja	72 <video.c+0x3f2>
     3aa:	4c 69 6e 65 00 6d 61 78 	imulq	$2019650816, 101(%rsi), %r13
     3b2:	00 6d 65 	addb	%ch, 101(%rbp)
     3b5:	6d 	insl	%dx, %es:(%rdi)
     3b6:	63  <unknown>
     3b7:	6d 	insl	%dx, %es:(%rdi)
     3b8:	70 00 	jo	0 <video.c+0x3ba>
     3ba:	74 6f 	je	111 <video.c+0x42b>
     3bc:	55 	pushq	%rbp
     3bd:	70 70 	jo	112 <video.c+0x42f>
     3bf:	65 72 63 	jb	99 <video.c+0x425>
     3c2:	61  <unknown>
     3c3:	73 65 	jae	101 <video.c+0x42a>
     3c5:	00 64 72 61 	addb	%ah, 97(%rdx,%rsi,2)
     3c9:	77 43 	ja	67 <video.c+0x40e>
     3cb:	69 72 63 6c 65 00 73 	imull	$1929405804, 99(%rdx), %esi
     3d2:	74 72 	je	114 <video.c+0x446>
     3d4:	6e 	outsb	(%rsi), %dx
     3d5:	63  <unknown>
     3d6:	61  <unknown>
     3d7:	74 00 	je	0 <video.c+0x3d9>
     3d9:	64 72 61 	jb	97 <video.c+0x43d>
     3dc:	77 52 	ja	82 <video.c+0x430>
     3de:	65 63  <unknown>
     3e0:	74 00 	je	0 <video.c+0x3e2>
     3e2:	6f 	outsl	(%rsi), %dx
     3e3:	75 74 	jne	116 <video.c+0x459>
     3e5:	62  <unknown>
     3e6:	00 69 73 	addb	%ch, 115(%rcx)
     3e9:	72 30 	jb	48 <video.c+0x41b>
     3eb:	5f 	popq	%rdi
     3ec:	68 61 6e 64 6c 	pushq	$1818521185
     3f1:	65 72 00 	jb	0 <video.c+0x3f4>
     3f4:	69 72 71 31 33 00 69 	imull	$1761620785, 113(%rdx), %esi
     3fb:	73 72 	jae	114 <video.c+0x46f>
     3fd:	31 32 	xorl	%esi, (%rdx)
     3ff:	00 67 65 	addb	%ah, 101(%rdi)
     402:	74 70 	je	112 <video.c+0x474>
     404:	69 78 65 6c 00 63 75 	imull	$1969422444, 101(%rax), %edi
     40b:	72 72 	jb	114 <video.c+0x47f>
     40d:	65 6e 	outsb	%gs:(%rsi), %dx
     40f:	74 50 	je	80 <video.c+0x461>
     411:	4d 4c  <unknown>
     413:	34 00 	xorb	$0, %al
     415:	6d 	insl	%dx, %es:(%rdi)
     416:	65 6d 	insl	%dx, %es:(%rdi)
     418:	73 65 	jae	101 <video.c+0x47f>
     41a:	74 00 	je	0 <video.c+0x41c>
     41c:	5f 	popq	%rdi
     41d:	5f 	popq	%rdi
     41e:	6e 	outsb	(%rsi), %dx
     41f:	61  <unknown>
     420:	74 69 	je	105 <video.c+0x48b>
     422:	76 65 	jbe	101 <video.c+0x489>
     424:	5f 	popq	%rdi
     425:	66 6c 	insb	%dx, %es:(%rdi)
     427:	75 73 	jne	115 <video.c+0x49c>
     429:	68 5f 74 6c 62 	pushq	$1651274847
     42e:	5f 	popq	%rdi
     42f:	73 69 	jae	105 <video.c+0x49a>
     431:	6e 	outsb	(%rsi), %dx
     432:	67 6c 	insb	%dx, %es:(%edi)
     434:	65 00 65 78 	addb	%ah, %gs:120(%rbp)
     438:	70 61 	jo	97 <video.c+0x49b>
     43a:	6e 	outsb	(%rsi), %dx
     43b:	64 48 65 	gs
     43e:	61  <unknown>
     43f:	70 00 	jo	0 <video.c+0x441>
     441:	69 73 72 30 00 69 72 	imull	$1919483952, 114(%rbx), %esi
     448:	71 32 	jno	50 <video.c+0x47c>
     44a:	00 69 73 	addb	%ch, 115(%rcx)
     44d:	50 	pushq	%rax
     44e:	61  <unknown>
     44f:	67 65 52 	pushq	%rdx
     452:	65 73 65 	jae	101 <video.c+0x4ba>
     455:	72 76 	jb	118 <video.c+0x4cd>
     457:	65 64 00 69 6e 	addb	%ch, %fs:110(%rcx)
     45c:	69 74 49 44 54 00 62 69 	imull	$1768030292, 68(%rcx,%rcx,2), %esi
     464:	74 6d 	je	109 <video.c+0x4d3>
     466:	61  <unknown>
     467:	70 53 	jo	83 <video.c+0x4bc>
     469:	65 74 00 	je	0 <video.c+0x46c>
     46c:	69 73 72 31 36 00 73 	imull	$1929393713, 114(%rbx), %esi
     473:	74 72 	je	114 <video.c+0x4e7>
     475:	63  <unknown>
     476:	6d 	insl	%dx, %es:(%rdi)
     477:	70 00 	jo	0 <video.c+0x479>
     479:	69 73 72 35 5f 68 61 	imull	$1634230069, 114(%rbx), %esi
     480:	6e 	outsb	(%rsi), %dx
     481:	64 6c 	insb	%dx, %es:(%rdi)
     483:	65 72 00 	jb	0 <video.c+0x486>
     486:	73 74 	jae	116 <video.c+0x4fc>
     488:	72 6e 	jb	110 <video.c+0x4f8>
     48a:	63  <unknown>
     48b:	68 72 00 6d 69 	pushq	$1768751218
     490:	6e 	outsb	(%rsi), %dx
     491:	00 66 69 	addb	%ah, 105(%rsi)
     494:	6c 	insb	%dx, %es:(%rdi)
     495:	6c 	insb	%dx, %es:(%rdi)
     496:	52 	pushq	%rdx
     497:	65 63  <unknown>
     499:	74 00 	je	0 <video.c+0x49b>
     49b:	64 72 61 	jb	97 <video.c+0x4ff>
     49e:	77 4c 	ja	76 <video.c+0x4ec>
     4a0:	69 6e 65 00 6b 65 6e 	imull	$1852140288, 101(%rsi), %ebp
     4a7:	74 72 	je	114 <video.c+0x51b>
     4a9:	79 00 	jns	0 <video.c+0x4ab>
     4ab:	69 73 72 33 00 69 73 	imull	$1936261171, 114(%rbx), %esi
     4b2:	72 33 	jb	51 <video.c+0x4e7>
     4b4:	5f 	popq	%rdi
     4b5:	68 61 6e 64 6c 	pushq	$1818521185
     4ba:	65 72 00 	jb	0 <video.c+0x4bd>
     4bd:	69 6f 5f 77 61 69 74 	imull	$1953063287, 95(%rdi), %ebp
     4c4:	00 69 73 	addb	%ch, 115(%rcx)
     4c7:	72 31 	jb	49 <video.c+0x4fa>
     4c9:	36 5f 	popq	%rdi
     4cb:	68 61 6e 64 6c 	pushq	$1818521185
     4d0:	65 72 00 	jb	0 <video.c+0x4d3>
     4d3:	69 73 72 38 5f 68 61 	imull	$1634230072, 114(%rbx), %esi
     4da:	6e 	outsb	(%rsi), %dx
     4db:	64 6c 	insb	%dx, %es:(%rdi)
     4dd:	65 72 00 	jb	0 <video.c+0x4e0>
     4e0:	69 73 72 36 00 69 73 	imull	$1936261174, 114(%rbx), %esi
     4e7:	72 31 	jb	49 <video.c+0x51a>
     4e9:	37  <unknown>
     4ea:	5f 	popq	%rdi
     4eb:	68 61 6e 64 6c 	pushq	$1818521185
     4f0:	65 72 00 	jb	0 <video.c+0x4f3>
     4f3:	69 72 71 37 00 73 74 	imull	$1953693751, 113(%rdx), %esi
     4fa:	72 6e 	jb	110 <video.c+0x56a>
     4fc:	73 74 	jae	116 <video.c+0x572>
     4fe:	72 00 	jb	0 <video.c+0x500>
     500:	67 64 74 53 	je	83 <video.c+0x557>
     504:	65 74 45 	je	69 <video.c+0x54c>
     507:	6e 	outsb	(%rsi), %dx
     508:	74 72 	je	114 <video.c+0x57c>
     50a:	79 00 	jns	0 <video.c+0x50c>
     50c:	6f 	outsl	(%rsi), %dx
     50d:	75 74 	jne	116 <video.c+0x583>
     50f:	77 00 	ja	0 <video.c+0x511>
     511:	69 73 72 31 38 00 69 	imull	$1761622065, 114(%rbx), %esi
     518:	72 71 	jb	113 <video.c+0x58b>
     51a:	30 00 	xorb	%al, (%rax)
     51c:	74 6f 	je	111 <video.c+0x58d>
     51e:	4c 6f 	outsl	(%rsi), %dx
     520:	77 65 	ja	101 <video.c+0x587>
     522:	72 63 	jb	99 <video.c+0x587>
     524:	6f 	outsl	(%rsi), %dx
     525:	73 65 	jae	101 <video.c+0x58c>
     527:	00 69 73 	addb	%ch, 115(%rcx)
     52a:	72 36 	jb	54 <video.c+0x562>
     52c:	5f 	popq	%rdi
     52d:	68 61 6e 64 6c 	pushq	$1818521185
     532:	65 72 00 	jb	0 <video.c+0x535>
     535:	69 73 72 31 30 00 6b 	imull	$1795174449, 114(%rbx), %esi
     53c:	6d 	insl	%dx, %es:(%rdi)
     53d:	61  <unknown>
     53e:	6c 	insb	%dx, %es:(%rdi)
     53f:	6c 	insb	%dx, %es:(%rdi)
     540:	6f 	outsl	(%rsi), %dx
     541:	63  <unknown>
     542:	00 69 6e 	addb	%ch, 110(%rcx)
     545:	69 74 47 44 54 00 69 73 	imull	$1936261204, 68(%rdi,%rax,2), %esi
     54d:	72 31 	jb	49 <video.c+0x580>
     54f:	37  <unknown>
     550:	00 69 73 	addb	%ch, 115(%rcx)
     553:	72 32 	jb	50 <video.c+0x587>
     555:	00 67 65 	addb	%ah, 101(%rdi)
     558:	74 53 	je	83 <video.c+0x5ad>
     55a:	79 73 	jns	115 <video.c+0x5cf>
     55c:	74 65 	je	101 <video.c+0x5c3>
     55e:	6d 	insl	%dx, %es:(%rdi)
     55f:	4d 65 	gs
     561:	6d 	insl	%dx, %es:(%rdi)
     562:	6f 	outsl	(%rsi), %dx
     563:	72 79 	jb	121 <video.c+0x5de>
     565:	00 69 73 	addb	%ch, 115(%rcx)
     568:	72 31 	jb	49 <video.c+0x59b>
     56a:	39 00 	cmpl	%eax, (%rax)
     56c:	6b 6d 61 69 	imull	$105, 97(%rbp), %ebp
     570:	6e 	outsb	(%rsi), %dx
     571:	00 70 68 	addb	%dh, 104(%rax)
     574:	79 73 	jns	115 <video.c+0x5e9>
     576:	69 63 61 6c 50 61 67 	imull	$1734430828, 97(%rbx), %esp
     57d:	65 42 69 74 6d 61 70 00 69 64 	imull	$1684602992, %gs:97(%rbp,%r13,2), %esi
     587:	74 5f 	je	95 <video.c+0x5e8>
     589:	66 6c 	insb	%dx, %es:(%rdi)
     58b:	75 73 	jne	115 <video.c+0x600>
     58d:	68 00 69 73 72 	pushq	$1920166144
     592:	33 30 	xorl	(%rax), %esi
     594:	00 64 72 61 	addb	%ah, 97(%rdx,%rsi,2)
     598:	77 56 	ja	86 <video.c+0x5f0>
     59a:	4c 69 6e 65 00 73 74 72 	imulq	$1920234240, 101(%rsi), %r13
     5a2:	6c 	insb	%dx, %es:(%rdi)
     5a3:	65 6e 	outsb	%gs:(%rsi), %dx
     5a5:	00 61 62 	addb	%ah, 98(%rcx)
     5a8:	73 00 	jae	0 <video.c+0x5aa>
     5aa:	69 72 71 31 35 00 73 	imull	$1929393457, 113(%rdx), %esi
     5b1:	74 72 	je	114 <video.c+0x625>
     5b3:	63  <unknown>
     5b4:	68 72 00 69 73 	pushq	$1936261234
     5b9:	72 37 	jb	55 <video.c+0x5f2>
     5bb:	00 67 65 	addb	%ah, 101(%rdi)
     5be:	74 50 	je	80 <video.c+0x610>
     5c0:	68 79 73 69 63 	pushq	$1667855225
     5c5:	61  <unknown>
     5c6:	6c 	insb	%dx, %es:(%rdi)
     5c7:	41 64 	fs
     5c9:	64 72 65 	jb	101 <video.c+0x631>
     5cc:	73 73 	jae	115 <video.c+0x641>
     5ce:	00 69 73 	addb	%ch, 115(%rcx)
     5d1:	4d 65 	gs
     5d3:	6d 	insl	%dx, %es:(%rdi)
     5d4:	6f 	outsl	(%rsi), %dx
     5d5:	72 79 	jb	121 <video.c+0x650>
     5d7:	45 6e 	outsb	(%rsi), %dx
     5d9:	74 72 	je	114 <video.c+0x64d>
     5db:	79 55 	jns	85 <video.c+0x632>
     5dd:	73 61 	jae	97 <video.c+0x640>
     5df:	62  <unknown>
     5e0:	6c 	insb	%dx, %es:(%rdi)
     5e1:	65 00 63 72 	addb	%ah, %gs:114(%rbx)
     5e5:	65 61  <unknown>
     5e7:	74 65 	je	101 <video.c+0x64e>
     5e9:	49 64 	fs
     5eb:	74 47 	je	71 <video.c+0x634>
     5ed:	61  <unknown>
     5ee:	74 65 	je	101 <video.c+0x655>
     5f0:	00 68 79 	addb	%ch, 121(%rax)
     5f3:	70 6f 	jo	111 <video.c+0x664>
     5f5:	74 00 	je	0 <video.c+0x5f7>
     5f7:	69 73 72 33 30 5f 68 	imull	$1751068723, 114(%rbx), %esi
     5fe:	61  <unknown>
     5ff:	6e 	outsb	(%rsi), %dx
     600:	64 6c 	insb	%dx, %es:(%rdi)
     602:	65 72 00 	jb	0 <video.c+0x605>
     605:	69 72 71 34 00 69 72 	imull	$1919483956, 113(%rdx), %esi
     60c:	71 33 	jno	51 <video.c+0x641>
     60e:	00 69 6e 	addb	%ch, 110(%rcx)
     611:	69 74 48 65 61 70 00 69 	imull	$1761636449, 101(%rax,%rcx,2), %esi
     619:	6e 	outsb	(%rsi), %dx
     61a:	69 74 50 68 79 73 69 63 	imull	$1667855225, 104(%rax,%rdx,2), %esi
     622:	61  <unknown>
     623:	6c 	insb	%dx, %es:(%rdi)
     624:	50 	pushq	%rax
     625:	61  <unknown>
     626:	67 65 46 72 61 	jb	97 <video.c+0x68c>
     62b:	6d 	insl	%dx, %es:(%rdi)
     62c:	65 41 6c 	insb	%dx, %es:(%rdi)
     62f:	6c 	insb	%dx, %es:(%rdi)
     630:	6f 	outsl	(%rsi), %dx
     631:	63  <unknown>
     632:	61  <unknown>
     633:	74 69 	je	105 <video.c+0x69e>
     635:	6f 	outsl	(%rsi), %dx
     636:	6e 	outsb	(%rsi), %dx
     637:	00 69 73 	addb	%ch, 115(%rcx)
     63a:	72 31 	jb	49 <video.c+0x66d>
     63c:	38 5f 68 	cmpb	%bl, 104(%rdi)
     63f:	61  <unknown>
     640:	6e 	outsb	(%rsi), %dx
     641:	64 6c 	insb	%dx, %es:(%rdi)
     643:	65 72 00 	jb	0 <video.c+0x646>
     646:	69 73 72 31 31 5f 68 	imull	$1751068977, 114(%rbx), %esi
     64d:	61  <unknown>
     64e:	6e 	outsb	(%rsi), %dx
     64f:	64 6c 	insb	%dx, %es:(%rdi)
     651:	65 72 00 	jb	0 <video.c+0x654>
Disassembly of section .shstrtab:
.shstrtab:
       0:	00 2e 	addb	%ch, (%rsi)
       2:	73 79 	jae	121 <.shstrtab+0x7d>
       4:	6d 	insl	%dx, %es:(%rdi)
       5:	74 61 	je	97 <.shstrtab+0x68>
       7:	62 00 2e 73  <unknown>
       b:	74 72 	je	114 <.shstrtab+0x7f>
       d:	74 61 	je	97 <.shstrtab+0x70>
       f:	62 00 2e 73  <unknown>
      13:	68 73 74 72 74 	pushq	$1953657971
      18:	61  <unknown>
      19:	62 00 2e 74  <unknown>
      1d:	6f 	outsl	(%rsi), %dx
      1e:	70 5f 	jo	95 <.shstrtab+0x7f>
      20:	6f 	outsl	(%rsi), %dx
      21:	66 5f 	popw	%di
      23:	6b 65 72 6e 	imull	$110, 114(%rbp), %esp
      27:	65 6c 	insb	%dx, %es:(%rdi)
      29:	00 2e 	addb	%ch, (%rsi)
      2b:	6b 65 72 6e 	imull	$110, 114(%rbp), %esp
      2f:	65 6c 	insb	%dx, %es:(%rdi)
      31:	00 2e 	addb	%ch, (%rsi)
      33:	64 65 62  <unknown>
      36:	75 67 	jne	103 <.shstrtab+0x9f>
      38:	5f 	popq	%rdi
      39:	69 6e 66 6f 00 2e 64 	imull	$1680736367, 102(%rsi), %ebp
      40:	65 62  <unknown>
      42:	75 67 	jne	103 <.shstrtab+0xab>
      44:	5f 	popq	%rdi
      45:	61  <unknown>
      46:	62  <unknown>
      47:	62 72 65 76 00  <unknown>
      4c:	2e 64 65 62  <unknown>
      50:	75 67 	jne	103 <.shstrtab+0xb9>
      52:	5f 	popq	%rdi
      53:	61  <unknown>
      54:	72 61 	jb	97 <.shstrtab+0xb7>
      56:	6e 	outsb	(%rsi), %dx
      57:	67 65 73 00 	jae	0 <.shstrtab+0x5b>
      5b:	2e 64 65 62  <unknown>
      5f:	75 67 	jne	103 <.shstrtab+0xc8>
      61:	5f 	popq	%rdi
      62:	6c 	insb	%dx, %es:(%rdi)
      63:	69 6e 65 00 2e 64 65 	imull	$1701064192, 101(%rsi), %ebp
      6a:	62  <unknown>
      6b:	75 67 	jne	103 <.shstrtab+0xd4>
      6d:	5f 	popq	%rdi
      6e:	73 74 	jae	116 <.shstrtab+0xe4>
      70:	72 00 	jb	0 <.shstrtab+0x72>
      72:	2e 64 65 62  <unknown>
      76:	75 67 	jne	103 <.shstrtab+0xdf>
      78:	5f 	popq	%rdi
      79:	6c 	insb	%dx, %es:(%rdi)
      7a:	69 6e 65 5f 73 74 72 	imull	$1920234335, 101(%rsi), %ebp
      81:	00  <unknown>
