
kernel.tmp:	file format ELF64-x86-64

Disassembly of section .kernel:
kmain:
   10020:	55 	pushq	%rbp
   10021:	48 89 e5 	movq	%rsp, %rbp
   10024:	48 83 ec 20 	subq	$32, %rsp
   10028:	48 89 7d e8 	movq	%rdi, -24(%rbp)
   1002c:	48 8b 45 e8 	movq	-24(%rbp), %rax
   10030:	ba 21 00 00 00 	movl	$33, %edx
   10035:	48 89 c6 	movq	%rax, %rsi
   10038:	bf c0 6d 01 00 	movl	$93632, %edi
   1003d:	e8 80 08 00 00 	callq	2176 <memcpy>
   10042:	0f b7 05 88 6d 00 00 	movzwl	28040(%rip), %eax
   10049:	0f b7 c0 	movzwl	%ax, %eax
   1004c:	48 89 c7 	movq	%rax, %rdi
   1004f:	b8 00 00 00 00 	movl	$0, %eax
   10054:	e8 c3 0b 00 00 	callq	3011 <initMemoryMap>
   10059:	0f b7 05 73 6d 00 00 	movzwl	28019(%rip), %eax
   10060:	0f b7 c0 	movzwl	%ax, %eax
   10063:	48 89 c7 	movq	%rax, %rdi
   10066:	e8 e1 0e 00 00 	callq	3809 <initPhysicalPageFrameAllocation>
   1006b:	b8 00 00 00 00 	movl	$0, %eax
   10070:	e8 15 12 00 00 	callq	4629 <initGDT>
   10075:	b8 00 00 00 00 	movl	$0, %eax
   1007a:	e8 1c 14 00 00 	callq	5148 <initPaging>
   1007f:	b8 00 00 00 00 	movl	$0, %eax
   10084:	e8 46 25 00 00 	callq	9542 <initIDT>
   10089:	b8 00 00 00 00 	movl	$0, %eax
   1008e:	e8 ee 4d 00 00 	callq	19950 <initCursor>
   10093:	b8 00 00 00 00 	movl	$0, %eax
   10098:	e8 c9 4d 00 00 	callq	19913 <initDefaultFont>
   1009d:	bf 64 00 00 00 	movl	$100, %edi
   100a2:	e8 5c 52 00 00 	callq	21084 <initPIT>
   100a7:	bf 0f 00 00 00 	movl	$15, %edi
   100ac:	e8 c2 52 00 00 	callq	21186 <initRTC>
   100b1:	b8 00 00 00 00 	movl	$0, %eax
   100b6:	e8 ac 55 00 00 	callq	21932 <initPS2>
   100bb:	88 45 ff 	movb	%al, -1(%rbp)
   100be:	0f b6 45 ff 	movzbl	-1(%rbp), %eax
   100c2:	89 c6 	movl	%eax, %esi
   100c4:	bf 60 58 01 00 	movl	$88160, %edi
   100c9:	b8 00 00 00 00 	movl	$0, %eax
   100ce:	e8 ec 4e 00 00 	callq	20204 <printk>
   100d3:	b8 00 00 00 00 	movl	$0, %eax
   100d8:	e8 5c 57 00 00 	callq	22364 <initKeyboard>
   100dd:	88 45 fe 	movb	%al, -2(%rbp)
   100e0:	0f b6 45 fe 	movzbl	-2(%rbp), %eax
   100e4:	89 c6 	movl	%eax, %esi
   100e6:	bf 60 58 01 00 	movl	$88160, %edi
   100eb:	b8 00 00 00 00 	movl	$0, %eax
   100f0:	e8 ca 4e 00 00 	callq	20170 <printk>
   100f5:	eb fe 	jmp	-2 <kmain+0xd5>

ceil:
   100f7:	55 	pushq	%rbp
   100f8:	48 89 e5 	movq	%rsp, %rbp
   100fb:	f2 0f 11 45 f8 	movsd	%xmm0, -8(%rbp)
   10100:	f2 0f 10 45 f8 	movsd	-8(%rbp), %xmm0
   10105:	f2 0f 2c c0 	cvttsd2si	%xmm0, %eax
   10109:	66 0f ef c0 	pxor	%xmm0, %xmm0
   1010d:	f2 0f 2a c0 	cvtsi2sdl	%eax, %xmm0
   10111:	66 0f 2e 45 f8 	ucomisd	-8(%rbp), %xmm0
   10116:	7a 07 	jp	7 <ceil+0x28>
   10118:	66 0f 2e 45 f8 	ucomisd	-8(%rbp), %xmm0
   1011d:	74 17 	je	23 <ceil+0x3f>
   1011f:	f2 0f 10 4d f8 	movsd	-8(%rbp), %xmm1
   10124:	f2 0f 10 05 5c 57 00 00 	movsd	22364(%rip), %xmm0
   1012c:	f2 0f 58 c1 	addsd	%xmm1, %xmm0
   10130:	f2 0f 2c c0 	cvttsd2si	%xmm0, %eax
   10134:	eb 09 	jmp	9 <ceil+0x48>
   10136:	f2 0f 10 45 f8 	movsd	-8(%rbp), %xmm0
   1013b:	f2 0f 2c c0 	cvttsd2si	%xmm0, %eax
   1013f:	5d 	popq	%rbp
   10140:	c3 	retq

floor:
   10141:	55 	pushq	%rbp
   10142:	48 89 e5 	movq	%rsp, %rbp
   10145:	f2 0f 11 45 f8 	movsd	%xmm0, -8(%rbp)
   1014a:	f2 0f 10 45 f8 	movsd	-8(%rbp), %xmm0
   1014f:	f2 0f 2c c0 	cvttsd2si	%xmm0, %eax
   10153:	5d 	popq	%rbp
   10154:	c3 	retq

min:
   10155:	55 	pushq	%rbp
   10156:	48 89 e5 	movq	%rsp, %rbp
   10159:	89 7d fc 	movl	%edi, -4(%rbp)
   1015c:	89 75 f8 	movl	%esi, -8(%rbp)
   1015f:	8b 55 f8 	movl	-8(%rbp), %edx
   10162:	8b 45 fc 	movl	-4(%rbp), %eax
   10165:	39 c2 	cmpl	%eax, %edx
   10167:	0f 4e c2 	cmovlel	%edx, %eax
   1016a:	5d 	popq	%rbp
   1016b:	c3 	retq

max:
   1016c:	55 	pushq	%rbp
   1016d:	48 89 e5 	movq	%rsp, %rbp
   10170:	89 7d fc 	movl	%edi, -4(%rbp)
   10173:	89 75 f8 	movl	%esi, -8(%rbp)
   10176:	8b 55 fc 	movl	-4(%rbp), %edx
   10179:	8b 45 f8 	movl	-8(%rbp), %eax
   1017c:	39 c2 	cmpl	%eax, %edx
   1017e:	0f 4e c2 	cmovlel	%edx, %eax
   10181:	5d 	popq	%rbp
   10182:	c3 	retq

sqrt:
   10183:	55 	pushq	%rbp
   10184:	48 89 e5 	movq	%rsp, %rbp
   10187:	f2 0f 11 45 e8 	movsd	%xmm0, -24(%rbp)
   1018c:	f2 0f 10 05 f4 56 00 00 	movsd	22260(%rip), %xmm0
   10194:	f2 0f 11 45 f8 	movsd	%xmm0, -8(%rbp)
   10199:	c7 45 f4 01 00 00 00 	movl	$1, -12(%rbp)
   101a0:	eb 31 	jmp	49 <sqrt+0x50>
   101a2:	f2 0f 10 45 f8 	movsd	-8(%rbp), %xmm0
   101a7:	f2 0f 59 c0 	mulsd	%xmm0, %xmm0
   101ab:	66 0f 28 c8 	movapd	%xmm0, %xmm1
   101af:	f2 0f 5c 4d e8 	subsd	-24(%rbp), %xmm1
   101b4:	f2 0f 10 45 f8 	movsd	-8(%rbp), %xmm0
   101b9:	f2 0f 58 c0 	addsd	%xmm0, %xmm0
   101bd:	f2 0f 5e c8 	divsd	%xmm0, %xmm1
   101c1:	f2 0f 10 45 f8 	movsd	-8(%rbp), %xmm0
   101c6:	f2 0f 5c c1 	subsd	%xmm1, %xmm0
   101ca:	f2 0f 11 45 f8 	movsd	%xmm0, -8(%rbp)
   101cf:	83 45 f4 01 	addl	$1, -12(%rbp)
   101d3:	83 7d f4 0a 	cmpl	$10, -12(%rbp)
   101d7:	7e c9 	jle	-55 <sqrt+0x1f>
   101d9:	f2 0f 10 45 f8 	movsd	-8(%rbp), %xmm0
   101de:	66 48 0f 7e c0 	movq	%xmm0, %rax
   101e3:	66 48 0f 6e c0 	movq	%rax, %xmm0
   101e8:	5d 	popq	%rbp
   101e9:	c3 	retq

pow:
   101ea:	55 	pushq	%rbp
   101eb:	48 89 e5 	movq	%rsp, %rbp
   101ee:	48 83 ec 20 	subq	$32, %rsp
   101f2:	89 7d ec 	movl	%edi, -20(%rbp)
   101f5:	89 75 e8 	movl	%esi, -24(%rbp)
   101f8:	83 7d ec 00 	cmpl	$0, -20(%rbp)
   101fc:	75 07 	jne	7 <pow+0x1b>
   101fe:	b8 00 00 00 00 	movl	$0, %eax
   10203:	eb 48 	jmp	72 <pow+0x63>
   10205:	83 7d e8 00 	cmpl	$0, -24(%rbp)
   10209:	75 07 	jne	7 <pow+0x28>
   1020b:	b8 01 00 00 00 	movl	$1, %eax
   10210:	eb 3b 	jmp	59 <pow+0x63>
   10212:	8b 45 e8 	movl	-24(%rbp), %eax
   10215:	d1 e8 	shrl	%eax
   10217:	89 c2 	movl	%eax, %edx
   10219:	8b 45 ec 	movl	-20(%rbp), %eax
   1021c:	89 d6 	movl	%edx, %esi
   1021e:	89 c7 	movl	%eax, %edi
   10220:	e8 c5 ff ff ff 	callq	-59 <pow>
   10225:	89 45 fc 	movl	%eax, -4(%rbp)
   10228:	8b 45 e8 	movl	-24(%rbp), %eax
   1022b:	83 e0 01 	andl	$1, %eax
   1022e:	85 c0 	testl	%eax, %eax
   10230:	75 0a 	jne	10 <pow+0x52>
   10232:	8b 45 fc 	movl	-4(%rbp), %eax
   10235:	0f af c0 	imull	%eax, %eax
   10238:	48 98 	cltq
   1023a:	eb 11 	jmp	17 <pow+0x63>
   1023c:	8b 45 fc 	movl	-4(%rbp), %eax
   1023f:	0f af 45 e8 	imull	-24(%rbp), %eax
   10243:	89 c2 	movl	%eax, %edx
   10245:	8b 45 fc 	movl	-4(%rbp), %eax
   10248:	0f af c2 	imull	%edx, %eax
   1024b:	89 c0 	movl	%eax, %eax
   1024d:	c9 	leave
   1024e:	c3 	retq

abs:
   1024f:	55 	pushq	%rbp
   10250:	48 89 e5 	movq	%rsp, %rbp
   10253:	48 89 7d f8 	movq	%rdi, -8(%rbp)
   10257:	48 8b 45 f8 	movq	-8(%rbp), %rax
   1025b:	48 89 c2 	movq	%rax, %rdx
   1025e:	48 f7 da 	negq	%rdx
   10261:	48 0f 49 c2 	cmovnsq	%rdx, %rax
   10265:	5d 	popq	%rbp
   10266:	c3 	retq

hypot:
   10267:	55 	pushq	%rbp
   10268:	48 89 e5 	movq	%rsp, %rbp
   1026b:	48 83 ec 10 	subq	$16, %rsp
   1026f:	f2 0f 11 45 f8 	movsd	%xmm0, -8(%rbp)
   10274:	f2 0f 11 4d f0 	movsd	%xmm1, -16(%rbp)
   10279:	f2 0f 10 45 f8 	movsd	-8(%rbp), %xmm0
   1027e:	66 0f 28 c8 	movapd	%xmm0, %xmm1
   10282:	f2 0f 59 c8 	mulsd	%xmm0, %xmm1
   10286:	f2 0f 10 45 f0 	movsd	-16(%rbp), %xmm0
   1028b:	f2 0f 59 c0 	mulsd	%xmm0, %xmm0
   1028f:	f2 0f 58 c8 	addsd	%xmm0, %xmm1
   10293:	66 48 0f 7e c8 	movq	%xmm1, %rax
   10298:	66 48 0f 6e c0 	movq	%rax, %xmm0
   1029d:	e8 e1 fe ff ff 	callq	-287 <sqrt>
   102a2:	66 48 0f 7e c0 	movq	%xmm0, %rax
   102a7:	66 48 0f 6e c0 	movq	%rax, %xmm0
   102ac:	c9 	leave
   102ad:	c3 	retq

toLowercose:
   102ae:	55 	pushq	%rbp
   102af:	48 89 e5 	movq	%rsp, %rbp
   102b2:	89 f8 	movl	%edi, %eax
   102b4:	88 45 fc 	movb	%al, -4(%rbp)
   102b7:	80 7d fc 5a 	cmpb	$90, -4(%rbp)
   102bb:	7f 09 	jg	9 <toLowercose+0x18>
   102bd:	0f b6 45 fc 	movzbl	-4(%rbp), %eax
   102c1:	83 c0 20 	addl	$32, %eax
   102c4:	eb 04 	jmp	4 <toLowercose+0x1c>
   102c6:	0f b6 45 fc 	movzbl	-4(%rbp), %eax
   102ca:	5d 	popq	%rbp
   102cb:	c3 	retq

toUppercase:
   102cc:	55 	pushq	%rbp
   102cd:	48 89 e5 	movq	%rsp, %rbp
   102d0:	89 f8 	movl	%edi, %eax
   102d2:	88 45 fc 	movb	%al, -4(%rbp)
   102d5:	80 7d fc 5a 	cmpb	$90, -4(%rbp)
   102d9:	7e 09 	jle	9 <toUppercase+0x18>
   102db:	0f b6 45 fc 	movzbl	-4(%rbp), %eax
   102df:	83 c0 20 	addl	$32, %eax
   102e2:	eb 04 	jmp	4 <toUppercase+0x1c>
   102e4:	0f b6 45 fc 	movzbl	-4(%rbp), %eax
   102e8:	5d 	popq	%rbp
   102e9:	c3 	retq

strlen:
   102ea:	55 	pushq	%rbp
   102eb:	48 89 e5 	movq	%rsp, %rbp
   102ee:	48 89 7d e8 	movq	%rdi, -24(%rbp)
   102f2:	c7 45 fc 00 00 00 00 	movl	$0, -4(%rbp)
   102f9:	eb 09 	jmp	9 <strlen+0x1a>
   102fb:	83 45 fc 01 	addl	$1, -4(%rbp)
   102ff:	48 83 45 e8 01 	addq	$1, -24(%rbp)
   10304:	48 8b 45 e8 	movq	-24(%rbp), %rax
   10308:	0f b6 00 	movzbl	(%rax), %eax
   1030b:	84 c0 	testb	%al, %al
   1030d:	75 ec 	jne	-20 <strlen+0x11>
   1030f:	8b 45 fc 	movl	-4(%rbp), %eax
   10312:	5d 	popq	%rbp
   10313:	c3 	retq

strcmp:
   10314:	55 	pushq	%rbp
   10315:	48 89 e5 	movq	%rsp, %rbp
   10318:	48 89 7d f8 	movq	%rdi, -8(%rbp)
   1031c:	48 89 75 f0 	movq	%rsi, -16(%rbp)
   10320:	eb 1c 	jmp	28 <strcmp+0x2a>
   10322:	48 8b 45 f8 	movq	-8(%rbp), %rax
   10326:	0f b6 00 	movzbl	(%rax), %eax
   10329:	84 c0 	testb	%al, %al
   1032b:	75 07 	jne	7 <strcmp+0x20>
   1032d:	b8 00 00 00 00 	movl	$0, %eax
   10332:	eb 34 	jmp	52 <strcmp+0x54>
   10334:	48 83 45 f8 01 	addq	$1, -8(%rbp)
   10339:	48 83 45 f0 01 	addq	$1, -16(%rbp)
   1033e:	48 8b 45 f8 	movq	-8(%rbp), %rax
   10342:	0f b6 10 	movzbl	(%rax), %edx
   10345:	48 8b 45 f0 	movq	-16(%rbp), %rax
   10349:	0f b6 00 	movzbl	(%rax), %eax
   1034c:	38 c2 	cmpb	%al, %dl
   1034e:	74 d2 	je	-46 <strcmp+0xe>
   10350:	48 8b 45 f8 	movq	-8(%rbp), %rax
   10354:	0f b6 00 	movzbl	(%rax), %eax
   10357:	0f b6 d0 	movzbl	%al, %edx
   1035a:	48 8b 45 f0 	movq	-16(%rbp), %rax
   1035e:	0f b6 00 	movzbl	(%rax), %eax
   10361:	0f b6 c8 	movzbl	%al, %ecx
   10364:	89 d0 	movl	%edx, %eax
   10366:	29 c8 	subl	%ecx, %eax
   10368:	5d 	popq	%rbp
   10369:	c3 	retq

strncmp:
   1036a:	55 	pushq	%rbp
   1036b:	48 89 e5 	movq	%rsp, %rbp
   1036e:	48 89 7d e8 	movq	%rdi, -24(%rbp)
   10372:	48 89 75 e0 	movq	%rsi, -32(%rbp)
   10376:	48 89 55 d8 	movq	%rdx, -40(%rbp)
   1037a:	eb 4f 	jmp	79 <strncmp+0x61>
   1037c:	48 8b 45 e8 	movq	-24(%rbp), %rax
   10380:	48 8d 50 01 	leaq	1(%rax), %rdx
   10384:	48 89 55 e8 	movq	%rdx, -24(%rbp)
   10388:	0f b6 00 	movzbl	(%rax), %eax
   1038b:	88 45 ff 	movb	%al, -1(%rbp)
   1038e:	48 8b 45 e0 	movq	-32(%rbp), %rax
   10392:	48 8d 50 01 	leaq	1(%rax), %rdx
   10396:	48 89 55 e0 	movq	%rdx, -32(%rbp)
   1039a:	0f b6 00 	movzbl	(%rax), %eax
   1039d:	88 45 fe 	movb	%al, -2(%rbp)
   103a0:	0f b6 45 ff 	movzbl	-1(%rbp), %eax
   103a4:	3a 45 fe 	cmpb	-2(%rbp), %al
   103a7:	74 17 	je	23 <strncmp+0x56>
   103a9:	0f b6 45 ff 	movzbl	-1(%rbp), %eax
   103ad:	3a 45 fe 	cmpb	-2(%rbp), %al
   103b0:	73 07 	jae	7 <strncmp+0x4f>
   103b2:	b8 ff ff ff ff 	movl	$4294967295, %eax
   103b7:	eb 21 	jmp	33 <strncmp+0x70>
   103b9:	b8 01 00 00 00 	movl	$1, %eax
   103be:	eb 1a 	jmp	26 <strncmp+0x70>
   103c0:	80 7d ff 00 	cmpb	$0, -1(%rbp)
   103c4:	74 0e 	je	14 <strncmp+0x6a>
   103c6:	48 83 6d d8 01 	subq	$1, -40(%rbp)
   103cb:	48 83 7d d8 00 	cmpq	$0, -40(%rbp)
   103d0:	75 aa 	jne	-86 <strncmp+0x12>
   103d2:	eb 01 	jmp	1 <strncmp+0x6b>
   103d4:	90 	nop
   103d5:	b8 00 00 00 00 	movl	$0, %eax
   103da:	5d 	popq	%rbp
   103db:	c3 	retq

strcasecmp:
   103dc:	55 	pushq	%rbp
   103dd:	48 89 e5 	movq	%rsp, %rbp
   103e0:	53 	pushq	%rbx
   103e1:	48 83 ec 10 	subq	$16, %rsp
   103e5:	48 89 7d f0 	movq	%rdi, -16(%rbp)
   103e9:	48 89 75 e8 	movq	%rsi, -24(%rbp)
   103ed:	eb 1c 	jmp	28 <strcasecmp+0x2f>
   103ef:	48 8b 45 f0 	movq	-16(%rbp), %rax
   103f3:	0f b6 00 	movzbl	(%rax), %eax
   103f6:	84 c0 	testb	%al, %al
   103f8:	75 07 	jne	7 <strcasecmp+0x25>
   103fa:	b8 00 00 00 00 	movl	$0, %eax
   103ff:	eb 4a 	jmp	74 <strcasecmp+0x6f>
   10401:	48 83 45 f0 01 	addq	$1, -16(%rbp)
   10406:	48 83 45 e8 01 	addq	$1, -24(%rbp)
   1040b:	48 8b 45 f0 	movq	-16(%rbp), %rax
   1040f:	0f b6 00 	movzbl	(%rax), %eax
   10412:	0f be c0 	movsbl	%al, %eax
   10415:	89 c7 	movl	%eax, %edi
   10417:	e8 92 fe ff ff 	callq	-366 <toLowercose>
   1041c:	89 c3 	movl	%eax, %ebx
   1041e:	48 8b 45 e8 	movq	-24(%rbp), %rax
   10422:	0f b6 00 	movzbl	(%rax), %eax
   10425:	0f be c0 	movsbl	%al, %eax
   10428:	89 c7 	movl	%eax, %edi
   1042a:	e8 7f fe ff ff 	callq	-385 <toLowercose>
   1042f:	38 c3 	cmpb	%al, %bl
   10431:	74 bc 	je	-68 <strcasecmp+0x13>
   10433:	48 8b 45 f0 	movq	-16(%rbp), %rax
   10437:	0f b6 00 	movzbl	(%rax), %eax
   1043a:	0f b6 d0 	movzbl	%al, %edx
   1043d:	48 8b 45 e8 	movq	-24(%rbp), %rax
   10441:	0f b6 00 	movzbl	(%rax), %eax
   10444:	0f b6 c8 	movzbl	%al, %ecx
   10447:	89 d0 	movl	%edx, %eax
   10449:	29 c8 	subl	%ecx, %eax
   1044b:	48 8b 5d f8 	movq	-8(%rbp), %rbx
   1044f:	c9 	leave
   10450:	c3 	retq

strncasecmp:
   10451:	55 	pushq	%rbp
   10452:	48 89 e5 	movq	%rsp, %rbp
   10455:	53 	pushq	%rbx
   10456:	48 83 ec 28 	subq	$40, %rsp
   1045a:	48 89 7d e0 	movq	%rdi, -32(%rbp)
   1045e:	48 89 75 d8 	movq	%rsi, -40(%rbp)
   10462:	48 89 55 d0 	movq	%rdx, -48(%rbp)
   10466:	c7 45 f4 00 00 00 00 	movl	$0, -12(%rbp)
   1046d:	eb 1c 	jmp	28 <strncasecmp+0x3a>
   1046f:	48 8b 45 e0 	movq	-32(%rbp), %rax
   10473:	0f b6 00 	movzbl	(%rax), %eax
   10476:	84 c0 	testb	%al, %al
   10478:	75 07 	jne	7 <strncasecmp+0x30>
   1047a:	b8 00 00 00 00 	movl	$0, %eax
   1047f:	eb 55 	jmp	85 <strncasecmp+0x85>
   10481:	48 83 45 e0 01 	addq	$1, -32(%rbp)
   10486:	48 83 45 d8 01 	addq	$1, -40(%rbp)
   1048b:	48 8b 45 e0 	movq	-32(%rbp), %rax
   1048f:	0f b6 00 	movzbl	(%rax), %eax
   10492:	0f be c0 	movsbl	%al, %eax
   10495:	89 c7 	movl	%eax, %edi
   10497:	e8 12 fe ff ff 	callq	-494 <toLowercose>
   1049c:	89 c3 	movl	%eax, %ebx
   1049e:	48 8b 45 d8 	movq	-40(%rbp), %rax
   104a2:	0f b6 00 	movzbl	(%rax), %eax
   104a5:	0f be c0 	movsbl	%al, %eax
   104a8:	89 c7 	movl	%eax, %edi
   104aa:	e8 ff fd ff ff 	callq	-513 <toLowercose>
   104af:	38 c3 	cmpb	%al, %bl
   104b1:	75 0b 	jne	11 <strncasecmp+0x6d>
   104b3:	8b 45 f4 	movl	-12(%rbp), %eax
   104b6:	48 98 	cltq
   104b8:	48 39 45 d0 	cmpq	%rax, -48(%rbp)
   104bc:	77 b1 	ja	-79 <strncasecmp+0x1e>
   104be:	48 8b 45 e0 	movq	-32(%rbp), %rax
   104c2:	0f b6 00 	movzbl	(%rax), %eax
   104c5:	0f b6 d0 	movzbl	%al, %edx
   104c8:	48 8b 45 d8 	movq	-40(%rbp), %rax
   104cc:	0f b6 00 	movzbl	(%rax), %eax
   104cf:	0f b6 c8 	movzbl	%al, %ecx
   104d2:	89 d0 	movl	%edx, %eax
   104d4:	29 c8 	subl	%ecx, %eax
   104d6:	48 8b 5d f8 	movq	-8(%rbp), %rbx
   104da:	c9 	leave
   104db:	c3 	retq

strcat:
   104dc:	55 	pushq	%rbp
   104dd:	48 89 e5 	movq	%rsp, %rbp
   104e0:	48 83 ec 20 	subq	$32, %rsp
   104e4:	48 89 7d e8 	movq	%rdi, -24(%rbp)
   104e8:	48 89 75 e0 	movq	%rsi, -32(%rbp)
   104ec:	48 8b 45 e8 	movq	-24(%rbp), %rax
   104f0:	48 89 c7 	movq	%rax, %rdi
   104f3:	e8 f2 fd ff ff 	callq	-526 <strlen>
   104f8:	89 c2 	movl	%eax, %edx
   104fa:	48 8b 45 e8 	movq	-24(%rbp), %rax
   104fe:	48 01 d0 	addq	%rdx, %rax
   10501:	48 89 45 f8 	movq	%rax, -8(%rbp)
   10505:	eb 1d 	jmp	29 <strcat+0x48>
   10507:	48 8b 55 e0 	movq	-32(%rbp), %rdx
   1050b:	48 8d 42 01 	leaq	1(%rdx), %rax
   1050f:	48 89 45 e0 	movq	%rax, -32(%rbp)
   10513:	48 8b 45 f8 	movq	-8(%rbp), %rax
   10517:	48 8d 48 01 	leaq	1(%rax), %rcx
   1051b:	48 89 4d f8 	movq	%rcx, -8(%rbp)
   1051f:	0f b6 12 	movzbl	(%rdx), %edx
   10522:	88 10 	movb	%dl, (%rax)
   10524:	48 8b 45 e0 	movq	-32(%rbp), %rax
   10528:	0f b6 00 	movzbl	(%rax), %eax
   1052b:	84 c0 	testb	%al, %al
   1052d:	75 d8 	jne	-40 <strcat+0x2b>
   1052f:	48 8b 45 f8 	movq	-8(%rbp), %rax
   10533:	c6 00 00 	movb	$0, (%rax)
   10536:	48 8b 45 e8 	movq	-24(%rbp), %rax
   1053a:	c9 	leave
   1053b:	c3 	retq

strncat:
   1053c:	55 	pushq	%rbp
   1053d:	48 89 e5 	movq	%rsp, %rbp
   10540:	48 83 ec 28 	subq	$40, %rsp
   10544:	48 89 7d e8 	movq	%rdi, -24(%rbp)
   10548:	48 89 75 e0 	movq	%rsi, -32(%rbp)
   1054c:	48 89 55 d8 	movq	%rdx, -40(%rbp)
   10550:	48 8b 45 e8 	movq	-24(%rbp), %rax
   10554:	48 89 c7 	movq	%rax, %rdi
   10557:	e8 8e fd ff ff 	callq	-626 <strlen>
   1055c:	89 c2 	movl	%eax, %edx
   1055e:	48 8b 45 e8 	movq	-24(%rbp), %rax
   10562:	48 01 d0 	addq	%rdx, %rax
   10565:	48 89 45 f8 	movq	%rax, -8(%rbp)
   10569:	c7 45 f4 00 00 00 00 	movl	$0, -12(%rbp)
   10570:	eb 21 	jmp	33 <strncat+0x57>
   10572:	48 8b 55 e0 	movq	-32(%rbp), %rdx
   10576:	48 8d 42 01 	leaq	1(%rdx), %rax
   1057a:	48 89 45 e0 	movq	%rax, -32(%rbp)
   1057e:	48 8b 45 f8 	movq	-8(%rbp), %rax
   10582:	48 8d 48 01 	leaq	1(%rax), %rcx
   10586:	48 89 4d f8 	movq	%rcx, -8(%rbp)
   1058a:	0f b6 12 	movzbl	(%rdx), %edx
   1058d:	88 10 	movb	%dl, (%rax)
   1058f:	83 45 f4 01 	addl	$1, -12(%rbp)
   10593:	48 8b 45 e0 	movq	-32(%rbp), %rax
   10597:	0f b6 00 	movzbl	(%rax), %eax
   1059a:	84 c0 	testb	%al, %al
   1059c:	74 0b 	je	11 <strncat+0x6d>
   1059e:	8b 45 f4 	movl	-12(%rbp), %eax
   105a1:	48 98 	cltq
   105a3:	48 39 45 d8 	cmpq	%rax, -40(%rbp)
   105a7:	77 c9 	ja	-55 <strncat+0x36>
   105a9:	48 8b 45 f8 	movq	-8(%rbp), %rax
   105ad:	c6 00 00 	movb	$0, (%rax)
   105b0:	48 8b 45 e8 	movq	-24(%rbp), %rax
   105b4:	c9 	leave
   105b5:	c3 	retq

strchr:
   105b6:	55 	pushq	%rbp
   105b7:	48 89 e5 	movq	%rsp, %rbp
   105ba:	48 83 ec 20 	subq	$32, %rsp
   105be:	48 89 7d e8 	movq	%rdi, -24(%rbp)
   105c2:	89 f0 	movl	%esi, %eax
   105c4:	88 45 e4 	movb	%al, -28(%rbp)
   105c7:	48 c7 45 f8 00 00 00 00 	movq	$0, -8(%rbp)
   105cf:	eb 25 	jmp	37 <strchr+0x40>
   105d1:	48 8b 55 e8 	movq	-24(%rbp), %rdx
   105d5:	48 8b 45 f8 	movq	-8(%rbp), %rax
   105d9:	48 01 d0 	addq	%rdx, %rax
   105dc:	0f b6 00 	movzbl	(%rax), %eax
   105df:	38 45 e4 	cmpb	%al, -28(%rbp)
   105e2:	75 0d 	jne	13 <strchr+0x3b>
   105e4:	48 8b 55 e8 	movq	-24(%rbp), %rdx
   105e8:	48 8b 45 f8 	movq	-8(%rbp), %rax
   105ec:	48 01 d0 	addq	%rdx, %rax
   105ef:	eb 1e 	jmp	30 <strchr+0x59>
   105f1:	48 83 45 f8 01 	addq	$1, -8(%rbp)
   105f6:	48 8b 45 e8 	movq	-24(%rbp), %rax
   105fa:	48 89 c7 	movq	%rax, %rdi
   105fd:	e8 e8 fc ff ff 	callq	-792 <strlen>
   10602:	89 c0 	movl	%eax, %eax
   10604:	48 39 45 f8 	cmpq	%rax, -8(%rbp)
   10608:	72 c7 	jb	-57 <strchr+0x1b>
   1060a:	b8 00 00 00 00 	movl	$0, %eax
   1060f:	c9 	leave
   10610:	c3 	retq

strnchr:
   10611:	55 	pushq	%rbp
   10612:	48 89 e5 	movq	%rsp, %rbp
   10615:	48 83 ec 28 	subq	$40, %rsp
   10619:	48 89 7d e8 	movq	%rdi, -24(%rbp)
   1061d:	89 f0 	movl	%esi, %eax
   1061f:	48 89 55 d8 	movq	%rdx, -40(%rbp)
   10623:	88 45 e4 	movb	%al, -28(%rbp)
   10626:	48 c7 45 f8 00 00 00 00 	movq	$0, -8(%rbp)
   1062e:	eb 25 	jmp	37 <strnchr+0x44>
   10630:	48 8b 55 e8 	movq	-24(%rbp), %rdx
   10634:	48 8b 45 f8 	movq	-8(%rbp), %rax
   10638:	48 01 d0 	addq	%rdx, %rax
   1063b:	0f b6 00 	movzbl	(%rax), %eax
   1063e:	38 45 e4 	cmpb	%al, -28(%rbp)
   10641:	75 0d 	jne	13 <strnchr+0x3f>
   10643:	48 8b 55 e8 	movq	-24(%rbp), %rdx
   10647:	48 8b 45 f8 	movq	-8(%rbp), %rax
   1064b:	48 01 d0 	addq	%rdx, %rax
   1064e:	eb 47 	jmp	71 <strnchr+0x86>
   10650:	48 83 45 f8 01 	addq	$1, -8(%rbp)
   10655:	48 8b 45 e8 	movq	-24(%rbp), %rax
   10659:	48 89 c7 	movq	%rax, %rdi
   1065c:	e8 89 fc ff ff 	callq	-887 <strlen>
   10661:	89 c0 	movl	%eax, %eax
   10663:	48 39 45 d8 	cmpq	%rax, -40(%rbp)
   10667:	0f 92 c0 	setb	%al
   1066a:	0f b6 c0 	movzbl	%al, %eax
   1066d:	48 39 45 f8 	cmpq	%rax, -8(%rbp)
   10671:	73 0a 	jae	10 <strnchr+0x6c>
   10673:	48 83 7d d8 00 	cmpq	$0, -40(%rbp)
   10678:	0f 95 c0 	setne	%al
   1067b:	eb 11 	jmp	17 <strnchr+0x7d>
   1067d:	48 8b 45 e8 	movq	-24(%rbp), %rax
   10681:	48 89 c7 	movq	%rax, %rdi
   10684:	e8 61 fc ff ff 	callq	-927 <strlen>
   10689:	85 c0 	testl	%eax, %eax
   1068b:	0f 95 c0 	setne	%al
   1068e:	84 c0 	testb	%al, %al
   10690:	75 9e 	jne	-98 <strnchr+0x1f>
   10692:	b8 00 00 00 00 	movl	$0, %eax
   10697:	c9 	leave
   10698:	c3 	retq

strrchr:
   10699:	55 	pushq	%rbp
   1069a:	48 89 e5 	movq	%rsp, %rbp
   1069d:	48 83 ec 20 	subq	$32, %rsp
   106a1:	48 89 7d e8 	movq	%rdi, -24(%rbp)
   106a5:	89 f0 	movl	%esi, %eax
   106a7:	88 45 e4 	movb	%al, -28(%rbp)
   106aa:	48 c7 45 f8 00 00 00 00 	movq	$0, -8(%rbp)
   106b2:	48 c7 45 f0 00 00 00 00 	movq	$0, -16(%rbp)
   106ba:	eb 27 	jmp	39 <strrchr+0x4a>
   106bc:	48 8b 55 e8 	movq	-24(%rbp), %rdx
   106c0:	48 8b 45 f0 	movq	-16(%rbp), %rax
   106c4:	48 01 d0 	addq	%rdx, %rax
   106c7:	0f b6 00 	movzbl	(%rax), %eax
   106ca:	38 45 e4 	cmpb	%al, -28(%rbp)
   106cd:	75 0f 	jne	15 <strrchr+0x45>
   106cf:	48 8b 55 e8 	movq	-24(%rbp), %rdx
   106d3:	48 8b 45 f0 	movq	-16(%rbp), %rax
   106d7:	48 01 d0 	addq	%rdx, %rax
   106da:	48 89 45 f8 	movq	%rax, -8(%rbp)
   106de:	48 83 45 f0 01 	addq	$1, -16(%rbp)
   106e3:	48 8b 45 e8 	movq	-24(%rbp), %rax
   106e7:	48 89 c7 	movq	%rax, %rdi
   106ea:	e8 fb fb ff ff 	callq	-1029 <strlen>
   106ef:	89 c0 	movl	%eax, %eax
   106f1:	48 39 45 f0 	cmpq	%rax, -16(%rbp)
   106f5:	72 c5 	jb	-59 <strrchr+0x23>
   106f7:	48 8b 45 f8 	movq	-8(%rbp), %rax
   106fb:	c9 	leave
   106fc:	c3 	retq

strstr:
   106fd:	55 	pushq	%rbp
   106fe:	48 89 e5 	movq	%rsp, %rbp
   10701:	48 83 ec 20 	subq	$32, %rsp
   10705:	48 89 7d e8 	movq	%rdi, -24(%rbp)
   10709:	48 89 75 e0 	movq	%rsi, -32(%rbp)
   1070d:	48 c7 45 f8 00 00 00 00 	movq	$0, -8(%rbp)
   10715:	eb 30 	jmp	48 <strstr+0x4a>
   10717:	48 8b 55 e8 	movq	-24(%rbp), %rdx
   1071b:	48 8b 45 f8 	movq	-8(%rbp), %rax
   1071f:	48 01 c2 	addq	%rax, %rdx
   10722:	48 8b 45 e0 	movq	-32(%rbp), %rax
   10726:	48 89 c6 	movq	%rax, %rsi
   10729:	48 89 d7 	movq	%rdx, %rdi
   1072c:	e8 e3 fb ff ff 	callq	-1053 <strcmp>
   10731:	85 c0 	testl	%eax, %eax
   10733:	75 0d 	jne	13 <strstr+0x45>
   10735:	48 8b 55 e8 	movq	-24(%rbp), %rdx
   10739:	48 8b 45 f8 	movq	-8(%rbp), %rax
   1073d:	48 01 d0 	addq	%rdx, %rax
   10740:	eb 1e 	jmp	30 <strstr+0x63>
   10742:	48 83 45 f8 01 	addq	$1, -8(%rbp)
   10747:	48 8b 45 e8 	movq	-24(%rbp), %rax
   1074b:	48 89 c7 	movq	%rax, %rdi
   1074e:	e8 97 fb ff ff 	callq	-1129 <strlen>
   10753:	89 c0 	movl	%eax, %eax
   10755:	48 39 45 f8 	cmpq	%rax, -8(%rbp)
   10759:	72 bc 	jb	-68 <strstr+0x1a>
   1075b:	b8 00 00 00 00 	movl	$0, %eax
   10760:	c9 	leave
   10761:	c3 	retq

strnstr:
   10762:	55 	pushq	%rbp
   10763:	48 89 e5 	movq	%rsp, %rbp
   10766:	48 83 ec 28 	subq	$40, %rsp
   1076a:	48 89 7d e8 	movq	%rdi, -24(%rbp)
   1076e:	48 89 75 e0 	movq	%rsi, -32(%rbp)
   10772:	48 89 55 d8 	movq	%rdx, -40(%rbp)
   10776:	48 c7 45 f8 00 00 00 00 	movq	$0, -8(%rbp)
   1077e:	eb 30 	jmp	48 <strnstr+0x4e>
   10780:	48 8b 55 e8 	movq	-24(%rbp), %rdx
   10784:	48 8b 45 f8 	movq	-8(%rbp), %rax
   10788:	48 01 c2 	addq	%rax, %rdx
   1078b:	48 8b 45 e0 	movq	-32(%rbp), %rax
   1078f:	48 89 c6 	movq	%rax, %rsi
   10792:	48 89 d7 	movq	%rdx, %rdi
   10795:	e8 7a fb ff ff 	callq	-1158 <strcmp>
   1079a:	85 c0 	testl	%eax, %eax
   1079c:	75 0d 	jne	13 <strnstr+0x49>
   1079e:	48 8b 55 e8 	movq	-24(%rbp), %rdx
   107a2:	48 8b 45 f8 	movq	-8(%rbp), %rax
   107a6:	48 01 d0 	addq	%rdx, %rax
   107a9:	eb 47 	jmp	71 <strnstr+0x90>
   107ab:	48 83 45 f8 01 	addq	$1, -8(%rbp)
   107b0:	48 8b 45 e8 	movq	-24(%rbp), %rax
   107b4:	48 89 c7 	movq	%rax, %rdi
   107b7:	e8 2e fb ff ff 	callq	-1234 <strlen>
   107bc:	89 c0 	movl	%eax, %eax
   107be:	48 39 45 d8 	cmpq	%rax, -40(%rbp)
   107c2:	0f 92 c0 	setb	%al
   107c5:	0f b6 c0 	movzbl	%al, %eax
   107c8:	48 39 45 f8 	cmpq	%rax, -8(%rbp)
   107cc:	73 0a 	jae	10 <strnstr+0x76>
   107ce:	48 83 7d d8 00 	cmpq	$0, -40(%rbp)
   107d3:	0f 95 c0 	setne	%al
   107d6:	eb 11 	jmp	17 <strnstr+0x87>
   107d8:	48 8b 45 e8 	movq	-24(%rbp), %rax
   107dc:	48 89 c7 	movq	%rax, %rdi
   107df:	e8 06 fb ff ff 	callq	-1274 <strlen>
   107e4:	85 c0 	testl	%eax, %eax
   107e6:	0f 95 c0 	setne	%al
   107e9:	84 c0 	testb	%al, %al
   107eb:	75 93 	jne	-109 <strnstr+0x1e>
   107ed:	b8 00 00 00 00 	movl	$0, %eax
   107f2:	c9 	leave
   107f3:	c3 	retq

strcpy:
   107f4:	55 	pushq	%rbp
   107f5:	48 89 e5 	movq	%rsp, %rbp
   107f8:	48 89 7d e8 	movq	%rdi, -24(%rbp)
   107fc:	48 89 75 e0 	movq	%rsi, -32(%rbp)
   10800:	48 83 7d e8 00 	cmpq	$0, -24(%rbp)
   10805:	75 07 	jne	7 <strcpy+0x1a>
   10807:	b8 00 00 00 00 	movl	$0, %eax
   1080c:	eb 37 	jmp	55 <strcpy+0x51>
   1080e:	48 8b 45 e8 	movq	-24(%rbp), %rax
   10812:	48 89 45 f8 	movq	%rax, -8(%rbp)
   10816:	eb 17 	jmp	23 <strcpy+0x3b>
   10818:	48 8b 45 e0 	movq	-32(%rbp), %rax
   1081c:	0f b6 10 	movzbl	(%rax), %edx
   1081f:	48 8b 45 e8 	movq	-24(%rbp), %rax
   10823:	88 10 	movb	%dl, (%rax)
   10825:	48 83 45 e8 01 	addq	$1, -24(%rbp)
   1082a:	48 83 45 e0 01 	addq	$1, -32(%rbp)
   1082f:	48 8b 45 e0 	movq	-32(%rbp), %rax
   10833:	0f b6 00 	movzbl	(%rax), %eax
   10836:	84 c0 	testb	%al, %al
   10838:	75 de 	jne	-34 <strcpy+0x24>
   1083a:	48 8b 45 e8 	movq	-24(%rbp), %rax
   1083e:	c6 00 00 	movb	$0, (%rax)
   10841:	48 8b 45 f8 	movq	-8(%rbp), %rax
   10845:	5d 	popq	%rbp
   10846:	c3 	retq

strncpy:
   10847:	55 	pushq	%rbp
   10848:	48 89 e5 	movq	%rsp, %rbp
   1084b:	48 89 7d e8 	movq	%rdi, -24(%rbp)
   1084f:	48 89 75 e0 	movq	%rsi, -32(%rbp)
   10853:	48 89 55 d8 	movq	%rdx, -40(%rbp)
   10857:	48 c7 45 f8 00 00 00 00 	movq	$0, -8(%rbp)
   1085f:	eb 20 	jmp	32 <strncpy+0x3a>
   10861:	48 8b 55 e0 	movq	-32(%rbp), %rdx
   10865:	48 8b 45 f8 	movq	-8(%rbp), %rax
   10869:	48 01 d0 	addq	%rdx, %rax
   1086c:	48 8b 4d e8 	movq	-24(%rbp), %rcx
   10870:	48 8b 55 f8 	movq	-8(%rbp), %rdx
   10874:	48 01 ca 	addq	%rcx, %rdx
   10877:	0f b6 00 	movzbl	(%rax), %eax
   1087a:	88 02 	movb	%al, (%rdx)
   1087c:	48 83 45 f8 01 	addq	$1, -8(%rbp)
   10881:	48 8b 45 f8 	movq	-8(%rbp), %rax
   10885:	48 3b 45 d8 	cmpq	-40(%rbp), %rax
   10889:	73 27 	jae	39 <strncpy+0x6b>
   1088b:	48 8b 55 e0 	movq	-32(%rbp), %rdx
   1088f:	48 8b 45 f8 	movq	-8(%rbp), %rax
   10893:	48 01 d0 	addq	%rdx, %rax
   10896:	0f b6 00 	movzbl	(%rax), %eax
   10899:	84 c0 	testb	%al, %al
   1089b:	75 c4 	jne	-60 <strncpy+0x1a>
   1089d:	eb 13 	jmp	19 <strncpy+0x6b>
   1089f:	48 8b 55 e8 	movq	-24(%rbp), %rdx
   108a3:	48 8b 45 f8 	movq	-8(%rbp), %rax
   108a7:	48 01 d0 	addq	%rdx, %rax
   108aa:	c6 00 00 	movb	$0, (%rax)
   108ad:	48 83 45 f8 01 	addq	$1, -8(%rbp)
   108b2:	48 8b 45 f8 	movq	-8(%rbp), %rax
   108b6:	48 3b 45 d8 	cmpq	-40(%rbp), %rax
   108ba:	72 e3 	jb	-29 <strncpy+0x58>
   108bc:	48 8b 45 e8 	movq	-24(%rbp), %rax
   108c0:	5d 	popq	%rbp
   108c1:	c3 	retq

memcpy:
   108c2:	55 	pushq	%rbp
   108c3:	48 89 e5 	movq	%rsp, %rbp
   108c6:	48 89 7d e8 	movq	%rdi, -24(%rbp)
   108ca:	48 89 75 e0 	movq	%rsi, -32(%rbp)
   108ce:	48 89 55 d8 	movq	%rdx, -40(%rbp)
   108d2:	48 8b 45 e0 	movq	-32(%rbp), %rax
   108d6:	48 89 45 f8 	movq	%rax, -8(%rbp)
   108da:	48 8b 45 e8 	movq	-24(%rbp), %rax
   108de:	48 89 45 f0 	movq	%rax, -16(%rbp)
   108e2:	eb 1d 	jmp	29 <memcpy+0x3f>
   108e4:	48 8b 55 f8 	movq	-8(%rbp), %rdx
   108e8:	48 8d 42 01 	leaq	1(%rdx), %rax
   108ec:	48 89 45 f8 	movq	%rax, -8(%rbp)
   108f0:	48 8b 45 f0 	movq	-16(%rbp), %rax
   108f4:	48 8d 48 01 	leaq	1(%rax), %rcx
   108f8:	48 89 4d f0 	movq	%rcx, -16(%rbp)
   108fc:	0f b6 12 	movzbl	(%rdx), %edx
   108ff:	88 10 	movb	%dl, (%rax)
   10901:	48 8b 45 d8 	movq	-40(%rbp), %rax
   10905:	48 8d 50 ff 	leaq	-1(%rax), %rdx
   10909:	48 89 55 d8 	movq	%rdx, -40(%rbp)
   1090d:	48 85 c0 	testq	%rax, %rax
   10910:	75 d2 	jne	-46 <memcpy+0x22>
   10912:	90 	nop
   10913:	90 	nop
   10914:	5d 	popq	%rbp
   10915:	c3 	retq

memset:
   10916:	55 	pushq	%rbp
   10917:	48 89 e5 	movq	%rsp, %rbp
   1091a:	48 89 7d e8 	movq	%rdi, -24(%rbp)
   1091e:	89 f0 	movl	%esi, %eax
   10920:	48 89 55 d8 	movq	%rdx, -40(%rbp)
   10924:	88 45 e4 	movb	%al, -28(%rbp)
   10927:	48 8b 45 e8 	movq	-24(%rbp), %rax
   1092b:	48 89 45 f8 	movq	%rax, -8(%rbp)
   1092f:	eb 12 	jmp	18 <memset+0x2d>
   10931:	48 8b 45 f8 	movq	-8(%rbp), %rax
   10935:	48 8d 50 01 	leaq	1(%rax), %rdx
   10939:	48 89 55 f8 	movq	%rdx, -8(%rbp)
   1093d:	0f b6 55 e4 	movzbl	-28(%rbp), %edx
   10941:	88 10 	movb	%dl, (%rax)
   10943:	48 8b 45 d8 	movq	-40(%rbp), %rax
   10947:	48 8d 50 ff 	leaq	-1(%rax), %rdx
   1094b:	48 89 55 d8 	movq	%rdx, -40(%rbp)
   1094f:	48 85 c0 	testq	%rax, %rax
   10952:	75 dd 	jne	-35 <memset+0x1b>
   10954:	90 	nop
   10955:	90 	nop
   10956:	5d 	popq	%rbp
   10957:	c3 	retq

memmove:
   10958:	55 	pushq	%rbp
   10959:	48 89 e5 	movq	%rsp, %rbp
   1095c:	48 89 7d d8 	movq	%rdi, -40(%rbp)
   10960:	48 89 75 d0 	movq	%rsi, -48(%rbp)
   10964:	48 89 55 c8 	movq	%rdx, -56(%rbp)
   10968:	48 8b 45 d0 	movq	-48(%rbp), %rax
   1096c:	48 89 45 f8 	movq	%rax, -8(%rbp)
   10970:	48 8b 45 d8 	movq	-40(%rbp), %rax
   10974:	48 89 45 f0 	movq	%rax, -16(%rbp)
   10978:	48 8b 45 f0 	movq	-16(%rbp), %rax
   1097c:	48 3b 45 f8 	cmpq	-8(%rbp), %rax
   10980:	73 32 	jae	50 <memmove+0x5c>
   10982:	eb 1d 	jmp	29 <memmove+0x49>
   10984:	48 8b 55 f8 	movq	-8(%rbp), %rdx
   10988:	48 8d 42 01 	leaq	1(%rdx), %rax
   1098c:	48 89 45 f8 	movq	%rax, -8(%rbp)
   10990:	48 8b 45 f0 	movq	-16(%rbp), %rax
   10994:	48 8d 48 01 	leaq	1(%rax), %rcx
   10998:	48 89 4d f0 	movq	%rcx, -16(%rbp)
   1099c:	0f b6 12 	movzbl	(%rdx), %edx
   1099f:	88 10 	movb	%dl, (%rax)
   109a1:	48 8b 45 c8 	movq	-56(%rbp), %rax
   109a5:	48 8d 50 ff 	leaq	-1(%rax), %rdx
   109a9:	48 89 55 c8 	movq	%rdx, -56(%rbp)
   109ad:	48 85 c0 	testq	%rax, %rax
   109b0:	75 d2 	jne	-46 <memmove+0x2c>
   109b2:	eb 56 	jmp	86 <memmove+0xb2>
   109b4:	48 8b 45 c8 	movq	-56(%rbp), %rax
   109b8:	48 8d 50 ff 	leaq	-1(%rax), %rdx
   109bc:	48 8b 45 f8 	movq	-8(%rbp), %rax
   109c0:	48 01 d0 	addq	%rdx, %rax
   109c3:	48 89 45 e8 	movq	%rax, -24(%rbp)
   109c7:	48 8b 45 c8 	movq	-56(%rbp), %rax
   109cb:	48 8d 50 ff 	leaq	-1(%rax), %rdx
   109cf:	48 8b 45 f0 	movq	-16(%rbp), %rax
   109d3:	48 01 d0 	addq	%rdx, %rax
   109d6:	48 89 45 e0 	movq	%rax, -32(%rbp)
   109da:	eb 1d 	jmp	29 <memmove+0xa1>
   109dc:	48 8b 55 e8 	movq	-24(%rbp), %rdx
   109e0:	48 8d 42 ff 	leaq	-1(%rdx), %rax
   109e4:	48 89 45 e8 	movq	%rax, -24(%rbp)
   109e8:	48 8b 45 e0 	movq	-32(%rbp), %rax
   109ec:	48 8d 48 ff 	leaq	-1(%rax), %rcx
   109f0:	48 89 4d e0 	movq	%rcx, -32(%rbp)
   109f4:	0f b6 12 	movzbl	(%rdx), %edx
   109f7:	88 10 	movb	%dl, (%rax)
   109f9:	48 8b 45 c8 	movq	-56(%rbp), %rax
   109fd:	48 8d 50 ff 	leaq	-1(%rax), %rdx
   10a01:	48 89 55 c8 	movq	%rdx, -56(%rbp)
   10a05:	48 85 c0 	testq	%rax, %rax
   10a08:	75 d2 	jne	-46 <memmove+0x84>
   10a0a:	90 	nop
   10a0b:	5d 	popq	%rbp
   10a0c:	c3 	retq

memcmp:
   10a0d:	55 	pushq	%rbp
   10a0e:	48 89 e5 	movq	%rsp, %rbp
   10a11:	48 89 7d e8 	movq	%rdi, -24(%rbp)
   10a15:	48 89 75 e0 	movq	%rsi, -32(%rbp)
   10a19:	48 89 55 d8 	movq	%rdx, -40(%rbp)
   10a1d:	48 8b 45 e8 	movq	-24(%rbp), %rax
   10a21:	48 89 45 f8 	movq	%rax, -8(%rbp)
   10a25:	48 8b 45 e0 	movq	-32(%rbp), %rax
   10a29:	48 89 45 f0 	movq	%rax, -16(%rbp)
   10a2d:	eb 4a 	jmp	74 <memcmp+0x6c>
   10a2f:	48 8b 45 f8 	movq	-8(%rbp), %rax
   10a33:	48 8d 50 01 	leaq	1(%rax), %rdx
   10a37:	48 89 55 f8 	movq	%rdx, -8(%rbp)
   10a3b:	0f b6 08 	movzbl	(%rax), %ecx
   10a3e:	48 8b 45 f0 	movq	-16(%rbp), %rax
   10a42:	48 8d 50 01 	leaq	1(%rax), %rdx
   10a46:	48 89 55 f0 	movq	%rdx, -16(%rbp)
   10a4a:	0f b6 00 	movzbl	(%rax), %eax
   10a4d:	38 c1 	cmpb	%al, %cl
   10a4f:	74 28 	je	40 <memcmp+0x6c>
   10a51:	48 8b 45 f8 	movq	-8(%rbp), %rax
   10a55:	48 83 e8 01 	subq	$1, %rax
   10a59:	0f b6 10 	movzbl	(%rax), %edx
   10a5c:	48 8b 45 f0 	movq	-16(%rbp), %rax
   10a60:	48 83 e8 01 	subq	$1, %rax
   10a64:	0f b6 00 	movzbl	(%rax), %eax
   10a67:	38 c2 	cmpb	%al, %dl
   10a69:	73 07 	jae	7 <memcmp+0x65>
   10a6b:	b8 ff ff ff ff 	movl	$4294967295, %eax
   10a70:	eb 1d 	jmp	29 <memcmp+0x82>
   10a72:	b8 01 00 00 00 	movl	$1, %eax
   10a77:	eb 16 	jmp	22 <memcmp+0x82>
   10a79:	48 8b 45 d8 	movq	-40(%rbp), %rax
   10a7d:	48 8d 50 ff 	leaq	-1(%rax), %rdx
   10a81:	48 89 55 d8 	movq	%rdx, -40(%rbp)
   10a85:	48 85 c0 	testq	%rax, %rax
   10a88:	75 a5 	jne	-91 <memcmp+0x22>
   10a8a:	b8 00 00 00 00 	movl	$0, %eax
   10a8f:	5d 	popq	%rbp
   10a90:	c3 	retq

swap:
   10a91:	55 	pushq	%rbp
   10a92:	48 89 e5 	movq	%rsp, %rbp
   10a95:	48 89 7d e8 	movq	%rdi, -24(%rbp)
   10a99:	48 89 75 e0 	movq	%rsi, -32(%rbp)
   10a9d:	48 8b 45 e8 	movq	-24(%rbp), %rax
   10aa1:	0f b6 00 	movzbl	(%rax), %eax
   10aa4:	88 45 ff 	movb	%al, -1(%rbp)
   10aa7:	48 8b 45 e0 	movq	-32(%rbp), %rax
   10aab:	0f b6 10 	movzbl	(%rax), %edx
   10aae:	48 8b 45 e8 	movq	-24(%rbp), %rax
   10ab2:	88 10 	movb	%dl, (%rax)
   10ab4:	48 8b 45 e0 	movq	-32(%rbp), %rax
   10ab8:	0f b6 55 ff 	movzbl	-1(%rbp), %edx
   10abc:	88 10 	movb	%dl, (%rax)
   10abe:	90 	nop
   10abf:	5d 	popq	%rbp
   10ac0:	c3 	retq

reverse:
   10ac1:	55 	pushq	%rbp
   10ac2:	48 89 e5 	movq	%rsp, %rbp
   10ac5:	48 83 ec 10 	subq	$16, %rsp
   10ac9:	48 89 7d f8 	movq	%rdi, -8(%rbp)
   10acd:	89 75 f4 	movl	%esi, -12(%rbp)
   10ad0:	89 55 f0 	movl	%edx, -16(%rbp)
   10ad3:	eb 31 	jmp	49 <reverse+0x45>
   10ad5:	8b 45 f0 	movl	-16(%rbp), %eax
   10ad8:	8d 50 ff 	leal	-1(%rax), %edx
   10adb:	89 55 f0 	movl	%edx, -16(%rbp)
   10ade:	48 63 d0 	movslq	%eax, %rdx
   10ae1:	48 8b 45 f8 	movq	-8(%rbp), %rax
   10ae5:	48 01 c2 	addq	%rax, %rdx
   10ae8:	8b 45 f4 	movl	-12(%rbp), %eax
   10aeb:	8d 48 01 	leal	1(%rax), %ecx
   10aee:	89 4d f4 	movl	%ecx, -12(%rbp)
   10af1:	48 63 c8 	movslq	%eax, %rcx
   10af4:	48 8b 45 f8 	movq	-8(%rbp), %rax
   10af8:	48 01 c8 	addq	%rcx, %rax
   10afb:	48 89 d6 	movq	%rdx, %rsi
   10afe:	48 89 c7 	movq	%rax, %rdi
   10b01:	e8 8b ff ff ff 	callq	-117 <swap>
   10b06:	8b 45 f4 	movl	-12(%rbp), %eax
   10b09:	3b 45 f0 	cmpl	-16(%rbp), %eax
   10b0c:	7c c7 	jl	-57 <reverse+0x14>
   10b0e:	48 8b 45 f8 	movq	-8(%rbp), %rax
   10b12:	c9 	leave
   10b13:	c3 	retq

itoa:
   10b14:	55 	pushq	%rbp
   10b15:	48 89 e5 	movq	%rsp, %rbp
   10b18:	48 83 ec 40 	subq	$64, %rsp
   10b1c:	48 89 7d d8 	movq	%rdi, -40(%rbp)
   10b20:	48 89 75 d0 	movq	%rsi, -48(%rbp)
   10b24:	89 55 cc 	movl	%edx, -52(%rbp)
   10b27:	83 7d cc 01 	cmpl	$1, -52(%rbp)
   10b2b:	7e 06 	jle	6 <itoa+0x1f>
   10b2d:	83 7d cc 20 	cmpl	$32, -52(%rbp)
   10b31:	7e 09 	jle	9 <itoa+0x28>
   10b33:	48 8b 45 d0 	movq	-48(%rbp), %rax
   10b37:	e9 de 00 00 00 	jmp	222 <itoa+0x106>
   10b3c:	48 8b 45 d8 	movq	-40(%rbp), %rax
   10b40:	48 89 c7 	movq	%rax, %rdi
   10b43:	b8 00 00 00 00 	movl	$0, %eax
   10b48:	e8 02 f7 ff ff 	callq	-2302 <abs>
   10b4d:	48 98 	cltq
   10b4f:	48 89 45 f8 	movq	%rax, -8(%rbp)
   10b53:	48 c7 45 f0 00 00 00 00 	movq	$0, -16(%rbp)
   10b5b:	eb 71 	jmp	113 <itoa+0xba>
   10b5d:	8b 45 cc 	movl	-52(%rbp), %eax
   10b60:	48 63 c8 	movslq	%eax, %rcx
   10b63:	48 8b 45 f8 	movq	-8(%rbp), %rax
   10b67:	ba 00 00 00 00 	movl	$0, %edx
   10b6c:	48 f7 f1 	divq	%rcx
   10b6f:	48 89 55 e8 	movq	%rdx, -24(%rbp)
   10b73:	48 83 7d e8 09 	cmpq	$9, -24(%rbp)
   10b78:	76 20 	jbe	32 <itoa+0x86>
   10b7a:	48 8b 45 e8 	movq	-24(%rbp), %rax
   10b7e:	8d 48 37 	leal	55(%rax), %ecx
   10b81:	48 8b 45 f0 	movq	-16(%rbp), %rax
   10b85:	48 8d 50 01 	leaq	1(%rax), %rdx
   10b89:	48 89 55 f0 	movq	%rdx, -16(%rbp)
   10b8d:	48 8b 55 d0 	movq	-48(%rbp), %rdx
   10b91:	48 01 d0 	addq	%rdx, %rax
   10b94:	89 ca 	movl	%ecx, %edx
   10b96:	88 10 	movb	%dl, (%rax)
   10b98:	eb 1e 	jmp	30 <itoa+0xa4>
   10b9a:	48 8b 45 e8 	movq	-24(%rbp), %rax
   10b9e:	8d 48 30 	leal	48(%rax), %ecx
   10ba1:	48 8b 45 f0 	movq	-16(%rbp), %rax
   10ba5:	48 8d 50 01 	leaq	1(%rax), %rdx
   10ba9:	48 89 55 f0 	movq	%rdx, -16(%rbp)
   10bad:	48 8b 55 d0 	movq	-48(%rbp), %rdx
   10bb1:	48 01 d0 	addq	%rdx, %rax
   10bb4:	89 ca 	movl	%ecx, %edx
   10bb6:	88 10 	movb	%dl, (%rax)
   10bb8:	8b 45 cc 	movl	-52(%rbp), %eax
   10bbb:	48 63 f0 	movslq	%eax, %rsi
   10bbe:	48 8b 45 f8 	movq	-8(%rbp), %rax
   10bc2:	ba 00 00 00 00 	movl	$0, %edx
   10bc7:	48 f7 f6 	divq	%rsi
   10bca:	48 89 45 f8 	movq	%rax, -8(%rbp)
   10bce:	48 83 7d f8 00 	cmpq	$0, -8(%rbp)
   10bd3:	75 88 	jne	-120 <itoa+0x49>
   10bd5:	48 83 7d f0 00 	cmpq	$0, -16(%rbp)
   10bda:	75 16 	jne	22 <itoa+0xde>
   10bdc:	48 8b 45 f0 	movq	-16(%rbp), %rax
   10be0:	48 8d 50 01 	leaq	1(%rax), %rdx
   10be4:	48 89 55 f0 	movq	%rdx, -16(%rbp)
   10be8:	48 8b 55 d0 	movq	-48(%rbp), %rdx
   10bec:	48 01 d0 	addq	%rdx, %rax
   10bef:	c6 00 30 	movb	$48, (%rax)
   10bf2:	48 8b 55 d0 	movq	-48(%rbp), %rdx
   10bf6:	48 8b 45 f0 	movq	-16(%rbp), %rax
   10bfa:	48 01 d0 	addq	%rdx, %rax
   10bfd:	c6 00 00 	movb	$0, (%rax)
   10c00:	48 8b 45 f0 	movq	-16(%rbp), %rax
   10c04:	83 e8 01 	subl	$1, %eax
   10c07:	89 c2 	movl	%eax, %edx
   10c09:	48 8b 45 d0 	movq	-48(%rbp), %rax
   10c0d:	be 00 00 00 00 	movl	$0, %esi
   10c12:	48 89 c7 	movq	%rax, %rdi
   10c15:	e8 a7 fe ff ff 	callq	-345 <reverse>
   10c1a:	c9 	leave
   10c1b:	c3 	retq

initMemoryMap:
   10c1c:	55 	pushq	%rbp
   10c1d:	48 89 e5 	movq	%rsp, %rbp
   10c20:	89 f8 	movl	%edi, %eax
   10c22:	66 89 45 fc 	movw	%ax, -4(%rbp)
   10c26:	0f b7 45 fc 	movzwl	-4(%rbp), %eax
   10c2a:	66 89 05 b1 61 00 00 	movw	%ax, 25009(%rip)
   10c31:	90 	nop
   10c32:	5d 	popq	%rbp
   10c33:	c3 	retq

getSystemMemory:
   10c34:	55 	pushq	%rbp
   10c35:	48 89 e5 	movq	%rsp, %rbp
   10c38:	48 c7 45 f8 00 00 00 00 	movq	$0, -8(%rbp)
   10c40:	0f b7 05 9b 61 00 00 	movzwl	24987(%rip), %eax
   10c47:	0f b7 c0 	movzwl	%ax, %eax
   10c4a:	83 e8 04 	subl	$4, %eax
   10c4d:	48 98 	cltq
   10c4f:	8b 00 	movl	(%rax), %eax
   10c51:	89 45 ec 	movl	%eax, -20(%rbp)
   10c54:	48 c7 45 f0 00 00 00 00 	movq	$0, -16(%rbp)
   10c5c:	eb 33 	jmp	51 <getSystemMemory+0x5d>
   10c5e:	0f b7 05 7d 61 00 00 	movzwl	24957(%rip), %eax
   10c65:	0f b7 c8 	movzwl	%ax, %ecx
   10c68:	48 8b 55 f0 	movq	-16(%rbp), %rdx
   10c6c:	48 89 d0 	movq	%rdx, %rax
   10c6f:	48 01 c0 	addq	%rax, %rax
   10c72:	48 01 d0 	addq	%rdx, %rax
   10c75:	48 c1 e0 03 	shlq	$3, %rax
   10c79:	48 01 c8 	addq	%rcx, %rax
   10c7c:	48 89 45 e0 	movq	%rax, -32(%rbp)
   10c80:	48 8b 45 e0 	movq	-32(%rbp), %rax
   10c84:	48 8b 40 08 	movq	8(%rax), %rax
   10c88:	48 01 45 f8 	addq	%rax, -8(%rbp)
   10c8c:	48 83 45 f0 01 	addq	$1, -16(%rbp)
   10c91:	8b 45 ec 	movl	-20(%rbp), %eax
   10c94:	48 39 45 f0 	cmpq	%rax, -16(%rbp)
   10c98:	72 c4 	jb	-60 <getSystemMemory+0x2a>
   10c9a:	48 8b 45 f8 	movq	-8(%rbp), %rax
   10c9e:	5d 	popq	%rbp
   10c9f:	c3 	retq

getUsableSystemMemory:
   10ca0:	55 	pushq	%rbp
   10ca1:	48 89 e5 	movq	%rsp, %rbp
   10ca4:	48 c7 45 f8 00 00 00 00 	movq	$0, -8(%rbp)
   10cac:	0f b7 05 2f 61 00 00 	movzwl	24879(%rip), %eax
   10cb3:	0f b7 c0 	movzwl	%ax, %eax
   10cb6:	83 e8 04 	subl	$4, %eax
   10cb9:	48 98 	cltq
   10cbb:	8b 00 	movl	(%rax), %eax
   10cbd:	89 45 ec 	movl	%eax, -20(%rbp)
   10cc0:	48 c7 45 f0 00 00 00 00 	movq	$0, -16(%rbp)
   10cc8:	eb 6e 	jmp	110 <getUsableSystemMemory+0x98>
   10cca:	0f b7 05 11 61 00 00 	movzwl	24849(%rip), %eax
   10cd1:	0f b7 c8 	movzwl	%ax, %ecx
   10cd4:	48 8b 55 f0 	movq	-16(%rbp), %rdx
   10cd8:	48 89 d0 	movq	%rdx, %rax
   10cdb:	48 01 c0 	addq	%rax, %rax
   10cde:	48 01 d0 	addq	%rdx, %rax
   10ce1:	48 c1 e0 03 	shlq	$3, %rax
   10ce5:	48 01 c8 	addq	%rcx, %rax
   10ce8:	48 89 45 e0 	movq	%rax, -32(%rbp)
   10cec:	48 8b 45 e0 	movq	-32(%rbp), %rax
   10cf0:	8b 40 10 	movl	16(%rax), %eax
   10cf3:	83 f8 02 	cmpl	$2, %eax
   10cf6:	74 3b 	je	59 <getUsableSystemMemory+0x93>
   10cf8:	48 8b 45 e0 	movq	-32(%rbp), %rax
   10cfc:	8b 40 10 	movl	16(%rax), %eax
   10cff:	83 f8 04 	cmpl	$4, %eax
   10d02:	74 2f 	je	47 <getUsableSystemMemory+0x93>
   10d04:	48 8b 45 e0 	movq	-32(%rbp), %rax
   10d08:	8b 40 10 	movl	16(%rax), %eax
   10d0b:	83 f8 05 	cmpl	$5, %eax
   10d0e:	74 23 	je	35 <getUsableSystemMemory+0x93>
   10d10:	48 8b 45 e0 	movq	-32(%rbp), %rax
   10d14:	8b 40 14 	movl	20(%rax), %eax
   10d17:	85 c0 	testl	%eax, %eax
   10d19:	74 18 	je	24 <getUsableSystemMemory+0x93>
   10d1b:	48 8b 45 e0 	movq	-32(%rbp), %rax
   10d1f:	8b 40 14 	movl	20(%rax), %eax
   10d22:	83 f8 02 	cmpl	$2, %eax
   10d25:	74 0c 	je	12 <getUsableSystemMemory+0x93>
   10d27:	48 8b 45 e0 	movq	-32(%rbp), %rax
   10d2b:	48 8b 40 08 	movq	8(%rax), %rax
   10d2f:	48 01 45 f8 	addq	%rax, -8(%rbp)
   10d33:	48 83 45 f0 01 	addq	$1, -16(%rbp)
   10d38:	8b 45 ec 	movl	-20(%rbp), %eax
   10d3b:	48 39 45 f0 	cmpq	%rax, -16(%rbp)
   10d3f:	72 89 	jb	-119 <getUsableSystemMemory+0x2a>
   10d41:	48 8b 45 f8 	movq	-8(%rbp), %rax
   10d45:	5d 	popq	%rbp
   10d46:	c3 	retq

isMemoryEntryUsable:
   10d47:	55 	pushq	%rbp
   10d48:	48 89 e5 	movq	%rsp, %rbp
   10d4b:	48 89 7d f8 	movq	%rdi, -8(%rbp)
   10d4f:	48 8b 45 f8 	movq	-8(%rbp), %rax
   10d53:	8b 40 10 	movl	16(%rax), %eax
   10d56:	83 f8 02 	cmpl	$2, %eax
   10d59:	74 36 	je	54 <isMemoryEntryUsable+0x4a>
   10d5b:	48 8b 45 f8 	movq	-8(%rbp), %rax
   10d5f:	8b 40 10 	movl	16(%rax), %eax
   10d62:	83 f8 04 	cmpl	$4, %eax
   10d65:	74 2a 	je	42 <isMemoryEntryUsable+0x4a>
   10d67:	48 8b 45 f8 	movq	-8(%rbp), %rax
   10d6b:	8b 40 10 	movl	16(%rax), %eax
   10d6e:	83 f8 05 	cmpl	$5, %eax
   10d71:	74 1e 	je	30 <isMemoryEntryUsable+0x4a>
   10d73:	48 8b 45 f8 	movq	-8(%rbp), %rax
   10d77:	8b 40 14 	movl	20(%rax), %eax
   10d7a:	85 c0 	testl	%eax, %eax
   10d7c:	74 13 	je	19 <isMemoryEntryUsable+0x4a>
   10d7e:	48 8b 45 f8 	movq	-8(%rbp), %rax
   10d82:	8b 40 14 	movl	20(%rax), %eax
   10d85:	83 f8 02 	cmpl	$2, %eax
   10d88:	74 07 	je	7 <isMemoryEntryUsable+0x4a>
   10d8a:	b8 01 00 00 00 	movl	$1, %eax
   10d8f:	eb 05 	jmp	5 <isMemoryEntryUsable+0x4f>
   10d91:	b8 00 00 00 00 	movl	$0, %eax
   10d96:	5d 	popq	%rbp
   10d97:	c3 	retq

bitmapGet:
   10d98:	55 	pushq	%rbp
   10d99:	48 89 e5 	movq	%rsp, %rbp
   10d9c:	53 	pushq	%rbx
   10d9d:	48 89 f9 	movq	%rdi, %rcx
   10da0:	48 89 f0 	movq	%rsi, %rax
   10da3:	48 89 c3 	movq	%rax, %rbx
   10da6:	48 89 4d d0 	movq	%rcx, -48(%rbp)
   10daa:	48 89 5d d8 	movq	%rbx, -40(%rbp)
   10dae:	48 89 55 c8 	movq	%rdx, -56(%rbp)
   10db2:	48 8b 45 c8 	movq	-56(%rbp), %rax
   10db6:	48 c1 e8 06 	shrq	$6, %rax
   10dba:	48 89 45 e8 	movq	%rax, -24(%rbp)
   10dbe:	48 8b 45 c8 	movq	-56(%rbp), %rax
   10dc2:	83 e0 3f 	andl	$63, %eax
   10dc5:	48 89 45 e0 	movq	%rax, -32(%rbp)
   10dc9:	48 8b 55 d8 	movq	-40(%rbp), %rdx
   10dcd:	48 8b 45 e8 	movq	-24(%rbp), %rax
   10dd1:	48 c1 e0 03 	shlq	$3, %rax
   10dd5:	48 01 d0 	addq	%rdx, %rax
   10dd8:	48 8b 00 	movq	(%rax), %rax
   10ddb:	89 c6 	movl	%eax, %esi
   10ddd:	48 8b 45 e0 	movq	-32(%rbp), %rax
   10de1:	ba 01 00 00 00 	movl	$1, %edx
   10de6:	89 c1 	movl	%eax, %ecx
   10de8:	d3 e2 	shll	%cl, %edx
   10dea:	89 d0 	movl	%edx, %eax
   10dec:	21 f0 	andl	%esi, %eax
   10dee:	48 8b 5d f8 	movq	-8(%rbp), %rbx
   10df2:	c9 	leave
   10df3:	c3 	retq

bitmapSet:
   10df4:	55 	pushq	%rbp
   10df5:	48 89 e5 	movq	%rsp, %rbp
   10df8:	48 89 f0 	movq	%rsi, %rax
   10dfb:	49 89 f8 	movq	%rdi, %r8
   10dfe:	4c 89 c6 	movq	%r8, %rsi
   10e01:	4c 89 cf 	movq	%r9, %rdi
   10e04:	48 89 c7 	movq	%rax, %rdi
   10e07:	48 89 75 e0 	movq	%rsi, -32(%rbp)
   10e0b:	48 89 7d e8 	movq	%rdi, -24(%rbp)
   10e0f:	48 89 55 d8 	movq	%rdx, -40(%rbp)
   10e13:	89 4d d4 	movl	%ecx, -44(%rbp)
   10e16:	48 8b 45 d8 	movq	-40(%rbp), %rax
   10e1a:	48 c1 e8 06 	shrq	$6, %rax
   10e1e:	48 89 45 f8 	movq	%rax, -8(%rbp)
   10e22:	48 8b 45 d8 	movq	-40(%rbp), %rax
   10e26:	83 e0 3f 	andl	$63, %eax
   10e29:	48 89 45 f0 	movq	%rax, -16(%rbp)
   10e2d:	83 7d d4 00 	cmpl	$0, -44(%rbp)
   10e31:	74 3b 	je	59 <bitmapSet+0x7a>
   10e33:	48 8b 55 e8 	movq	-24(%rbp), %rdx
   10e37:	48 8b 45 f8 	movq	-8(%rbp), %rax
   10e3b:	48 c1 e0 03 	shlq	$3, %rax
   10e3f:	48 01 d0 	addq	%rdx, %rax
   10e42:	48 8b 30 	movq	(%rax), %rsi
   10e45:	48 8b 45 f0 	movq	-16(%rbp), %rax
   10e49:	ba 01 00 00 00 	movl	$1, %edx
   10e4e:	89 c1 	movl	%eax, %ecx
   10e50:	d3 e2 	shll	%cl, %edx
   10e52:	89 d0 	movl	%edx, %eax
   10e54:	48 63 d0 	movslq	%eax, %rdx
   10e57:	48 8b 4d e8 	movq	-24(%rbp), %rcx
   10e5b:	48 8b 45 f8 	movq	-8(%rbp), %rax
   10e5f:	48 c1 e0 03 	shlq	$3, %rax
   10e63:	48 01 c8 	addq	%rcx, %rax
   10e66:	48 09 f2 	orq	%rsi, %rdx
   10e69:	48 89 10 	movq	%rdx, (%rax)
   10e6c:	eb 3b 	jmp	59 <bitmapSet+0xb5>
   10e6e:	48 8b 55 e8 	movq	-24(%rbp), %rdx
   10e72:	48 8b 45 f8 	movq	-8(%rbp), %rax
   10e76:	48 c1 e0 03 	shlq	$3, %rax
   10e7a:	48 01 d0 	addq	%rdx, %rax
   10e7d:	48 8b 30 	movq	(%rax), %rsi
   10e80:	48 8b 45 f0 	movq	-16(%rbp), %rax
   10e84:	ba 01 00 00 00 	movl	$1, %edx
   10e89:	89 c1 	movl	%eax, %ecx
   10e8b:	d3 e2 	shll	%cl, %edx
   10e8d:	89 d0 	movl	%edx, %eax
   10e8f:	f7 d0 	notl	%eax
   10e91:	48 63 d0 	movslq	%eax, %rdx
   10e94:	48 8b 4d e8 	movq	-24(%rbp), %rcx
   10e98:	48 8b 45 f8 	movq	-8(%rbp), %rax
   10e9c:	48 c1 e0 03 	shlq	$3, %rax
   10ea0:	48 01 c8 	addq	%rcx, %rax
   10ea3:	48 21 f2 	andq	%rsi, %rdx
   10ea6:	48 89 10 	movq	%rdx, (%rax)
   10ea9:	90 	nop
   10eaa:	5d 	popq	%rbp
   10eab:	c3 	retq

bitmapFirstZeriBit:
   10eac:	55 	pushq	%rbp
   10ead:	48 89 e5 	movq	%rsp, %rbp
   10eb0:	48 89 f8 	movq	%rdi, %rax
   10eb3:	48 89 f1 	movq	%rsi, %rcx
   10eb6:	48 89 ca 	movq	%rcx, %rdx
   10eb9:	48 89 45 e0 	movq	%rax, -32(%rbp)
   10ebd:	48 89 55 e8 	movq	%rdx, -24(%rbp)
   10ec1:	c7 45 fc 00 00 00 00 	movl	$0, -4(%rbp)
   10ec8:	eb 6d 	jmp	109 <bitmapFirstZeriBit+0x8b>
   10eca:	48 8b 55 e8 	movq	-24(%rbp), %rdx
   10ece:	8b 45 fc 	movl	-4(%rbp), %eax
   10ed1:	48 c1 e0 03 	shlq	$3, %rax
   10ed5:	48 01 d0 	addq	%rdx, %rax
   10ed8:	48 8b 00 	movq	(%rax), %rax
   10edb:	48 83 f8 ff 	cmpq	$-1, %rax
   10edf:	74 52 	je	82 <bitmapFirstZeriBit+0x87>
   10ee1:	c7 45 f8 00 00 00 00 	movl	$0, -8(%rbp)
   10ee8:	eb 43 	jmp	67 <bitmapFirstZeriBit+0x81>
   10eea:	8b 45 f8 	movl	-8(%rbp), %eax
   10eed:	ba 01 00 00 00 	movl	$1, %edx
   10ef2:	89 c1 	movl	%eax, %ecx
   10ef4:	d3 e2 	shll	%cl, %edx
   10ef6:	89 d0 	movl	%edx, %eax
   10ef8:	48 98 	cltq
   10efa:	48 89 45 f0 	movq	%rax, -16(%rbp)
   10efe:	48 8b 55 e8 	movq	-24(%rbp), %rdx
   10f02:	8b 45 fc 	movl	-4(%rbp), %eax
   10f05:	48 c1 e0 03 	shlq	$3, %rax
   10f09:	48 01 d0 	addq	%rdx, %rax
   10f0c:	48 8b 00 	movq	(%rax), %rax
   10f0f:	48 23 45 f0 	andq	-16(%rbp), %rax
   10f13:	48 85 c0 	testq	%rax, %rax
   10f16:	75 11 	jne	17 <bitmapFirstZeriBit+0x7d>
   10f18:	8b 45 fc 	movl	-4(%rbp), %eax
   10f1b:	c1 e0 06 	shll	$6, %eax
   10f1e:	89 c2 	movl	%eax, %edx
   10f20:	8b 45 f8 	movl	-8(%rbp), %eax
   10f23:	01 d0 	addl	%edx, %eax
   10f25:	89 c0 	movl	%eax, %eax
   10f27:	eb 21 	jmp	33 <bitmapFirstZeriBit+0x9e>
   10f29:	83 45 f8 01 	addl	$1, -8(%rbp)
   10f2d:	83 7d f8 3f 	cmpl	$63, -8(%rbp)
   10f31:	76 b7 	jbe	-73 <bitmapFirstZeriBit+0x3e>
   10f33:	83 45 fc 01 	addl	$1, -4(%rbp)
   10f37:	8b 55 fc 	movl	-4(%rbp), %edx
   10f3a:	48 8b 45 e0 	movq	-32(%rbp), %rax
   10f3e:	48 39 c2 	cmpq	%rax, %rdx
   10f41:	72 87 	jb	-121 <bitmapFirstZeriBit+0x1e>
   10f43:	48 c7 c0 ff ff ff ff 	movq	$-1, %rax
   10f4a:	5d 	popq	%rbp
   10f4b:	c3 	retq

initPhysicalPageFrameAllocation:
   10f4c:	55 	pushq	%rbp
   10f4d:	48 89 e5 	movq	%rsp, %rbp
   10f50:	48 83 ec 30 	subq	$48, %rsp
   10f54:	48 89 7d d8 	movq	%rdi, -40(%rbp)
   10f58:	48 8b 45 d8 	movq	-40(%rbp), %rax
   10f5c:	48 83 e8 80 	subq	$-128, %rax
   10f60:	48 c1 e0 09 	shlq	$9, %rax
   10f64:	48 05 00 01 00 00 	addq	$256, %rax
   10f6a:	48 89 05 87 5e 00 00 	movq	%rax, 24199(%rip)
   10f71:	b8 00 00 00 00 	movl	$0, %eax
   10f76:	e8 b9 fc ff ff 	callq	-839 <getSystemMemory>
   10f7b:	48 89 45 f0 	movq	%rax, -16(%rbp)
   10f7f:	48 8b 45 f0 	movq	-16(%rbp), %rax
   10f83:	48 c1 e8 0c 	shrq	$12, %rax
   10f87:	48 89 45 f0 	movq	%rax, -16(%rbp)
   10f8b:	48 8b 45 f0 	movq	-16(%rbp), %rax
   10f8f:	48 c1 e8 06 	shrq	$6, %rax
   10f93:	48 89 45 f0 	movq	%rax, -16(%rbp)
   10f97:	48 83 45 f0 01 	addq	$1, -16(%rbp)
   10f9c:	48 8b 45 f0 	movq	-16(%rbp), %rax
   10fa0:	48 89 05 49 5e 00 00 	movq	%rax, 24137(%rip)
   10fa7:	48 8b 15 42 5e 00 00 	movq	24130(%rip), %rdx
   10fae:	48 8b 05 43 5e 00 00 	movq	24131(%rip), %rax
   10fb5:	be 00 00 00 00 	movl	$0, %esi
   10fba:	48 89 c7 	movq	%rax, %rdi
   10fbd:	e8 54 f9 ff ff 	callq	-1708 <memset>
   10fc2:	c7 05 34 5e 00 00 01 00 00 00 	movl	$1, 24116(%rip)
   10fcc:	b8 00 00 00 00 	movl	$0, %eax
   10fd1:	e8 5e fc ff ff 	callq	-930 <getSystemMemory>
   10fd6:	48 c1 e8 0c 	shrq	$12, %rax
   10fda:	48 83 c0 01 	addq	$1, %rax
   10fde:	48 89 c6 	movq	%rax, %rsi
   10fe1:	bf 00 00 00 00 	movl	$0, %edi
   10fe6:	e8 cd 00 00 00 	callq	205 <reservePages>
   10feb:	48 c7 45 f8 00 00 00 00 	movq	$0, -8(%rbp)
   10ff3:	eb 5b 	jmp	91 <initPhysicalPageFrameAllocation+0x104>
   10ff5:	0f b7 05 e6 5d 00 00 	movzwl	24038(%rip), %eax
   10ffc:	0f b7 c0 	movzwl	%ax, %eax
   10fff:	48 89 c7 	movq	%rax, %rdi
   11002:	e8 40 fd ff ff 	callq	-704 <isMemoryEntryUsable>
   11007:	85 c0 	testl	%eax, %eax
   11009:	74 40 	je	64 <initPhysicalPageFrameAllocation+0xff>
   1100b:	0f b7 05 d0 5d 00 00 	movzwl	24016(%rip), %eax
   11012:	0f b7 c8 	movzwl	%ax, %ecx
   11015:	48 8b 55 f8 	movq	-8(%rbp), %rdx
   11019:	48 89 d0 	movq	%rdx, %rax
   1101c:	48 01 c0 	addq	%rax, %rax
   1101f:	48 01 d0 	addq	%rdx, %rax
   11022:	48 c1 e0 03 	shlq	$3, %rax
   11026:	48 01 c8 	addq	%rcx, %rax
   11029:	48 89 45 e8 	movq	%rax, -24(%rbp)
   1102d:	48 8b 45 e8 	movq	-24(%rbp), %rax
   11031:	48 8b 40 08 	movq	8(%rax), %rax
   11035:	48 c1 e8 0c 	shrq	$12, %rax
   11039:	48 8b 55 e8 	movq	-24(%rbp), %rdx
   1103d:	48 8b 12 	movq	(%rdx), %rdx
   11040:	48 89 c6 	movq	%rax, %rsi
   11043:	48 89 d7 	movq	%rdx, %rdi
   11046:	e8 e4 00 00 00 	callq	228 <unreservePages>
   1104b:	48 83 45 f8 01 	addq	$1, -8(%rbp)
   11050:	0f b7 05 8b 5d 00 00 	movzwl	23947(%rip), %eax
   11057:	0f b7 c0 	movzwl	%ax, %eax
   1105a:	83 e8 04 	subl	$4, %eax
   1105d:	48 98 	cltq
   1105f:	8b 00 	movl	(%rax), %eax
   11061:	89 c0 	movl	%eax, %eax
   11063:	48 39 45 f8 	cmpq	%rax, -8(%rbp)
   11067:	72 8c 	jb	-116 <initPhysicalPageFrameAllocation+0xa9>
   11069:	be 00 01 00 00 	movl	$256, %esi
   1106e:	bf 00 00 00 00 	movl	$0, %edi
   11073:	e8 40 00 00 00 	callq	64 <reservePages>
   11078:	48 8b 45 d8 	movq	-40(%rbp), %rax
   1107c:	48 05 00 10 00 00 	addq	$4096, %rax
   11082:	48 c1 e8 0c 	shrq	$12, %rax
   11086:	48 89 c6 	movq	%rax, %rsi
   11089:	bf 00 00 01 00 	movl	$65536, %edi
   1108e:	e8 25 00 00 00 	callq	37 <reservePages>
   11093:	48 8b 45 f0 	movq	-16(%rbp), %rax
   11097:	48 c1 e0 03 	shlq	$3, %rax
   1109b:	48 c1 e8 0c 	shrq	$12, %rax
   1109f:	48 8d 50 01 	leaq	1(%rax), %rdx
   110a3:	48 8b 05 4e 5d 00 00 	movq	23886(%rip), %rax
   110aa:	48 89 d6 	movq	%rdx, %rsi
   110ad:	48 89 c7 	movq	%rax, %rdi
   110b0:	e8 03 00 00 00 	callq	3 <reservePages>
   110b5:	90 	nop
   110b6:	c9 	leave
   110b7:	c3 	retq

reservePages:
   110b8:	55 	pushq	%rbp
   110b9:	48 89 e5 	movq	%rsp, %rbp
   110bc:	48 83 ec 20 	subq	$32, %rsp
   110c0:	48 89 7d e8 	movq	%rdi, -24(%rbp)
   110c4:	48 89 75 e0 	movq	%rsi, -32(%rbp)
   110c8:	8b 05 32 5d 00 00 	movl	23858(%rip), %eax
   110ce:	85 c0 	testl	%eax, %eax
   110d0:	74 5a 	je	90 <reservePages+0x74>
   110d2:	48 c7 45 f8 00 00 00 00 	movq	$0, -8(%rbp)
   110da:	eb 44 	jmp	68 <reservePages+0x68>
   110dc:	48 8b 45 f8 	movq	-8(%rbp), %rax
   110e0:	48 c1 e0 0c 	shlq	$12, %rax
   110e4:	48 89 c2 	movq	%rax, %rdx
   110e7:	48 8b 45 e8 	movq	-24(%rbp), %rax
   110eb:	48 01 d0 	addq	%rdx, %rax
   110ee:	48 89 45 f0 	movq	%rax, -16(%rbp)
   110f2:	48 8b 45 f0 	movq	-16(%rbp), %rax
   110f6:	48 c1 e8 0c 	shrq	$12, %rax
   110fa:	48 89 c2 	movq	%rax, %rdx
   110fd:	48 8b 35 ec 5c 00 00 	movq	23788(%rip), %rsi
   11104:	48 8b 05 ed 5c 00 00 	movq	23789(%rip), %rax
   1110b:	b9 01 00 00 00 	movl	$1, %ecx
   11110:	48 89 f7 	movq	%rsi, %rdi
   11113:	48 89 c6 	movq	%rax, %rsi
   11116:	e8 d9 fc ff ff 	callq	-807 <bitmapSet>
   1111b:	48 83 45 f8 01 	addq	$1, -8(%rbp)
   11120:	48 8b 45 f8 	movq	-8(%rbp), %rax
   11124:	48 3b 45 e0 	cmpq	-32(%rbp), %rax
   11128:	72 b2 	jb	-78 <reservePages+0x24>
   1112a:	eb 01 	jmp	1 <reservePages+0x75>
   1112c:	90 	nop
   1112d:	c9 	leave
   1112e:	c3 	retq

unreservePages:
   1112f:	55 	pushq	%rbp
   11130:	48 89 e5 	movq	%rsp, %rbp
   11133:	48 83 ec 20 	subq	$32, %rsp
   11137:	48 89 7d e8 	movq	%rdi, -24(%rbp)
   1113b:	48 89 75 e0 	movq	%rsi, -32(%rbp)
   1113f:	8b 05 bb 5c 00 00 	movl	23739(%rip), %eax
   11145:	85 c0 	testl	%eax, %eax
   11147:	74 5a 	je	90 <unreservePages+0x74>
   11149:	48 c7 45 f8 00 00 00 00 	movq	$0, -8(%rbp)
   11151:	eb 44 	jmp	68 <unreservePages+0x68>
   11153:	48 8b 45 f8 	movq	-8(%rbp), %rax
   11157:	48 c1 e0 0c 	shlq	$12, %rax
   1115b:	48 89 c2 	movq	%rax, %rdx
   1115e:	48 8b 45 e8 	movq	-24(%rbp), %rax
   11162:	48 01 d0 	addq	%rdx, %rax
   11165:	48 89 45 f0 	movq	%rax, -16(%rbp)
   11169:	48 8b 45 f0 	movq	-16(%rbp), %rax
   1116d:	48 c1 e8 0c 	shrq	$12, %rax
   11171:	48 89 c2 	movq	%rax, %rdx
   11174:	48 8b 35 75 5c 00 00 	movq	23669(%rip), %rsi
   1117b:	48 8b 05 76 5c 00 00 	movq	23670(%rip), %rax
   11182:	b9 00 00 00 00 	movl	$0, %ecx
   11187:	48 89 f7 	movq	%rsi, %rdi
   1118a:	48 89 c6 	movq	%rax, %rsi
   1118d:	e8 62 fc ff ff 	callq	-926 <bitmapSet>
   11192:	48 83 45 f8 01 	addq	$1, -8(%rbp)
   11197:	48 8b 45 f8 	movq	-8(%rbp), %rax
   1119b:	48 3b 45 e0 	cmpq	-32(%rbp), %rax
   1119f:	72 b2 	jb	-78 <unreservePages+0x24>
   111a1:	eb 01 	jmp	1 <unreservePages+0x75>
   111a3:	90 	nop
   111a4:	c9 	leave
   111a5:	c3 	retq

isPageReserved:
   111a6:	55 	pushq	%rbp
   111a7:	48 89 e5 	movq	%rsp, %rbp
   111aa:	48 83 ec 10 	subq	$16, %rsp
   111ae:	48 89 7d f8 	movq	%rdi, -8(%rbp)
   111b2:	8b 05 48 5c 00 00 	movl	23624(%rip), %eax
   111b8:	85 c0 	testl	%eax, %eax
   111ba:	75 07 	jne	7 <isPageReserved+0x1d>
   111bc:	b8 00 00 00 00 	movl	$0, %eax
   111c1:	eb 1d 	jmp	29 <isPageReserved+0x3a>
   111c3:	48 8b 55 f8 	movq	-8(%rbp), %rdx
   111c7:	48 8b 0d 22 5c 00 00 	movq	23586(%rip), %rcx
   111ce:	48 8b 05 23 5c 00 00 	movq	23587(%rip), %rax
   111d5:	48 89 cf 	movq	%rcx, %rdi
   111d8:	48 89 c6 	movq	%rax, %rsi
   111db:	e8 b8 fb ff ff 	callq	-1096 <bitmapGet>
   111e0:	c9 	leave
   111e1:	c3 	retq

firstUnreservedPage:
   111e2:	55 	pushq	%rbp
   111e3:	48 89 e5 	movq	%rsp, %rbp
   111e6:	8b 05 14 5c 00 00 	movl	23572(%rip), %eax
   111ec:	85 c0 	testl	%eax, %eax
   111ee:	75 07 	jne	7 <firstUnreservedPage+0x15>
   111f0:	b8 00 00 00 00 	movl	$0, %eax
   111f5:	eb 19 	jmp	25 <firstUnreservedPage+0x2e>
   111f7:	48 8b 15 f2 5b 00 00 	movq	23538(%rip), %rdx
   111fe:	48 8b 05 f3 5b 00 00 	movq	23539(%rip), %rax
   11205:	48 89 d7 	movq	%rdx, %rdi
   11208:	48 89 c6 	movq	%rax, %rsi
   1120b:	e8 9c fc ff ff 	callq	-868 <bitmapFirstZeriBit>
   11210:	5d 	popq	%rbp
   11211:	c3 	retq

RequestPhysicalPage:
   11212:	55 	pushq	%rbp
   11213:	48 89 e5 	movq	%rsp, %rbp
   11216:	48 83 ec 10 	subq	$16, %rsp
   1121a:	8b 05 e0 5b 00 00 	movl	23520(%rip), %eax
   11220:	85 c0 	testl	%eax, %eax
   11222:	75 07 	jne	7 <RequestPhysicalPage+0x19>
   11224:	b8 00 00 00 00 	movl	$0, %eax
   11229:	eb 34 	jmp	52 <RequestPhysicalPage+0x4d>
   1122b:	b8 00 00 00 00 	movl	$0, %eax
   11230:	e8 ad ff ff ff 	callq	-83 <firstUnreservedPage>
   11235:	48 89 45 f8 	movq	%rax, -8(%rbp)
   11239:	48 83 7d f8 ff 	cmpq	$-1, -8(%rbp)
   1123e:	75 02 	jne	2 <RequestPhysicalPage+0x30>
   11240:	eb fe 	jmp	-2 <RequestPhysicalPage+0x2e>
   11242:	48 8b 45 f8 	movq	-8(%rbp), %rax
   11246:	48 c1 e0 0c 	shlq	$12, %rax
   1124a:	be 01 00 00 00 	movl	$1, %esi
   1124f:	48 89 c7 	movq	%rax, %rdi
   11252:	e8 61 fe ff ff 	callq	-415 <reservePages>
   11257:	48 8b 45 f8 	movq	-8(%rbp), %rax
   1125b:	48 c1 e0 0c 	shlq	$12, %rax
   1125f:	c9 	leave
   11260:	c3 	retq
   11261:	66 2e 0f 1f 84 00 00 00 00 00 	nopw	%cs:(%rax,%rax)
   1126b:	0f 1f 44 00 00 	nopl	(%rax,%rax)

loadGDT:
   11270:	fa 	cli
   11271:	0f 01 17 	lgdtq	(%rdi)
   11274:	66 b8 10 00 	movw	$16, %ax
   11278:	8e c0 	movl	%eax, %es
   1127a:	8e e8 	movl	%eax, %gs
   1127c:	8e d8 	movl	%eax, %ds
   1127e:	8e e0 	movl	%eax, %fs
   11280:	5f 	popq	%rdi
   11281:	b8 08 00 00 00 	movl	$8, %eax
   11286:	50 	pushq	%rax
   11287:	57 	pushq	%rdi
   11288:	48 cb 	lretq

initGDT:
   1128a:	55 	pushq	%rbp
   1128b:	48 89 e5 	movq	%rsp, %rbp
   1128e:	48 83 ec 10 	subq	$16, %rsp
   11292:	48 c7 45 f8 20 6e 01 00 	movq	$93728, -8(%rbp)
   1129a:	66 c7 45 f6 2f 00 	movw	$47, -10(%rbp)
   112a0:	48 8b 45 f8 	movq	-8(%rbp), %rax
   112a4:	41 b9 00 00 00 00 	movl	$0, %r9d
   112aa:	41 b8 00 00 00 00 	movl	$0, %r8d
   112b0:	b9 00 00 00 00 	movl	$0, %ecx
   112b5:	ba 00 00 00 00 	movl	$0, %edx
   112ba:	be 00 00 00 00 	movl	$0, %esi
   112bf:	48 89 c7 	movq	%rax, %rdi
   112c2:	b8 00 00 00 00 	movl	$0, %eax
   112c7:	e8 bf 00 00 00 	callq	191 <gdtSetEntry>
   112cc:	48 8b 45 f8 	movq	-8(%rbp), %rax
   112d0:	41 b9 a0 00 00 00 	movl	$160, %r9d
   112d6:	41 b8 9a 00 00 00 	movl	$154, %r8d
   112dc:	b9 00 00 00 00 	movl	$0, %ecx
   112e1:	ba 00 00 00 00 	movl	$0, %edx
   112e6:	be 01 00 00 00 	movl	$1, %esi
   112eb:	48 89 c7 	movq	%rax, %rdi
   112ee:	b8 00 00 00 00 	movl	$0, %eax
   112f3:	e8 93 00 00 00 	callq	147 <gdtSetEntry>
   112f8:	48 8b 45 f8 	movq	-8(%rbp), %rax
   112fc:	41 b9 a0 00 00 00 	movl	$160, %r9d
   11302:	41 b8 92 00 00 00 	movl	$146, %r8d
   11308:	b9 00 00 00 00 	movl	$0, %ecx
   1130d:	ba 00 00 00 00 	movl	$0, %edx
   11312:	be 02 00 00 00 	movl	$2, %esi
   11317:	48 89 c7 	movq	%rax, %rdi
   1131a:	b8 00 00 00 00 	movl	$0, %eax
   1131f:	e8 67 00 00 00 	callq	103 <gdtSetEntry>
   11324:	48 8b 45 f8 	movq	-8(%rbp), %rax
   11328:	41 b9 a0 00 00 00 	movl	$160, %r9d
   1132e:	41 b8 f2 00 00 00 	movl	$242, %r8d
   11334:	b9 00 00 00 00 	movl	$0, %ecx
   11339:	ba 00 00 00 00 	movl	$0, %edx
   1133e:	be 03 00 00 00 	movl	$3, %esi
   11343:	48 89 c7 	movq	%rax, %rdi
   11346:	b8 00 00 00 00 	movl	$0, %eax
   1134b:	e8 3b 00 00 00 	callq	59 <gdtSetEntry>
   11350:	48 8b 45 f8 	movq	-8(%rbp), %rax
   11354:	41 b9 a0 00 00 00 	movl	$160, %r9d
   1135a:	41 b8 fa 00 00 00 	movl	$250, %r8d
   11360:	b9 00 00 00 00 	movl	$0, %ecx
   11365:	ba 00 00 00 00 	movl	$0, %edx
   1136a:	be 04 00 00 00 	movl	$4, %esi
   1136f:	48 89 c7 	movq	%rax, %rdi
   11372:	b8 00 00 00 00 	movl	$0, %eax
   11377:	e8 0f 00 00 00 	callq	15 <gdtSetEntry>
   1137c:	48 8d 45 f6 	leaq	-10(%rbp), %rax
   11380:	48 89 c7 	movq	%rax, %rdi
   11383:	e8 e8 fe ff ff 	callq	-280 <loadGDT>
   11388:	90 	nop
   11389:	c9 	leave
   1138a:	c3 	retq

gdtSetEntry:
   1138b:	55 	pushq	%rbp
   1138c:	48 89 e5 	movq	%rsp, %rbp
   1138f:	48 89 7d f8 	movq	%rdi, -8(%rbp)
   11393:	89 f0 	movl	%esi, %eax
   11395:	48 89 55 e8 	movq	%rdx, -24(%rbp)
   11399:	89 4d f0 	movl	%ecx, -16(%rbp)
   1139c:	44 89 c1 	movl	%r8d, %ecx
   1139f:	44 89 ca 	movl	%r9d, %edx
   113a2:	88 45 f4 	movb	%al, -12(%rbp)
   113a5:	89 c8 	movl	%ecx, %eax
   113a7:	88 45 e4 	movb	%al, -28(%rbp)
   113aa:	89 d0 	movl	%edx, %eax
   113ac:	88 45 e0 	movb	%al, -32(%rbp)
   113af:	0f b6 45 f4 	movzbl	-12(%rbp), %eax
   113b3:	48 8d 14 c5 00 00 00 00 	leaq	(,%rax,8), %rdx
   113bb:	48 8b 45 f8 	movq	-8(%rbp), %rax
   113bf:	48 01 d0 	addq	%rdx, %rax
   113c2:	48 8b 55 e8 	movq	-24(%rbp), %rdx
   113c6:	66 89 50 02 	movw	%dx, 2(%rax)
   113ca:	48 8b 45 e8 	movq	-24(%rbp), %rax
   113ce:	48 c1 e8 10 	shrq	$16, %rax
   113d2:	48 89 c2 	movq	%rax, %rdx
   113d5:	0f b6 45 f4 	movzbl	-12(%rbp), %eax
   113d9:	48 8d 0c c5 00 00 00 00 	leaq	(,%rax,8), %rcx
   113e1:	48 8b 45 f8 	movq	-8(%rbp), %rax
   113e5:	48 01 c8 	addq	%rcx, %rax
   113e8:	88 50 04 	movb	%dl, 4(%rax)
   113eb:	48 8b 45 e8 	movq	-24(%rbp), %rax
   113ef:	48 c1 e8 18 	shrq	$24, %rax
   113f3:	48 89 c2 	movq	%rax, %rdx
   113f6:	0f b6 45 f4 	movzbl	-12(%rbp), %eax
   113fa:	48 8d 0c c5 00 00 00 00 	leaq	(,%rax,8), %rcx
   11402:	48 8b 45 f8 	movq	-8(%rbp), %rax
   11406:	48 01 c8 	addq	%rcx, %rax
   11409:	88 50 07 	movb	%dl, 7(%rax)
   1140c:	0f b6 45 f4 	movzbl	-12(%rbp), %eax
   11410:	48 8d 14 c5 00 00 00 00 	leaq	(,%rax,8), %rdx
   11418:	48 8b 45 f8 	movq	-8(%rbp), %rax
   1141c:	48 01 d0 	addq	%rdx, %rax
   1141f:	8b 55 f0 	movl	-16(%rbp), %edx
   11422:	66 89 10 	movw	%dx, (%rax)
   11425:	8b 45 f0 	movl	-16(%rbp), %eax
   11428:	c1 e8 10 	shrl	$16, %eax
   1142b:	89 c2 	movl	%eax, %edx
   1142d:	0f b6 45 f4 	movzbl	-12(%rbp), %eax
   11431:	48 8d 0c c5 00 00 00 00 	leaq	(,%rax,8), %rcx
   11439:	48 8b 45 f8 	movq	-8(%rbp), %rax
   1143d:	48 01 c8 	addq	%rcx, %rax
   11440:	83 e2 0f 	andl	$15, %edx
   11443:	88 50 06 	movb	%dl, 6(%rax)
   11446:	0f b6 45 f4 	movzbl	-12(%rbp), %eax
   1144a:	48 8d 14 c5 00 00 00 00 	leaq	(,%rax,8), %rdx
   11452:	48 8b 45 f8 	movq	-8(%rbp), %rax
   11456:	48 01 d0 	addq	%rdx, %rax
   11459:	0f b6 40 06 	movzbl	6(%rax), %eax
   1145d:	89 c2 	movl	%eax, %edx
   1145f:	0f b6 45 e0 	movzbl	-32(%rbp), %eax
   11463:	83 e0 f0 	andl	$-16, %eax
   11466:	09 c2 	orl	%eax, %edx
   11468:	0f b6 45 f4 	movzbl	-12(%rbp), %eax
   1146c:	48 8d 0c c5 00 00 00 00 	leaq	(,%rax,8), %rcx
   11474:	48 8b 45 f8 	movq	-8(%rbp), %rax
   11478:	48 01 c8 	addq	%rcx, %rax
   1147b:	88 50 06 	movb	%dl, 6(%rax)
   1147e:	0f b6 45 f4 	movzbl	-12(%rbp), %eax
   11482:	48 8d 14 c5 00 00 00 00 	leaq	(,%rax,8), %rdx
   1148a:	48 8b 45 f8 	movq	-8(%rbp), %rax
   1148e:	48 01 c2 	addq	%rax, %rdx
   11491:	0f b6 45 e4 	movzbl	-28(%rbp), %eax
   11495:	88 42 05 	movb	%al, 5(%rdx)
   11498:	90 	nop
   11499:	5d 	popq	%rbp
   1149a:	c3 	retq

initPaging:
   1149b:	55 	pushq	%rbp
   1149c:	48 89 e5 	movq	%rsp, %rbp
   1149f:	48 83 ec 20 	subq	$32, %rsp
   114a3:	b8 00 00 00 00 	movl	$0, %eax
   114a8:	e8 65 fd ff ff 	callq	-667 <RequestPhysicalPage>
   114ad:	48 89 45 e0 	movq	%rax, -32(%rbp)
   114b1:	48 8b 45 e0 	movq	-32(%rbp), %rax
   114b5:	48 89 c7 	movq	%rax, %rdi
   114b8:	b8 00 00 00 00 	movl	$0, %eax
   114bd:	e8 24 08 00 00 	callq	2084 <setAsCurrentPML4>
   114c2:	48 c7 45 f8 00 00 00 00 	movq	$0, -8(%rbp)
   114ca:	48 c7 45 f0 00 00 30 00 	movq	$3145728, -16(%rbp)
   114d2:	48 c7 45 e8 00 00 00 00 	movq	$0, -24(%rbp)
   114da:	eb 2e 	jmp	46 <initPaging+0x6f>
   114dc:	48 8b 55 f8 	movq	-8(%rbp), %rdx
   114e0:	48 8b 75 f8 	movq	-8(%rbp), %rsi
   114e4:	48 8b 45 e0 	movq	-32(%rbp), %rax
   114e8:	b9 03 00 00 00 	movl	$3, %ecx
   114ed:	48 89 c7 	movq	%rax, %rdi
   114f0:	e8 c1 00 00 00 	callq	193 <mapPhysicalToVirtualAddr>
   114f5:	48 81 45 f8 00 10 00 00 	addq	$4096, -8(%rbp)
   114fd:	48 81 6d f0 00 10 00 00 	subq	$4096, -16(%rbp)
   11505:	48 83 45 e8 01 	addq	$1, -24(%rbp)
   1150a:	48 83 7d f0 00 	cmpq	$0, -16(%rbp)
   1150f:	75 cb 	jne	-53 <initPaging+0x41>
   11511:	8b 05 b6 58 00 00 	movl	22710(%rip), %eax
   11517:	89 c0 	movl	%eax, %eax
   11519:	48 89 45 f8 	movq	%rax, -8(%rbp)
   1151d:	0f b7 05 9e 58 00 00 	movzwl	22686(%rip), %eax
   11524:	0f b7 d0 	movzwl	%ax, %edx
   11527:	0f b7 05 96 58 00 00 	movzwl	22678(%rip), %eax
   1152e:	0f b7 c0 	movzwl	%ax, %eax
   11531:	0f af d0 	imull	%eax, %edx
   11534:	0f b6 05 8b 58 00 00 	movzbl	22667(%rip), %eax
   1153b:	0f b6 c0 	movzbl	%al, %eax
   1153e:	0f af c2 	imull	%edx, %eax
   11541:	8d 50 07 	leal	7(%rax), %edx
   11544:	85 c0 	testl	%eax, %eax
   11546:	0f 48 c2 	cmovsl	%edx, %eax
   11549:	c1 f8 03 	sarl	$3, %eax
   1154c:	48 98 	cltq
   1154e:	48 89 45 f0 	movq	%rax, -16(%rbp)
   11552:	48 c7 45 e8 00 00 00 00 	movq	$0, -24(%rbp)
   1155a:	eb 2e 	jmp	46 <initPaging+0xef>
   1155c:	48 8b 55 f8 	movq	-8(%rbp), %rdx
   11560:	48 8b 75 f8 	movq	-8(%rbp), %rsi
   11564:	48 8b 45 e0 	movq	-32(%rbp), %rax
   11568:	b9 03 00 00 00 	movl	$3, %ecx
   1156d:	48 89 c7 	movq	%rax, %rdi
   11570:	e8 41 00 00 00 	callq	65 <mapPhysicalToVirtualAddr>
   11575:	48 81 45 f8 00 10 00 00 	addq	$4096, -8(%rbp)
   1157d:	48 81 6d f0 00 10 00 00 	subq	$4096, -16(%rbp)
   11585:	48 83 45 e8 01 	addq	$1, -24(%rbp)
   1158a:	48 83 7d f0 00 	cmpq	$0, -16(%rbp)
   1158f:	75 cb 	jne	-53 <initPaging+0xc1>
   11591:	48 8b 45 e0 	movq	-32(%rbp), %rax
   11595:	48 89 c7 	movq	%rax, %rdi
   11598:	b8 00 00 00 00 	movl	$0, %eax
   1159d:	e8 67 07 00 00 	callq	1895 <loadCurrentPML4>
   115a2:	48 8b 45 e0 	movq	-32(%rbp), %rax
   115a6:	48 89 c7 	movq	%rax, %rdi
   115a9:	b8 00 00 00 00 	movl	$0, %eax
   115ae:	e8 33 07 00 00 	callq	1843 <setAsCurrentPML4>
   115b3:	90 	nop
   115b4:	c9 	leave
   115b5:	c3 	retq

mapPhysicalToVirtualAddr:
   115b6:	55 	pushq	%rbp
   115b7:	48 89 e5 	movq	%rsp, %rbp
   115ba:	48 83 ec 60 	subq	$96, %rsp
   115be:	48 89 7d b8 	movq	%rdi, -72(%rbp)
   115c2:	48 89 75 b0 	movq	%rsi, -80(%rbp)
   115c6:	48 89 55 a8 	movq	%rdx, -88(%rbp)
   115ca:	89 4d a4 	movl	%ecx, -92(%rbp)
   115cd:	48 c1 6d a8 0c 	shrq	$12, -88(%rbp)
   115d2:	48 8b 45 a8 	movq	-88(%rbp), %rax
   115d6:	25 ff 01 00 00 	andl	$511, %eax
   115db:	48 89 45 e0 	movq	%rax, -32(%rbp)
   115df:	48 c1 6d a8 09 	shrq	$9, -88(%rbp)
   115e4:	48 8b 45 a8 	movq	-88(%rbp), %rax
   115e8:	25 ff 01 00 00 	andl	$511, %eax
   115ed:	48 89 45 d8 	movq	%rax, -40(%rbp)
   115f1:	48 c1 6d a8 09 	shrq	$9, -88(%rbp)
   115f6:	48 8b 45 a8 	movq	-88(%rbp), %rax
   115fa:	25 ff 01 00 00 	andl	$511, %eax
   115ff:	48 89 45 d0 	movq	%rax, -48(%rbp)
   11603:	48 c1 6d a8 09 	shrq	$9, -88(%rbp)
   11608:	48 8b 45 a8 	movq	-88(%rbp), %rax
   1160c:	25 ff 01 00 00 	andl	$511, %eax
   11611:	48 89 45 c8 	movq	%rax, -56(%rbp)
   11615:	48 8b 45 b8 	movq	-72(%rbp), %rax
   11619:	48 8b 55 c8 	movq	-56(%rbp), %rdx
   1161d:	0f b6 04 d0 	movzbl	(%rax,%rdx,8), %eax
   11621:	83 e0 01 	andl	$1, %eax
   11624:	84 c0 	testb	%al, %al
   11626:	0f 85 c5 00 00 00 	jne	197 <mapPhysicalToVirtualAddr+0x13b>
   1162c:	b8 00 00 00 00 	movl	$0, %eax
   11631:	e8 dc fb ff ff 	callq	-1060 <RequestPhysicalPage>
   11636:	48 89 45 f8 	movq	%rax, -8(%rbp)
   1163a:	48 8b 45 f8 	movq	-8(%rbp), %rax
   1163e:	ba 00 10 00 00 	movl	$4096, %edx
   11643:	be 00 00 00 00 	movl	$0, %esi
   11648:	48 89 c7 	movq	%rax, %rdi
   1164b:	e8 c6 f2 ff ff 	callq	-3386 <memset>
   11650:	48 8b 45 b8 	movq	-72(%rbp), %rax
   11654:	48 8b 55 c8 	movq	-56(%rbp), %rdx
   11658:	0f b6 0c d0 	movzbl	(%rax,%rdx,8), %ecx
   1165c:	83 c9 01 	orl	$1, %ecx
   1165f:	88 0c d0 	movb	%cl, (%rax,%rdx,8)
   11662:	48 8b 45 b8 	movq	-72(%rbp), %rax
   11666:	48 8b 55 c8 	movq	-56(%rbp), %rdx
   1166a:	0f b6 0c d0 	movzbl	(%rax,%rdx,8), %ecx
   1166e:	83 c9 02 	orl	$2, %ecx
   11671:	88 0c d0 	movb	%cl, (%rax,%rdx,8)
   11674:	48 8b 45 f8 	movq	-8(%rbp), %rax
   11678:	48 c1 e8 0c 	shrq	$12, %rax
   1167c:	89 c1 	movl	%eax, %ecx
   1167e:	81 e1 ff ff ff 0f 	andl	$268435455, %ecx
   11684:	48 8b 45 b8 	movq	-72(%rbp), %rax
   11688:	48 8b 55 c8 	movq	-56(%rbp), %rdx
   1168c:	89 ce 	movl	%ecx, %esi
   1168e:	83 e6 0f 	andl	$15, %esi
   11691:	89 f7 	movl	%esi, %edi
   11693:	c1 e7 04 	shll	$4, %edi
   11696:	0f b6 74 d0 01 	movzbl	1(%rax,%rdx,8), %esi
   1169b:	83 e6 0f 	andl	$15, %esi
   1169e:	09 fe 	orl	%edi, %esi
   116a0:	40 88 74 d0 01 	movb	%sil, 1(%rax,%rdx,8)
   116a5:	89 ce 	movl	%ecx, %esi
   116a7:	c1 ee 04 	shrl	$4, %esi
   116aa:	89 f6 	movl	%esi, %esi
   116ac:	40 0f b6 fe 	movzbl	%sil, %edi
   116b0:	0f b6 74 d0 02 	movzbl	2(%rax,%rdx,8), %esi
   116b5:	83 e6 00 	andl	$0, %esi
   116b8:	09 fe 	orl	%edi, %esi
   116ba:	40 88 74 d0 02 	movb	%sil, 2(%rax,%rdx,8)
   116bf:	89 ce 	movl	%ecx, %esi
   116c1:	c1 ee 0c 	shrl	$12, %esi
   116c4:	89 f6 	movl	%esi, %esi
   116c6:	40 0f b6 fe 	movzbl	%sil, %edi
   116ca:	0f b6 74 d0 03 	movzbl	3(%rax,%rdx,8), %esi
   116cf:	83 e6 00 	andl	$0, %esi
   116d2:	09 fe 	orl	%edi, %esi
   116d4:	40 88 74 d0 03 	movb	%sil, 3(%rax,%rdx,8)
   116d9:	c1 e9 14 	shrl	$20, %ecx
   116dc:	89 c9 	movl	%ecx, %ecx
   116de:	0f b6 f1 	movzbl	%cl, %esi
   116e1:	0f b6 4c d0 04 	movzbl	4(%rax,%rdx,8), %ecx
   116e6:	83 e1 00 	andl	$0, %ecx
   116e9:	09 f1 	orl	%esi, %ecx
   116eb:	88 4c d0 04 	movb	%cl, 4(%rax,%rdx,8)
   116ef:	eb 40 	jmp	64 <mapPhysicalToVirtualAddr+0x17b>
   116f1:	48 8b 45 b8 	movq	-72(%rbp), %rax
   116f5:	48 8b 55 c8 	movq	-56(%rbp), %rdx
   116f9:	0f b6 4c d0 01 	movzbl	1(%rax,%rdx,8), %ecx
   116fe:	c0 e9 04 	shrb	$4, %cl
   11701:	0f b6 f1 	movzbl	%cl, %esi
   11704:	0f b6 4c d0 02 	movzbl	2(%rax,%rdx,8), %ecx
   11709:	48 c1 e1 04 	shlq	$4, %rcx
   1170d:	48 09 ce 	orq	%rcx, %rsi
   11710:	0f b6 4c d0 03 	movzbl	3(%rax,%rdx,8), %ecx
   11715:	48 c1 e1 0c 	shlq	$12, %rcx
   11719:	48 09 f1 	orq	%rsi, %rcx
   1171c:	0f b6 44 d0 04 	movzbl	4(%rax,%rdx,8), %eax
   11721:	48 c1 e0 14 	shlq	$20, %rax
   11725:	48 09 c8 	orq	%rcx, %rax
   11728:	c1 e0 0c 	shll	$12, %eax
   1172b:	48 98 	cltq
   1172d:	48 89 45 f8 	movq	%rax, -8(%rbp)
   11731:	48 8b 45 f8 	movq	-8(%rbp), %rax
   11735:	48 8b 55 d0 	movq	-48(%rbp), %rdx
   11739:	0f b6 04 d0 	movzbl	(%rax,%rdx,8), %eax
   1173d:	83 e0 01 	andl	$1, %eax
   11740:	84 c0 	testb	%al, %al
   11742:	0f 85 c5 00 00 00 	jne	197 <mapPhysicalToVirtualAddr+0x257>
   11748:	b8 00 00 00 00 	movl	$0, %eax
   1174d:	e8 c0 fa ff ff 	callq	-1344 <RequestPhysicalPage>
   11752:	48 89 45 f0 	movq	%rax, -16(%rbp)
   11756:	48 8b 45 f0 	movq	-16(%rbp), %rax
   1175a:	ba 00 10 00 00 	movl	$4096, %edx
   1175f:	be 00 00 00 00 	movl	$0, %esi
   11764:	48 89 c7 	movq	%rax, %rdi
   11767:	e8 aa f1 ff ff 	callq	-3670 <memset>
   1176c:	48 8b 45 f8 	movq	-8(%rbp), %rax
   11770:	48 8b 55 d0 	movq	-48(%rbp), %rdx
   11774:	0f b6 0c d0 	movzbl	(%rax,%rdx,8), %ecx
   11778:	83 c9 01 	orl	$1, %ecx
   1177b:	88 0c d0 	movb	%cl, (%rax,%rdx,8)
   1177e:	48 8b 45 f8 	movq	-8(%rbp), %rax
   11782:	48 8b 55 d0 	movq	-48(%rbp), %rdx
   11786:	0f b6 0c d0 	movzbl	(%rax,%rdx,8), %ecx
   1178a:	83 c9 02 	orl	$2, %ecx
   1178d:	88 0c d0 	movb	%cl, (%rax,%rdx,8)
   11790:	48 8b 45 f0 	movq	-16(%rbp), %rax
   11794:	48 c1 e8 0c 	shrq	$12, %rax
   11798:	89 c1 	movl	%eax, %ecx
   1179a:	81 e1 ff ff ff 0f 	andl	$268435455, %ecx
   117a0:	48 8b 45 f8 	movq	-8(%rbp), %rax
   117a4:	48 8b 55 d0 	movq	-48(%rbp), %rdx
   117a8:	89 ce 	movl	%ecx, %esi
   117aa:	83 e6 0f 	andl	$15, %esi
   117ad:	89 f7 	movl	%esi, %edi
   117af:	c1 e7 04 	shll	$4, %edi
   117b2:	0f b6 74 d0 01 	movzbl	1(%rax,%rdx,8), %esi
   117b7:	83 e6 0f 	andl	$15, %esi
   117ba:	09 fe 	orl	%edi, %esi
   117bc:	40 88 74 d0 01 	movb	%sil, 1(%rax,%rdx,8)
   117c1:	89 ce 	movl	%ecx, %esi
   117c3:	c1 ee 04 	shrl	$4, %esi
   117c6:	89 f6 	movl	%esi, %esi
   117c8:	40 0f b6 fe 	movzbl	%sil, %edi
   117cc:	0f b6 74 d0 02 	movzbl	2(%rax,%rdx,8), %esi
   117d1:	83 e6 00 	andl	$0, %esi
   117d4:	09 fe 	orl	%edi, %esi
   117d6:	40 88 74 d0 02 	movb	%sil, 2(%rax,%rdx,8)
   117db:	89 ce 	movl	%ecx, %esi
   117dd:	c1 ee 0c 	shrl	$12, %esi
   117e0:	89 f6 	movl	%esi, %esi
   117e2:	40 0f b6 fe 	movzbl	%sil, %edi
   117e6:	0f b6 74 d0 03 	movzbl	3(%rax,%rdx,8), %esi
   117eb:	83 e6 00 	andl	$0, %esi
   117ee:	09 fe 	orl	%edi, %esi
   117f0:	40 88 74 d0 03 	movb	%sil, 3(%rax,%rdx,8)
   117f5:	c1 e9 14 	shrl	$20, %ecx
   117f8:	89 c9 	movl	%ecx, %ecx
   117fa:	0f b6 f1 	movzbl	%cl, %esi
   117fd:	0f b6 4c d0 04 	movzbl	4(%rax,%rdx,8), %ecx
   11802:	83 e1 00 	andl	$0, %ecx
   11805:	09 f1 	orl	%esi, %ecx
   11807:	88 4c d0 04 	movb	%cl, 4(%rax,%rdx,8)
   1180b:	eb 40 	jmp	64 <mapPhysicalToVirtualAddr+0x297>
   1180d:	48 8b 45 f8 	movq	-8(%rbp), %rax
   11811:	48 8b 55 d0 	movq	-48(%rbp), %rdx
   11815:	0f b6 4c d0 01 	movzbl	1(%rax,%rdx,8), %ecx
   1181a:	c0 e9 04 	shrb	$4, %cl
   1181d:	0f b6 f1 	movzbl	%cl, %esi
   11820:	0f b6 4c d0 02 	movzbl	2(%rax,%rdx,8), %ecx
   11825:	48 c1 e1 04 	shlq	$4, %rcx
   11829:	48 09 ce 	orq	%rcx, %rsi
   1182c:	0f b6 4c d0 03 	movzbl	3(%rax,%rdx,8), %ecx
   11831:	48 c1 e1 0c 	shlq	$12, %rcx
   11835:	48 09 f1 	orq	%rsi, %rcx
   11838:	0f b6 44 d0 04 	movzbl	4(%rax,%rdx,8), %eax
   1183d:	48 c1 e0 14 	shlq	$20, %rax
   11841:	48 09 c8 	orq	%rcx, %rax
   11844:	c1 e0 0c 	shll	$12, %eax
   11847:	48 98 	cltq
   11849:	48 89 45 f0 	movq	%rax, -16(%rbp)
   1184d:	48 8b 45 f0 	movq	-16(%rbp), %rax
   11851:	48 8b 55 d8 	movq	-40(%rbp), %rdx
   11855:	0f b6 04 d0 	movzbl	(%rax,%rdx,8), %eax
   11859:	83 e0 01 	andl	$1, %eax
   1185c:	84 c0 	testb	%al, %al
   1185e:	0f 85 c5 00 00 00 	jne	197 <mapPhysicalToVirtualAddr+0x373>
   11864:	b8 00 00 00 00 	movl	$0, %eax
   11869:	e8 a4 f9 ff ff 	callq	-1628 <RequestPhysicalPage>
   1186e:	48 89 45 e8 	movq	%rax, -24(%rbp)
   11872:	48 8b 45 e8 	movq	-24(%rbp), %rax
   11876:	ba 00 10 00 00 	movl	$4096, %edx
   1187b:	be 00 00 00 00 	movl	$0, %esi
   11880:	48 89 c7 	movq	%rax, %rdi
   11883:	e8 8e f0 ff ff 	callq	-3954 <memset>
   11888:	48 8b 45 f0 	movq	-16(%rbp), %rax
   1188c:	48 8b 55 d8 	movq	-40(%rbp), %rdx
   11890:	0f b6 0c d0 	movzbl	(%rax,%rdx,8), %ecx
   11894:	83 c9 01 	orl	$1, %ecx
   11897:	88 0c d0 	movb	%cl, (%rax,%rdx,8)
   1189a:	48 8b 45 f0 	movq	-16(%rbp), %rax
   1189e:	48 8b 55 d8 	movq	-40(%rbp), %rdx
   118a2:	0f b6 0c d0 	movzbl	(%rax,%rdx,8), %ecx
   118a6:	83 c9 02 	orl	$2, %ecx
   118a9:	88 0c d0 	movb	%cl, (%rax,%rdx,8)
   118ac:	48 8b 45 e8 	movq	-24(%rbp), %rax
   118b0:	48 c1 e8 0c 	shrq	$12, %rax
   118b4:	89 c1 	movl	%eax, %ecx
   118b6:	81 e1 ff ff ff 0f 	andl	$268435455, %ecx
   118bc:	48 8b 45 f0 	movq	-16(%rbp), %rax
   118c0:	48 8b 55 d8 	movq	-40(%rbp), %rdx
   118c4:	89 ce 	movl	%ecx, %esi
   118c6:	83 e6 0f 	andl	$15, %esi
   118c9:	89 f7 	movl	%esi, %edi
   118cb:	c1 e7 04 	shll	$4, %edi
   118ce:	0f b6 74 d0 01 	movzbl	1(%rax,%rdx,8), %esi
   118d3:	83 e6 0f 	andl	$15, %esi
   118d6:	09 fe 	orl	%edi, %esi
   118d8:	40 88 74 d0 01 	movb	%sil, 1(%rax,%rdx,8)
   118dd:	89 ce 	movl	%ecx, %esi
   118df:	c1 ee 04 	shrl	$4, %esi
   118e2:	89 f6 	movl	%esi, %esi
   118e4:	40 0f b6 fe 	movzbl	%sil, %edi
   118e8:	0f b6 74 d0 02 	movzbl	2(%rax,%rdx,8), %esi
   118ed:	83 e6 00 	andl	$0, %esi
   118f0:	09 fe 	orl	%edi, %esi
   118f2:	40 88 74 d0 02 	movb	%sil, 2(%rax,%rdx,8)
   118f7:	89 ce 	movl	%ecx, %esi
   118f9:	c1 ee 0c 	shrl	$12, %esi
   118fc:	89 f6 	movl	%esi, %esi
   118fe:	40 0f b6 fe 	movzbl	%sil, %edi
   11902:	0f b6 74 d0 03 	movzbl	3(%rax,%rdx,8), %esi
   11907:	83 e6 00 	andl	$0, %esi
   1190a:	09 fe 	orl	%edi, %esi
   1190c:	40 88 74 d0 03 	movb	%sil, 3(%rax,%rdx,8)
   11911:	c1 e9 14 	shrl	$20, %ecx
   11914:	89 c9 	movl	%ecx, %ecx
   11916:	0f b6 f1 	movzbl	%cl, %esi
   11919:	0f b6 4c d0 04 	movzbl	4(%rax,%rdx,8), %ecx
   1191e:	83 e1 00 	andl	$0, %ecx
   11921:	09 f1 	orl	%esi, %ecx
   11923:	88 4c d0 04 	movb	%cl, 4(%rax,%rdx,8)
   11927:	eb 40 	jmp	64 <mapPhysicalToVirtualAddr+0x3b3>
   11929:	48 8b 45 f0 	movq	-16(%rbp), %rax
   1192d:	48 8b 55 d8 	movq	-40(%rbp), %rdx
   11931:	0f b6 4c d0 01 	movzbl	1(%rax,%rdx,8), %ecx
   11936:	c0 e9 04 	shrb	$4, %cl
   11939:	0f b6 f1 	movzbl	%cl, %esi
   1193c:	0f b6 4c d0 02 	movzbl	2(%rax,%rdx,8), %ecx
   11941:	48 c1 e1 04 	shlq	$4, %rcx
   11945:	48 09 ce 	orq	%rcx, %rsi
   11948:	0f b6 4c d0 03 	movzbl	3(%rax,%rdx,8), %ecx
   1194d:	48 c1 e1 0c 	shlq	$12, %rcx
   11951:	48 09 f1 	orq	%rsi, %rcx
   11954:	0f b6 44 d0 04 	movzbl	4(%rax,%rdx,8), %eax
   11959:	48 c1 e0 14 	shlq	$20, %rax
   1195d:	48 09 c8 	orq	%rcx, %rax
   11960:	c1 e0 0c 	shll	$12, %eax
   11963:	48 98 	cltq
   11965:	48 89 45 e8 	movq	%rax, -24(%rbp)
   11969:	8b 45 a4 	movl	-92(%rbp), %eax
   1196c:	83 e0 01 	andl	$1, %eax
   1196f:	48 8b 55 e8 	movq	-24(%rbp), %rdx
   11973:	48 8b 4d e0 	movq	-32(%rbp), %rcx
   11977:	83 e0 01 	andl	$1, %eax
   1197a:	89 c6 	movl	%eax, %esi
   1197c:	0f b6 04 ca 	movzbl	(%rdx,%rcx,8), %eax
   11980:	83 e0 fe 	andl	$-2, %eax
   11983:	09 f0 	orl	%esi, %eax
   11985:	88 04 ca 	movb	%al, (%rdx,%rcx,8)
   11988:	8b 45 a4 	movl	-92(%rbp), %eax
   1198b:	d1 e8 	shrl	%eax
   1198d:	83 e0 01 	andl	$1, %eax
   11990:	48 8b 55 e8 	movq	-24(%rbp), %rdx
   11994:	48 8b 4d e0 	movq	-32(%rbp), %rcx
   11998:	83 e0 01 	andl	$1, %eax
   1199b:	8d 34 00 	leal	(%rax,%rax), %esi
   1199e:	0f b6 04 ca 	movzbl	(%rdx,%rcx,8), %eax
   119a2:	83 e0 fd 	andl	$-3, %eax
   119a5:	09 f0 	orl	%esi, %eax
   119a7:	88 04 ca 	movb	%al, (%rdx,%rcx,8)
   119aa:	8b 45 a4 	movl	-92(%rbp), %eax
   119ad:	c1 e8 02 	shrl	$2, %eax
   119b0:	83 e0 01 	andl	$1, %eax
   119b3:	48 8b 55 e8 	movq	-24(%rbp), %rdx
   119b7:	48 8b 4d e0 	movq	-32(%rbp), %rcx
   119bb:	83 e0 01 	andl	$1, %eax
   119be:	8d 34 85 00 00 00 00 	leal	(,%rax,4), %esi
   119c5:	0f b6 04 ca 	movzbl	(%rdx,%rcx,8), %eax
   119c9:	83 e0 fb 	andl	$-5, %eax
   119cc:	09 f0 	orl	%esi, %eax
   119ce:	88 04 ca 	movb	%al, (%rdx,%rcx,8)
   119d1:	8b 45 a4 	movl	-92(%rbp), %eax
   119d4:	c1 e8 03 	shrl	$3, %eax
   119d7:	83 e0 01 	andl	$1, %eax
   119da:	48 8b 55 e8 	movq	-24(%rbp), %rdx
   119de:	48 8b 4d e0 	movq	-32(%rbp), %rcx
   119e2:	83 e0 01 	andl	$1, %eax
   119e5:	8d 34 c5 00 00 00 00 	leal	(,%rax,8), %esi
   119ec:	0f b6 04 ca 	movzbl	(%rdx,%rcx,8), %eax
   119f0:	83 e0 f7 	andl	$-9, %eax
   119f3:	09 f0 	orl	%esi, %eax
   119f5:	88 04 ca 	movb	%al, (%rdx,%rcx,8)
   119f8:	8b 45 a4 	movl	-92(%rbp), %eax
   119fb:	c1 e8 04 	shrl	$4, %eax
   119fe:	83 e0 01 	andl	$1, %eax
   11a01:	48 8b 55 e8 	movq	-24(%rbp), %rdx
   11a05:	48 8b 4d e0 	movq	-32(%rbp), %rcx
   11a09:	83 e0 01 	andl	$1, %eax
   11a0c:	c1 e0 04 	shll	$4, %eax
   11a0f:	89 c6 	movl	%eax, %esi
   11a11:	0f b6 04 ca 	movzbl	(%rdx,%rcx,8), %eax
   11a15:	83 e0 ef 	andl	$-17, %eax
   11a18:	09 f0 	orl	%esi, %eax
   11a1a:	88 04 ca 	movb	%al, (%rdx,%rcx,8)
   11a1d:	8b 45 a4 	movl	-92(%rbp), %eax
   11a20:	c1 e8 05 	shrl	$5, %eax
   11a23:	83 e0 01 	andl	$1, %eax
   11a26:	48 8b 55 e8 	movq	-24(%rbp), %rdx
   11a2a:	48 8b 4d e0 	movq	-32(%rbp), %rcx
   11a2e:	83 e0 01 	andl	$1, %eax
   11a31:	c1 e0 05 	shll	$5, %eax
   11a34:	89 c6 	movl	%eax, %esi
   11a36:	0f b6 04 ca 	movzbl	(%rdx,%rcx,8), %eax
   11a3a:	83 e0 df 	andl	$-33, %eax
   11a3d:	09 f0 	orl	%esi, %eax
   11a3f:	88 04 ca 	movb	%al, (%rdx,%rcx,8)
   11a42:	8b 45 a4 	movl	-92(%rbp), %eax
   11a45:	c1 e8 06 	shrl	$6, %eax
   11a48:	83 e0 01 	andl	$1, %eax
   11a4b:	48 8b 55 e8 	movq	-24(%rbp), %rdx
   11a4f:	48 8b 4d e0 	movq	-32(%rbp), %rcx
   11a53:	83 e0 01 	andl	$1, %eax
   11a56:	c1 e0 06 	shll	$6, %eax
   11a59:	89 c6 	movl	%eax, %esi
   11a5b:	0f b6 04 ca 	movzbl	(%rdx,%rcx,8), %eax
   11a5f:	83 e0 bf 	andl	$-65, %eax
   11a62:	09 f0 	orl	%esi, %eax
   11a64:	88 04 ca 	movb	%al, (%rdx,%rcx,8)
   11a67:	48 8b 45 e8 	movq	-24(%rbp), %rax
   11a6b:	48 8b 55 e0 	movq	-32(%rbp), %rdx
   11a6f:	0f b6 0c d0 	movzbl	(%rax,%rdx,8), %ecx
   11a73:	83 e1 7f 	andl	$127, %ecx
   11a76:	88 0c d0 	movb	%cl, (%rax,%rdx,8)
   11a79:	8b 45 a4 	movl	-92(%rbp), %eax
   11a7c:	c1 e8 08 	shrl	$8, %eax
   11a7f:	83 e0 01 	andl	$1, %eax
   11a82:	48 8b 55 e8 	movq	-24(%rbp), %rdx
   11a86:	48 8b 4d e0 	movq	-32(%rbp), %rcx
   11a8a:	83 e0 01 	andl	$1, %eax
   11a8d:	89 c6 	movl	%eax, %esi
   11a8f:	0f b6 44 ca 01 	movzbl	1(%rdx,%rcx,8), %eax
   11a94:	83 e0 fe 	andl	$-2, %eax
   11a97:	09 f0 	orl	%esi, %eax
   11a99:	88 44 ca 01 	movb	%al, 1(%rdx,%rcx,8)
   11a9d:	48 8b 45 e8 	movq	-24(%rbp), %rax
   11aa1:	48 8b 55 e0 	movq	-32(%rbp), %rdx
   11aa5:	0f b6 4c d0 06 	movzbl	6(%rax,%rdx,8), %ecx
   11aaa:	83 e1 0f 	andl	$15, %ecx
   11aad:	88 4c d0 06 	movb	%cl, 6(%rax,%rdx,8)
   11ab1:	0f b6 4c d0 07 	movzbl	7(%rax,%rdx,8), %ecx
   11ab6:	83 e1 f8 	andl	$-8, %ecx
   11ab9:	88 4c d0 07 	movb	%cl, 7(%rax,%rdx,8)
   11abd:	48 8b 45 b0 	movq	-80(%rbp), %rax
   11ac1:	48 c1 e8 0c 	shrq	$12, %rax
   11ac5:	89 c1 	movl	%eax, %ecx
   11ac7:	81 e1 ff ff ff 0f 	andl	$268435455, %ecx
   11acd:	48 8b 45 e8 	movq	-24(%rbp), %rax
   11ad1:	48 8b 55 e0 	movq	-32(%rbp), %rdx
   11ad5:	89 ce 	movl	%ecx, %esi
   11ad7:	83 e6 0f 	andl	$15, %esi
   11ada:	89 f7 	movl	%esi, %edi
   11adc:	c1 e7 04 	shll	$4, %edi
   11adf:	0f b6 74 d0 01 	movzbl	1(%rax,%rdx,8), %esi
   11ae4:	83 e6 0f 	andl	$15, %esi
   11ae7:	09 fe 	orl	%edi, %esi
   11ae9:	40 88 74 d0 01 	movb	%sil, 1(%rax,%rdx,8)
   11aee:	89 ce 	movl	%ecx, %esi
   11af0:	c1 ee 04 	shrl	$4, %esi
   11af3:	89 f6 	movl	%esi, %esi
   11af5:	40 0f b6 fe 	movzbl	%sil, %edi
   11af9:	0f b6 74 d0 02 	movzbl	2(%rax,%rdx,8), %esi
   11afe:	83 e6 00 	andl	$0, %esi
   11b01:	09 fe 	orl	%edi, %esi
   11b03:	40 88 74 d0 02 	movb	%sil, 2(%rax,%rdx,8)
   11b08:	89 ce 	movl	%ecx, %esi
   11b0a:	c1 ee 0c 	shrl	$12, %esi
   11b0d:	89 f6 	movl	%esi, %esi
   11b0f:	40 0f b6 fe 	movzbl	%sil, %edi
   11b13:	0f b6 74 d0 03 	movzbl	3(%rax,%rdx,8), %esi
   11b18:	83 e6 00 	andl	$0, %esi
   11b1b:	09 fe 	orl	%edi, %esi
   11b1d:	40 88 74 d0 03 	movb	%sil, 3(%rax,%rdx,8)
   11b22:	c1 e9 14 	shrl	$20, %ecx
   11b25:	89 c9 	movl	%ecx, %ecx
   11b27:	0f b6 f1 	movzbl	%cl, %esi
   11b2a:	0f b6 4c d0 04 	movzbl	4(%rax,%rdx,8), %ecx
   11b2f:	83 e1 00 	andl	$0, %ecx
   11b32:	09 f1 	orl	%esi, %ecx
   11b34:	88 4c d0 04 	movb	%cl, 4(%rax,%rdx,8)
   11b38:	48 8b 45 e8 	movq	-24(%rbp), %rax
   11b3c:	48 8b 55 e0 	movq	-32(%rbp), %rdx
   11b40:	0f b6 4c d0 01 	movzbl	1(%rax,%rdx,8), %ecx
   11b45:	c0 e9 04 	shrb	$4, %cl
   11b48:	0f b6 f1 	movzbl	%cl, %esi
   11b4b:	0f b6 4c d0 02 	movzbl	2(%rax,%rdx,8), %ecx
   11b50:	48 c1 e1 04 	shlq	$4, %rcx
   11b54:	48 09 ce 	orq	%rcx, %rsi
   11b57:	0f b6 4c d0 03 	movzbl	3(%rax,%rdx,8), %ecx
   11b5c:	48 c1 e1 0c 	shlq	$12, %rcx
   11b60:	48 09 f1 	orq	%rsi, %rcx
   11b63:	0f b6 44 d0 04 	movzbl	4(%rax,%rdx,8), %eax
   11b68:	48 c1 e0 14 	shlq	$20, %rax
   11b6c:	48 09 c8 	orq	%rcx, %rax
   11b6f:	89 c0 	movl	%eax, %eax
   11b71:	48 c1 e0 0c 	shlq	$12, %rax
   11b75:	48 89 c7 	movq	%rax, %rdi
   11b78:	b8 00 00 00 00 	movl	$0, %eax
   11b7d:	e8 52 01 00 00 	callq	338 <__native_flush_tlb_single>
   11b82:	90 	nop
   11b83:	c9 	leave
   11b84:	c3 	retq

getPhysicalAddress:
   11b85:	55 	pushq	%rbp
   11b86:	48 89 e5 	movq	%rsp, %rbp
   11b89:	48 89 7d b8 	movq	%rdi, -72(%rbp)
   11b8d:	48 89 75 b0 	movq	%rsi, -80(%rbp)
   11b91:	48 c1 6d b0 0c 	shrq	$12, -80(%rbp)
   11b96:	48 8b 45 b0 	movq	-80(%rbp), %rax
   11b9a:	25 ff 01 00 00 	andl	$511, %eax
   11b9f:	48 89 45 f8 	movq	%rax, -8(%rbp)
   11ba3:	48 c1 6d b0 09 	shrq	$9, -80(%rbp)
   11ba8:	48 8b 45 b0 	movq	-80(%rbp), %rax
   11bac:	25 ff 01 00 00 	andl	$511, %eax
   11bb1:	48 89 45 f0 	movq	%rax, -16(%rbp)
   11bb5:	48 c1 6d b0 09 	shrq	$9, -80(%rbp)
   11bba:	48 8b 45 b0 	movq	-80(%rbp), %rax
   11bbe:	25 ff 01 00 00 	andl	$511, %eax
   11bc3:	48 89 45 e8 	movq	%rax, -24(%rbp)
   11bc7:	48 c1 6d b0 09 	shrq	$9, -80(%rbp)
   11bcc:	48 8b 45 b0 	movq	-80(%rbp), %rax
   11bd0:	25 ff 01 00 00 	andl	$511, %eax
   11bd5:	48 89 45 e0 	movq	%rax, -32(%rbp)
   11bd9:	48 8b 45 b8 	movq	-72(%rbp), %rax
   11bdd:	48 8b 55 e0 	movq	-32(%rbp), %rdx
   11be1:	0f b6 4c d0 01 	movzbl	1(%rax,%rdx,8), %ecx
   11be6:	c0 e9 04 	shrb	$4, %cl
   11be9:	0f b6 f1 	movzbl	%cl, %esi
   11bec:	0f b6 4c d0 02 	movzbl	2(%rax,%rdx,8), %ecx
   11bf1:	48 c1 e1 04 	shlq	$4, %rcx
   11bf5:	48 09 ce 	orq	%rcx, %rsi
   11bf8:	0f b6 4c d0 03 	movzbl	3(%rax,%rdx,8), %ecx
   11bfd:	48 c1 e1 0c 	shlq	$12, %rcx
   11c01:	48 09 f1 	orq	%rsi, %rcx
   11c04:	0f b6 44 d0 04 	movzbl	4(%rax,%rdx,8), %eax
   11c09:	48 c1 e0 14 	shlq	$20, %rax
   11c0d:	48 09 c8 	orq	%rcx, %rax
   11c10:	c1 e0 0c 	shll	$12, %eax
   11c13:	48 98 	cltq
   11c15:	48 89 45 d8 	movq	%rax, -40(%rbp)
   11c19:	48 8b 45 d8 	movq	-40(%rbp), %rax
   11c1d:	48 8b 55 e8 	movq	-24(%rbp), %rdx
   11c21:	0f b6 4c d0 01 	movzbl	1(%rax,%rdx,8), %ecx
   11c26:	c0 e9 04 	shrb	$4, %cl
   11c29:	0f b6 f1 	movzbl	%cl, %esi
   11c2c:	0f b6 4c d0 02 	movzbl	2(%rax,%rdx,8), %ecx
   11c31:	48 c1 e1 04 	shlq	$4, %rcx
   11c35:	48 09 ce 	orq	%rcx, %rsi
   11c38:	0f b6 4c d0 03 	movzbl	3(%rax,%rdx,8), %ecx
   11c3d:	48 c1 e1 0c 	shlq	$12, %rcx
   11c41:	48 09 f1 	orq	%rsi, %rcx
   11c44:	0f b6 44 d0 04 	movzbl	4(%rax,%rdx,8), %eax
   11c49:	48 c1 e0 14 	shlq	$20, %rax
   11c4d:	48 09 c8 	orq	%rcx, %rax
   11c50:	c1 e0 0c 	shll	$12, %eax
   11c53:	48 98 	cltq
   11c55:	48 89 45 d0 	movq	%rax, -48(%rbp)
   11c59:	48 8b 45 d0 	movq	-48(%rbp), %rax
   11c5d:	48 8b 55 f0 	movq	-16(%rbp), %rdx
   11c61:	0f b6 4c d0 01 	movzbl	1(%rax,%rdx,8), %ecx
   11c66:	c0 e9 04 	shrb	$4, %cl
   11c69:	0f b6 f1 	movzbl	%cl, %esi
   11c6c:	0f b6 4c d0 02 	movzbl	2(%rax,%rdx,8), %ecx
   11c71:	48 c1 e1 04 	shlq	$4, %rcx
   11c75:	48 09 ce 	orq	%rcx, %rsi
   11c78:	0f b6 4c d0 03 	movzbl	3(%rax,%rdx,8), %ecx
   11c7d:	48 c1 e1 0c 	shlq	$12, %rcx
   11c81:	48 09 f1 	orq	%rsi, %rcx
   11c84:	0f b6 44 d0 04 	movzbl	4(%rax,%rdx,8), %eax
   11c89:	48 c1 e0 14 	shlq	$20, %rax
   11c8d:	48 09 c8 	orq	%rcx, %rax
   11c90:	c1 e0 0c 	shll	$12, %eax
   11c93:	48 98 	cltq
   11c95:	48 89 45 c8 	movq	%rax, -56(%rbp)
   11c99:	48 8b 45 c8 	movq	-56(%rbp), %rax
   11c9d:	48 8b 55 f8 	movq	-8(%rbp), %rdx
   11ca1:	0f b6 4c d0 01 	movzbl	1(%rax,%rdx,8), %ecx
   11ca6:	c0 e9 04 	shrb	$4, %cl
   11ca9:	0f b6 f1 	movzbl	%cl, %esi
   11cac:	0f b6 4c d0 02 	movzbl	2(%rax,%rdx,8), %ecx
   11cb1:	48 c1 e1 04 	shlq	$4, %rcx
   11cb5:	48 09 ce 	orq	%rcx, %rsi
   11cb8:	0f b6 4c d0 03 	movzbl	3(%rax,%rdx,8), %ecx
   11cbd:	48 c1 e1 0c 	shlq	$12, %rcx
   11cc1:	48 09 f1 	orq	%rsi, %rcx
   11cc4:	0f b6 44 d0 04 	movzbl	4(%rax,%rdx,8), %eax
   11cc9:	48 c1 e0 14 	shlq	$20, %rax
   11ccd:	48 09 c8 	orq	%rcx, %rax
   11cd0:	89 c0 	movl	%eax, %eax
   11cd2:	5d 	popq	%rbp
   11cd3:	c3 	retq

__native_flush_tlb_single:
   11cd4:	55 	pushq	%rbp
   11cd5:	48 89 e5 	movq	%rsp, %rbp
   11cd8:	48 89 7d f8 	movq	%rdi, -8(%rbp)
   11cdc:	48 8b 45 f8 	movq	-8(%rbp), %rax
   11ce0:	0f 01 38 	invlpg	(%rax)
   11ce3:	90 	nop
   11ce4:	5d 	popq	%rbp
   11ce5:	c3 	retq

setAsCurrentPML4:
   11ce6:	55 	pushq	%rbp
   11ce7:	48 89 e5 	movq	%rsp, %rbp
   11cea:	48 89 7d f8 	movq	%rdi, -8(%rbp)
   11cee:	48 8b 45 f8 	movq	-8(%rbp), %rax
   11cf2:	48 89 05 4f 51 00 00 	movq	%rax, 20815(%rip)
   11cf9:	90 	nop
   11cfa:	5d 	popq	%rbp
   11cfb:	c3 	retq

getCurrentPML4:
   11cfc:	55 	pushq	%rbp
   11cfd:	48 89 e5 	movq	%rsp, %rbp
   11d00:	48 8b 05 41 51 00 00 	movq	20801(%rip), %rax
   11d07:	5d 	popq	%rbp
   11d08:	c3 	retq

loadCurrentPML4:
   11d09:	55 	pushq	%rbp
   11d0a:	48 89 e5 	movq	%rsp, %rbp
   11d0d:	48 89 7d f8 	movq	%rdi, -8(%rbp)
   11d11:	48 8b 45 f8 	movq	-8(%rbp), %rax
   11d15:	0f 22 d8 	movq	%rax, %cr3
   11d18:	90 	nop
   11d19:	5d 	popq	%rbp
   11d1a:	c3 	retq
   11d1b:	0f 1f 44 00 00 	nopl	(%rax,%rax)

enablePaging:
   11d20:	55 	pushq	%rbp
   11d21:	48 89 e5 	movq	%rsp, %rbp
   11d24:	48 8b 07 	movq	(%rdi), %rax
   11d27:	0f 22 d8 	movq	%rax, %cr3
   11d2a:	0f 20 c0 	movq	%cr0, %rax
   11d2d:	48 0d 01 00 00 80 	orq	$-2147483647, %rax
   11d33:	0f 22 c0 	movq	%rax, %cr0
   11d36:	48 89 ec 	movq	%rbp, %rsp
   11d39:	5d 	popq	%rbp
   11d3a:	c3 	retq

initHeap:
   11d3b:	55 	pushq	%rbp
   11d3c:	48 89 e5 	movq	%rsp, %rbp
   11d3f:	53 	pushq	%rbx
   11d40:	48 83 ec 38 	subq	$56, %rsp
   11d44:	48 89 7d c8 	movq	%rdi, -56(%rbp)
   11d48:	48 89 75 c0 	movq	%rsi, -64(%rbp)
   11d4c:	c7 45 ec 00 00 00 00 	movl	$0, -20(%rbp)
   11d53:	eb 39 	jmp	57 <initHeap+0x53>
   11d55:	8b 45 ec 	movl	-20(%rbp), %eax
   11d58:	c1 e0 0c 	shll	$12, %eax
   11d5b:	48 63 d0 	movslq	%eax, %rdx
   11d5e:	48 8b 45 c8 	movq	-56(%rbp), %rax
   11d62:	48 8d 1c 02 	leaq	(%rdx,%rax), %rbx
   11d66:	b8 00 00 00 00 	movl	$0, %eax
   11d6b:	e8 a2 f4 ff ff 	callq	-2910 <RequestPhysicalPage>
   11d70:	48 89 c6 	movq	%rax, %rsi
   11d73:	48 8b 05 ce 50 00 00 	movq	20686(%rip), %rax
   11d7a:	b9 03 00 00 00 	movl	$3, %ecx
   11d7f:	48 89 da 	movq	%rbx, %rdx
   11d82:	48 89 c7 	movq	%rax, %rdi
   11d85:	e8 2c f8 ff ff 	callq	-2004 <mapPhysicalToVirtualAddr>
   11d8a:	83 45 ec 01 	addl	$1, -20(%rbp)
   11d8e:	8b 45 ec 	movl	-20(%rbp), %eax
   11d91:	48 98 	cltq
   11d93:	48 39 45 c0 	cmpq	%rax, -64(%rbp)
   11d97:	77 bc 	ja	-68 <initHeap+0x1a>
   11d99:	48 8b 45 c8 	movq	-56(%rbp), %rax
   11d9d:	48 89 45 e0 	movq	%rax, -32(%rbp)
   11da1:	48 8b 45 c0 	movq	-64(%rbp), %rax
   11da5:	48 c1 e0 0c 	shlq	$12, %rax
   11da9:	48 89 c2 	movq	%rax, %rdx
   11dac:	48 8b 45 e0 	movq	-32(%rbp), %rax
   11db0:	48 89 50 10 	movq	%rdx, 16(%rax)
   11db4:	48 8b 45 c0 	movq	-64(%rbp), %rax
   11db8:	48 c1 e0 0c 	shlq	$12, %rax
   11dbc:	48 8d 50 f8 	leaq	-8(%rax), %rdx
   11dc0:	48 8b 45 e0 	movq	-32(%rbp), %rax
   11dc4:	48 89 50 08 	movq	%rdx, 8(%rax)
   11dc8:	48 8b 45 c8 	movq	-56(%rbp), %rax
   11dcc:	48 83 c0 18 	addq	$24, %rax
   11dd0:	48 89 45 d8 	movq	%rax, -40(%rbp)
   11dd4:	48 8b 45 d8 	movq	-40(%rbp), %rax
   11dd8:	c6 00 03 	movb	$3, (%rax)
   11ddb:	48 8b 45 d8 	movq	-40(%rbp), %rax
   11ddf:	c7 40 01 00 00 00 00 	movl	$0, 1(%rax)
   11de6:	48 8b 45 d8 	movq	-40(%rbp), %rax
   11dea:	48 c7 40 05 00 00 00 00 	movq	$0, 5(%rax)
   11df2:	48 8b 45 e0 	movq	-32(%rbp), %rax
   11df6:	48 8b 55 d8 	movq	-40(%rbp), %rdx
   11dfa:	48 89 10 	movq	%rdx, (%rax)
   11dfd:	48 8b 45 e0 	movq	-32(%rbp), %rax
   11e01:	48 89 05 48 50 00 00 	movq	%rax, 20552(%rip)
   11e08:	90 	nop
   11e09:	48 8b 5d f8 	movq	-8(%rbp), %rbx
   11e0d:	c9 	leave
   11e0e:	c3 	retq

expandHeap:
   11e0f:	55 	pushq	%rbp
   11e10:	48 89 e5 	movq	%rsp, %rbp
   11e13:	48 83 ec 20 	subq	$32, %rsp
   11e17:	48 89 7d e8 	movq	%rdi, -24(%rbp)
   11e1b:	89 75 e4 	movl	%esi, -28(%rbp)
   11e1e:	48 8b 45 e8 	movq	-24(%rbp), %rax
   11e22:	48 8b 08 	movq	(%rax), %rcx
   11e25:	48 8b 45 e8 	movq	-24(%rbp), %rax
   11e29:	48 8b 50 10 	movq	16(%rax), %rdx
   11e2d:	48 89 d0 	movq	%rdx, %rax
   11e30:	48 01 c0 	addq	%rax, %rax
   11e33:	48 01 d0 	addq	%rdx, %rax
   11e36:	48 c1 e0 02 	shlq	$2, %rax
   11e3a:	48 01 d0 	addq	%rdx, %rax
   11e3d:	48 01 c8 	addq	%rcx, %rax
   11e40:	48 89 45 f8 	movq	%rax, -8(%rbp)
   11e44:	b8 00 00 00 00 	movl	$0, %eax
   11e49:	e8 c4 f3 ff ff 	callq	-3132 <RequestPhysicalPage>
   11e4e:	48 89 c6 	movq	%rax, %rsi
   11e51:	48 8b 05 f0 4f 00 00 	movq	20464(%rip), %rax
   11e58:	48 8b 55 f8 	movq	-8(%rbp), %rdx
   11e5c:	b9 03 00 00 00 	movl	$3, %ecx
   11e61:	48 89 c7 	movq	%rax, %rdi
   11e64:	e8 4d f7 ff ff 	callq	-2227 <mapPhysicalToVirtualAddr>
   11e69:	48 8b 45 e8 	movq	-24(%rbp), %rax
   11e6d:	48 8b 40 10 	movq	16(%rax), %rax
   11e71:	48 8d 90 00 10 00 00 	leaq	4096(%rax), %rdx
   11e78:	48 8b 45 e8 	movq	-24(%rbp), %rax
   11e7c:	48 89 50 10 	movq	%rdx, 16(%rax)
   11e80:	90 	nop
   11e81:	c9 	leave
   11e82:	c3 	retq

kmalloc:
   11e83:	55 	pushq	%rbp
   11e84:	48 89 e5 	movq	%rsp, %rbp
   11e87:	48 83 ec 40 	subq	$64, %rsp
   11e8b:	48 89 7d c8 	movq	%rdi, -56(%rbp)
   11e8f:	48 8b 05 ba 4f 00 00 	movq	20410(%rip), %rax
   11e96:	48 85 c0 	testq	%rax, %rax
   11e99:	75 0a 	jne	10 <kmalloc+0x22>
   11e9b:	b8 00 00 00 00 	movl	$0, %eax
   11ea0:	e9 d7 02 00 00 	jmp	727 <kmalloc+0x2f9>
   11ea5:	48 8b 05 a4 4f 00 00 	movq	20388(%rip), %rax
   11eac:	48 8b 00 	movq	(%rax), %rax
   11eaf:	48 89 45 f8 	movq	%rax, -8(%rbp)
   11eb3:	e9 b4 02 00 00 	jmp	692 <kmalloc+0x2e9>
   11eb8:	48 8b 45 f8 	movq	-8(%rbp), %rax
   11ebc:	0f b6 00 	movzbl	(%rax), %eax
   11ebf:	0f b6 c0 	movzbl	%al, %eax
   11ec2:	83 e0 01 	andl	$1, %eax
   11ec5:	85 c0 	testl	%eax, %eax
   11ec7:	0f 84 75 01 00 00 	je	373 <kmalloc+0x1bf>
   11ecd:	48 8b 45 f8 	movq	-8(%rbp), %rax
   11ed1:	48 8b 40 05 	movq	5(%rax), %rax
   11ed5:	48 85 c0 	testq	%rax, %rax
   11ed8:	0f 85 7e 02 00 00 	jne	638 <kmalloc+0x2d9>
   11ede:	48 8b 45 c8 	movq	-56(%rbp), %rax
   11ee2:	48 83 c0 0d 	addq	$13, %rax
   11ee6:	48 89 45 e0 	movq	%rax, -32(%rbp)
   11eea:	48 8b 05 5f 4f 00 00 	movq	20319(%rip), %rax
   11ef1:	48 8b 40 08 	movq	8(%rax), %rax
   11ef5:	48 39 45 e0 	cmpq	%rax, -32(%rbp)
   11ef9:	0f 87 88 00 00 00 	ja	136 <kmalloc+0x104>
   11eff:	48 8b 05 4a 4f 00 00 	movq	20298(%rip), %rax
   11f06:	48 8b 50 08 	movq	8(%rax), %rdx
   11f0a:	48 8b 05 3f 4f 00 00 	movq	20287(%rip), %rax
   11f11:	48 2b 55 e0 	subq	-32(%rbp), %rdx
   11f15:	48 89 50 08 	movq	%rdx, 8(%rax)
   11f19:	48 8b 45 f8 	movq	-8(%rbp), %rax
   11f1d:	8b 40 01 	movl	1(%rax), %eax
   11f20:	89 c2 	movl	%eax, %edx
   11f22:	48 8b 45 f8 	movq	-8(%rbp), %rax
   11f26:	48 01 d0 	addq	%rdx, %rax
   11f29:	48 83 c0 0d 	addq	$13, %rax
   11f2d:	48 89 45 d0 	movq	%rax, -48(%rbp)
   11f31:	48 8b 45 c8 	movq	-56(%rbp), %rax
   11f35:	89 c2 	movl	%eax, %edx
   11f37:	48 8b 45 d0 	movq	-48(%rbp), %rax
   11f3b:	89 50 01 	movl	%edx, 1(%rax)
   11f3e:	48 8b 45 d0 	movq	-48(%rbp), %rax
   11f42:	0f b6 00 	movzbl	(%rax), %eax
   11f45:	83 c8 01 	orl	$1, %eax
   11f48:	89 c2 	movl	%eax, %edx
   11f4a:	48 8b 45 d0 	movq	-48(%rbp), %rax
   11f4e:	88 10 	movb	%dl, (%rax)
   11f50:	48 8b 45 d0 	movq	-48(%rbp), %rax
   11f54:	8b 40 01 	movl	1(%rax), %eax
   11f57:	89 c2 	movl	%eax, %edx
   11f59:	48 8b 45 d0 	movq	-48(%rbp), %rax
   11f5d:	48 83 c0 0d 	addq	$13, %rax
   11f61:	be 00 00 00 00 	movl	$0, %esi
   11f66:	48 89 c7 	movq	%rax, %rdi
   11f69:	e8 a8 e9 ff ff 	callq	-5720 <memset>
   11f6e:	48 8b 45 f8 	movq	-8(%rbp), %rax
   11f72:	48 8b 55 d0 	movq	-48(%rbp), %rdx
   11f76:	48 89 50 05 	movq	%rdx, 5(%rax)
   11f7a:	48 8b 45 d0 	movq	-48(%rbp), %rax
   11f7e:	48 83 c0 0d 	addq	$13, %rax
   11f82:	e9 f5 01 00 00 	jmp	501 <kmalloc+0x2f9>
   11f87:	c7 45 f4 00 00 00 00 	movl	$0, -12(%rbp)
   11f8e:	eb 18 	jmp	24 <kmalloc+0x125>
   11f90:	48 8b 05 b9 4e 00 00 	movq	20153(%rip), %rax
   11f97:	be 01 00 00 00 	movl	$1, %esi
   11f9c:	48 89 c7 	movq	%rax, %rdi
   11f9f:	e8 6b fe ff ff 	callq	-405 <expandHeap>
   11fa4:	83 45 f4 01 	addl	$1, -12(%rbp)
   11fa8:	8b 45 f4 	movl	-12(%rbp), %eax
   11fab:	48 98 	cltq
   11fad:	48 8b 55 e0 	movq	-32(%rbp), %rdx
   11fb1:	48 c1 ea 0c 	shrq	$12, %rdx
   11fb5:	48 39 d0 	cmpq	%rdx, %rax
   11fb8:	72 d6 	jb	-42 <kmalloc+0x10d>
   11fba:	48 8b 05 8f 4e 00 00 	movq	20111(%rip), %rax
   11fc1:	48 8b 50 08 	movq	8(%rax), %rdx
   11fc5:	48 8b 05 84 4e 00 00 	movq	20100(%rip), %rax
   11fcc:	48 2b 55 e0 	subq	-32(%rbp), %rdx
   11fd0:	48 89 50 08 	movq	%rdx, 8(%rax)
   11fd4:	48 8b 45 f8 	movq	-8(%rbp), %rax
   11fd8:	8b 40 01 	movl	1(%rax), %eax
   11fdb:	89 c2 	movl	%eax, %edx
   11fdd:	48 8b 45 f8 	movq	-8(%rbp), %rax
   11fe1:	48 01 d0 	addq	%rdx, %rax
   11fe4:	48 83 c0 0d 	addq	$13, %rax
   11fe8:	48 89 45 d8 	movq	%rax, -40(%rbp)
   11fec:	48 8b 45 c8 	movq	-56(%rbp), %rax
   11ff0:	89 c2 	movl	%eax, %edx
   11ff2:	48 8b 45 d8 	movq	-40(%rbp), %rax
   11ff6:	89 50 01 	movl	%edx, 1(%rax)
   11ff9:	48 8b 45 d8 	movq	-40(%rbp), %rax
   11ffd:	0f b6 00 	movzbl	(%rax), %eax
   12000:	83 c8 01 	orl	$1, %eax
   12003:	89 c2 	movl	%eax, %edx
   12005:	48 8b 45 d8 	movq	-40(%rbp), %rax
   12009:	88 10 	movb	%dl, (%rax)
   1200b:	48 8b 45 d8 	movq	-40(%rbp), %rax
   1200f:	8b 40 01 	movl	1(%rax), %eax
   12012:	89 c2 	movl	%eax, %edx
   12014:	48 8b 45 d8 	movq	-40(%rbp), %rax
   12018:	48 83 c0 0d 	addq	$13, %rax
   1201c:	be 00 00 00 00 	movl	$0, %esi
   12021:	48 89 c7 	movq	%rax, %rdi
   12024:	e8 ed e8 ff ff 	callq	-5907 <memset>
   12029:	48 8b 45 f8 	movq	-8(%rbp), %rax
   1202d:	48 8b 55 d8 	movq	-40(%rbp), %rdx
   12031:	48 89 50 05 	movq	%rdx, 5(%rax)
   12035:	48 8b 45 d8 	movq	-40(%rbp), %rax
   12039:	48 83 c0 0d 	addq	$13, %rax
   1203d:	e9 3a 01 00 00 	jmp	314 <kmalloc+0x2f9>
   12042:	48 8b 45 f8 	movq	-8(%rbp), %rax
   12046:	8b 40 01 	movl	1(%rax), %eax
   12049:	89 c0 	movl	%eax, %eax
   1204b:	48 39 45 c8 	cmpq	%rax, -56(%rbp)
   1204f:	75 3d 	jne	61 <kmalloc+0x20b>
   12051:	48 8b 45 f8 	movq	-8(%rbp), %rax
   12055:	0f b6 00 	movzbl	(%rax), %eax
   12058:	83 c8 01 	orl	$1, %eax
   1205b:	89 c2 	movl	%eax, %edx
   1205d:	48 8b 45 f8 	movq	-8(%rbp), %rax
   12061:	88 10 	movb	%dl, (%rax)
   12063:	48 8b 45 f8 	movq	-8(%rbp), %rax
   12067:	8b 40 01 	movl	1(%rax), %eax
   1206a:	89 c2 	movl	%eax, %edx
   1206c:	48 8b 45 f8 	movq	-8(%rbp), %rax
   12070:	48 83 c0 0d 	addq	$13, %rax
   12074:	be 00 00 00 00 	movl	$0, %esi
   12079:	48 89 c7 	movq	%rax, %rdi
   1207c:	e8 95 e8 ff ff 	callq	-5995 <memset>
   12081:	48 8b 45 f8 	movq	-8(%rbp), %rax
   12085:	48 83 c0 0d 	addq	$13, %rax
   12089:	e9 ee 00 00 00 	jmp	238 <kmalloc+0x2f9>
   1208e:	48 8b 45 f8 	movq	-8(%rbp), %rax
   12092:	8b 40 01 	movl	1(%rax), %eax
   12095:	89 c2 	movl	%eax, %edx
   12097:	48 8b 45 c8 	movq	-56(%rbp), %rax
   1209b:	48 83 c0 0e 	addq	$14, %rax
   1209f:	48 39 c2 	cmpq	%rax, %rdx
   120a2:	0f 82 b7 00 00 00 	jb	183 <kmalloc+0x2dc>
   120a8:	48 8b 55 f8 	movq	-8(%rbp), %rdx
   120ac:	48 8b 45 c8 	movq	-56(%rbp), %rax
   120b0:	48 01 d0 	addq	%rdx, %rax
   120b3:	48 83 c0 0d 	addq	$13, %rax
   120b7:	48 89 45 e8 	movq	%rax, -24(%rbp)
   120bb:	48 8b 45 e8 	movq	-24(%rbp), %rax
   120bf:	c6 00 00 	movb	$0, (%rax)
   120c2:	48 8b 45 f8 	movq	-8(%rbp), %rax
   120c6:	8b 40 01 	movl	1(%rax), %eax
   120c9:	48 8b 55 c8 	movq	-56(%rbp), %rdx
   120cd:	29 d0 	subl	%edx, %eax
   120cf:	8d 50 f3 	leal	-13(%rax), %edx
   120d2:	48 8b 45 e8 	movq	-24(%rbp), %rax
   120d6:	89 50 01 	movl	%edx, 1(%rax)
   120d9:	48 8b 45 f8 	movq	-8(%rbp), %rax
   120dd:	48 8b 50 05 	movq	5(%rax), %rdx
   120e1:	48 8b 45 e8 	movq	-24(%rbp), %rax
   120e5:	48 89 50 05 	movq	%rdx, 5(%rax)
   120e9:	48 8b 45 f8 	movq	-8(%rbp), %rax
   120ed:	48 8b 55 e8 	movq	-24(%rbp), %rdx
   120f1:	48 89 50 05 	movq	%rdx, 5(%rax)
   120f5:	48 8b 45 c8 	movq	-56(%rbp), %rax
   120f9:	89 c2 	movl	%eax, %edx
   120fb:	48 8b 45 f8 	movq	-8(%rbp), %rax
   120ff:	89 50 01 	movl	%edx, 1(%rax)
   12102:	48 8b 45 f8 	movq	-8(%rbp), %rax
   12106:	0f b6 00 	movzbl	(%rax), %eax
   12109:	83 c8 01 	orl	$1, %eax
   1210c:	89 c2 	movl	%eax, %edx
   1210e:	48 8b 45 f8 	movq	-8(%rbp), %rax
   12112:	88 10 	movb	%dl, (%rax)
   12114:	48 8b 45 e8 	movq	-24(%rbp), %rax
   12118:	8b 40 01 	movl	1(%rax), %eax
   1211b:	89 c2 	movl	%eax, %edx
   1211d:	48 8b 45 e8 	movq	-24(%rbp), %rax
   12121:	48 83 c0 0d 	addq	$13, %rax
   12125:	be 00 00 00 00 	movl	$0, %esi
   1212a:	48 89 c7 	movq	%rax, %rdi
   1212d:	e8 e4 e7 ff ff 	callq	-6172 <memset>
   12132:	48 8b 45 f8 	movq	-8(%rbp), %rax
   12136:	8b 40 01 	movl	1(%rax), %eax
   12139:	89 c2 	movl	%eax, %edx
   1213b:	48 8b 45 f8 	movq	-8(%rbp), %rax
   1213f:	48 05 a9 00 00 00 	addq	$169, %rax
   12145:	be 00 00 00 00 	movl	$0, %esi
   1214a:	48 89 c7 	movq	%rax, %rdi
   1214d:	e8 c4 e7 ff ff 	callq	-6204 <memset>
   12152:	48 8b 45 e8 	movq	-24(%rbp), %rax
   12156:	48 83 c0 0d 	addq	$13, %rax
   1215a:	eb 20 	jmp	32 <kmalloc+0x2f9>
   1215c:	90 	nop
   1215d:	eb 01 	jmp	1 <kmalloc+0x2dd>
   1215f:	90 	nop
   12160:	48 8b 45 f8 	movq	-8(%rbp), %rax
   12164:	48 8b 40 05 	movq	5(%rax), %rax
   12168:	48 89 45 f8 	movq	%rax, -8(%rbp)
   1216c:	48 83 7d f8 00 	cmpq	$0, -8(%rbp)
   12171:	0f 85 41 fd ff ff 	jne	-703 <kmalloc+0x35>
   12177:	b8 00 00 00 00 	movl	$0, %eax
   1217c:	c9 	leave
   1217d:	c3 	retq

kfree:
   1217e:	55 	pushq	%rbp
   1217f:	48 89 e5 	movq	%rsp, %rbp
   12182:	48 83 ec 30 	subq	$48, %rsp
   12186:	48 89 7d d8 	movq	%rdi, -40(%rbp)
   1218a:	48 8b 05 bf 4c 00 00 	movq	19647(%rip), %rax
   12191:	48 85 c0 	testq	%rax, %rax
   12194:	0f 84 d3 01 00 00 	je	467 <kfree+0x1ef>
   1219a:	48 83 7d d8 00 	cmpq	$0, -40(%rbp)
   1219f:	0f 84 c8 01 00 00 	je	456 <kfree+0x1ef>
   121a5:	c7 45 ec 01 00 00 00 	movl	$1, -20(%rbp)
   121ac:	c7 45 e8 01 00 00 00 	movl	$1, -24(%rbp)
   121b3:	48 8b 05 96 4c 00 00 	movq	19606(%rip), %rax
   121ba:	48 8b 00 	movq	(%rax), %rax
   121bd:	48 89 45 f0 	movq	%rax, -16(%rbp)
   121c1:	e9 9a 01 00 00 	jmp	410 <kfree+0x1e2>
   121c6:	48 8b 45 f0 	movq	-16(%rbp), %rax
   121ca:	0f b6 00 	movzbl	(%rax), %eax
   121cd:	0f b6 c0 	movzbl	%al, %eax
   121d0:	83 e0 01 	andl	$1, %eax
   121d3:	85 c0 	testl	%eax, %eax
   121d5:	0f 84 78 01 00 00 	je	376 <kfree+0x1d5>
   121db:	48 8b 45 f0 	movq	-16(%rbp), %rax
   121df:	48 05 a9 00 00 00 	addq	$169, %rax
   121e5:	48 39 45 d8 	cmpq	%rax, -40(%rbp)
   121e9:	0f 85 64 01 00 00 	jne	356 <kfree+0x1d5>
   121ef:	83 7d ec 00 	cmpl	$0, -20(%rbp)
   121f3:	75 74 	jne	116 <kfree+0xeb>
   121f5:	83 7d e8 00 	cmpl	$0, -24(%rbp)
   121f9:	75 6e 	jne	110 <kfree+0xeb>
   121fb:	48 8b 45 f8 	movq	-8(%rbp), %rax
   121ff:	8b 50 01 	movl	1(%rax), %edx
   12202:	48 8b 45 f0 	movq	-16(%rbp), %rax
   12206:	8b 48 01 	movl	1(%rax), %ecx
   12209:	48 8b 45 f0 	movq	-16(%rbp), %rax
   1220d:	48 8b 40 05 	movq	5(%rax), %rax
   12211:	8b 40 01 	movl	1(%rax), %eax
   12214:	01 c8 	addl	%ecx, %eax
   12216:	01 d0 	addl	%edx, %eax
   12218:	8d 50 1a 	leal	26(%rax), %edx
   1221b:	48 8b 45 f8 	movq	-8(%rbp), %rax
   1221f:	89 50 01 	movl	%edx, 1(%rax)
   12222:	48 8b 45 f0 	movq	-16(%rbp), %rax
   12226:	48 8b 40 05 	movq	5(%rax), %rax
   1222a:	48 8b 50 05 	movq	5(%rax), %rdx
   1222e:	48 8b 45 f8 	movq	-8(%rbp), %rax
   12232:	48 89 50 05 	movq	%rdx, 5(%rax)
   12236:	48 8b 45 f0 	movq	-16(%rbp), %rax
   1223a:	8b 40 01 	movl	1(%rax), %eax
   1223d:	89 c2 	movl	%eax, %edx
   1223f:	48 8b 45 f0 	movq	-16(%rbp), %rax
   12243:	48 8b 40 05 	movq	5(%rax), %rax
   12247:	8b 40 01 	movl	1(%rax), %eax
   1224a:	89 c0 	movl	%eax, %eax
   1224c:	48 01 d0 	addq	%rdx, %rax
   1224f:	48 8d 50 1a 	leaq	26(%rax), %rdx
   12253:	48 8b 45 f0 	movq	-16(%rbp), %rax
   12257:	be 00 00 00 00 	movl	$0, %esi
   1225c:	48 89 c7 	movq	%rax, %rdi
   1225f:	e8 b2 e6 ff ff 	callq	-6478 <memset>
   12264:	e9 df 00 00 00 	jmp	223 <kfree+0x1ca>
   12269:	83 7d ec 00 	cmpl	$0, -20(%rbp)
   1226d:	75 4d 	jne	77 <kfree+0x13e>
   1226f:	48 8b 45 f8 	movq	-8(%rbp), %rax
   12273:	8b 50 01 	movl	1(%rax), %edx
   12276:	48 8b 45 f0 	movq	-16(%rbp), %rax
   1227a:	8b 40 01 	movl	1(%rax), %eax
   1227d:	01 d0 	addl	%edx, %eax
   1227f:	8d 50 0d 	leal	13(%rax), %edx
   12282:	48 8b 45 f8 	movq	-8(%rbp), %rax
   12286:	89 50 01 	movl	%edx, 1(%rax)
   12289:	48 8b 45 f0 	movq	-16(%rbp), %rax
   1228d:	48 8b 50 05 	movq	5(%rax), %rdx
   12291:	48 8b 45 f8 	movq	-8(%rbp), %rax
   12295:	48 89 50 05 	movq	%rdx, 5(%rax)
   12299:	48 8b 45 f0 	movq	-16(%rbp), %rax
   1229d:	8b 40 01 	movl	1(%rax), %eax
   122a0:	89 c0 	movl	%eax, %eax
   122a2:	48 8d 50 0d 	leaq	13(%rax), %rdx
   122a6:	48 8b 45 f0 	movq	-16(%rbp), %rax
   122aa:	be 00 00 00 00 	movl	$0, %esi
   122af:	48 89 c7 	movq	%rax, %rdi
   122b2:	e8 5f e6 ff ff 	callq	-6561 <memset>
   122b7:	e9 8c 00 00 00 	jmp	140 <kfree+0x1ca>
   122bc:	83 7d e8 00 	cmpl	$0, -24(%rbp)
   122c0:	75 5a 	jne	90 <kfree+0x19e>
   122c2:	48 8b 45 f0 	movq	-16(%rbp), %rax
   122c6:	8b 50 01 	movl	1(%rax), %edx
   122c9:	48 8b 45 f0 	movq	-16(%rbp), %rax
   122cd:	48 8b 40 05 	movq	5(%rax), %rax
   122d1:	8b 40 01 	movl	1(%rax), %eax
   122d4:	01 d0 	addl	%edx, %eax
   122d6:	8d 50 0d 	leal	13(%rax), %edx
   122d9:	48 8b 45 f0 	movq	-16(%rbp), %rax
   122dd:	89 50 01 	movl	%edx, 1(%rax)
   122e0:	48 8b 45 f0 	movq	-16(%rbp), %rax
   122e4:	48 8b 40 05 	movq	5(%rax), %rax
   122e8:	48 8b 50 05 	movq	5(%rax), %rdx
   122ec:	48 8b 45 f0 	movq	-16(%rbp), %rax
   122f0:	48 89 50 05 	movq	%rdx, 5(%rax)
   122f4:	48 8b 45 f0 	movq	-16(%rbp), %rax
   122f8:	48 8b 40 05 	movq	5(%rax), %rax
   122fc:	8b 40 01 	movl	1(%rax), %eax
   122ff:	89 c0 	movl	%eax, %eax
   12301:	48 8d 50 0d 	leaq	13(%rax), %rdx
   12305:	48 8b 45 f0 	movq	-16(%rbp), %rax
   12309:	48 8b 40 05 	movq	5(%rax), %rax
   1230d:	be 00 00 00 00 	movl	$0, %esi
   12312:	48 89 c7 	movq	%rax, %rdi
   12315:	e8 fc e5 ff ff 	callq	-6660 <memset>
   1231a:	eb 2c 	jmp	44 <kfree+0x1ca>
   1231c:	48 8b 45 f0 	movq	-16(%rbp), %rax
   12320:	0f b6 00 	movzbl	(%rax), %eax
   12323:	83 e0 0e 	andl	$14, %eax
   12326:	89 c2 	movl	%eax, %edx
   12328:	48 8b 45 f0 	movq	-16(%rbp), %rax
   1232c:	88 10 	movb	%dl, (%rax)
   1232e:	48 8b 45 f0 	movq	-16(%rbp), %rax
   12332:	8b 40 01 	movl	1(%rax), %eax
   12335:	89 c2 	movl	%eax, %edx
   12337:	48 8b 45 d8 	movq	-40(%rbp), %rax
   1233b:	be 00 00 00 00 	movl	$0, %esi
   12340:	48 89 c7 	movq	%rax, %rdi
   12343:	e8 ce e5 ff ff 	callq	-6706 <memset>
   12348:	90 	nop
   12349:	48 8b 45 f0 	movq	-16(%rbp), %rax
   1234d:	48 89 45 f8 	movq	%rax, -8(%rbp)
   12351:	eb 01 	jmp	1 <kfree+0x1d6>
   12353:	90 	nop
   12354:	48 8b 45 f0 	movq	-16(%rbp), %rax
   12358:	48 8b 40 05 	movq	5(%rax), %rax
   1235c:	48 89 45 f0 	movq	%rax, -16(%rbp)
   12360:	48 83 7d f0 00 	cmpq	$0, -16(%rbp)
   12365:	0f 85 5b fe ff ff 	jne	-421 <kfree+0x48>
   1236b:	eb 01 	jmp	1 <kfree+0x1f0>
   1236d:	90 	nop
   1236e:	c9 	leave
   1236f:	c3 	retq

inb:
   12370:	55 	pushq	%rbp
   12371:	48 89 e5 	movq	%rsp, %rbp
   12374:	89 f8 	movl	%edi, %eax
   12376:	66 89 45 ec 	movw	%ax, -20(%rbp)
   1237a:	0f b7 45 ec 	movzwl	-20(%rbp), %eax
   1237e:	89 c2 	movl	%eax, %edx
   12380:	ec 	inb	%dx, %al
   12381:	88 45 ff 	movb	%al, -1(%rbp)
   12384:	0f b6 45 ff 	movzbl	-1(%rbp), %eax
   12388:	5d 	popq	%rbp
   12389:	c3 	retq

outb:
   1238a:	55 	pushq	%rbp
   1238b:	48 89 e5 	movq	%rsp, %rbp
   1238e:	89 f8 	movl	%edi, %eax
   12390:	89 f2 	movl	%esi, %edx
   12392:	66 89 45 fc 	movw	%ax, -4(%rbp)
   12396:	89 d0 	movl	%edx, %eax
   12398:	88 45 f8 	movb	%al, -8(%rbp)
   1239b:	0f b6 45 f8 	movzbl	-8(%rbp), %eax
   1239f:	0f b7 55 fc 	movzwl	-4(%rbp), %edx
   123a3:	ee 	outb	%al, %dx
   123a4:	90 	nop
   123a5:	5d 	popq	%rbp
   123a6:	c3 	retq

inw:
   123a7:	55 	pushq	%rbp
   123a8:	48 89 e5 	movq	%rsp, %rbp
   123ab:	89 f8 	movl	%edi, %eax
   123ad:	66 89 45 ec 	movw	%ax, -20(%rbp)
   123b1:	0f b7 45 ec 	movzwl	-20(%rbp), %eax
   123b5:	89 c2 	movl	%eax, %edx
   123b7:	66 ed 	inw	%dx, %ax
   123b9:	66 89 45 fe 	movw	%ax, -2(%rbp)
   123bd:	0f b7 45 fe 	movzwl	-2(%rbp), %eax
   123c1:	5d 	popq	%rbp
   123c2:	c3 	retq

outw:
   123c3:	55 	pushq	%rbp
   123c4:	48 89 e5 	movq	%rsp, %rbp
   123c7:	89 fa 	movl	%edi, %edx
   123c9:	89 f0 	movl	%esi, %eax
   123cb:	66 89 55 fc 	movw	%dx, -4(%rbp)
   123cf:	66 89 45 f8 	movw	%ax, -8(%rbp)
   123d3:	0f b7 45 f8 	movzwl	-8(%rbp), %eax
   123d7:	0f b7 55 fc 	movzwl	-4(%rbp), %edx
   123db:	66 ef 	outw	%ax, %dx
   123dd:	90 	nop
   123de:	5d 	popq	%rbp
   123df:	c3 	retq

io_wait:
   123e0:	55 	pushq	%rbp
   123e1:	48 89 e5 	movq	%rsp, %rbp
   123e4:	b8 00 00 00 00 	movl	$0, %eax
   123e9:	e6 80 	outb	%al, $128
   123eb:	90 	nop
   123ec:	5d 	popq	%rbp
   123ed:	c3 	retq

createIdtGate:
   123ee:	55 	pushq	%rbp
   123ef:	48 89 e5 	movq	%rsp, %rbp
   123f2:	89 7d fc 	movl	%edi, -4(%rbp)
   123f5:	48 89 75 f0 	movq	%rsi, -16(%rbp)
   123f9:	89 c8 	movl	%ecx, %eax
   123fb:	88 55 f8 	movb	%dl, -8(%rbp)
   123fe:	88 45 ec 	movb	%al, -20(%rbp)
   12401:	8b 45 fc 	movl	-4(%rbp), %eax
   12404:	48 98 	cltq
   12406:	48 c1 e0 04 	shlq	$4, %rax
   1240a:	48 8d 90 85 6e 01 00 	leaq	93829(%rax), %rdx
   12411:	0f b6 45 ec 	movzbl	-20(%rbp), %eax
   12415:	88 02 	movb	%al, (%rdx)
   12417:	48 8b 45 f0 	movq	-16(%rbp), %rax
   1241b:	89 c2 	movl	%eax, %edx
   1241d:	8b 45 fc 	movl	-4(%rbp), %eax
   12420:	48 98 	cltq
   12422:	48 c1 e0 04 	shlq	$4, %rax
   12426:	48 05 80 6e 01 00 	addq	$93824, %rax
   1242c:	66 89 10 	movw	%dx, (%rax)
   1242f:	48 8b 45 f0 	movq	-16(%rbp), %rax
   12433:	48 c1 e8 10 	shrq	$16, %rax
   12437:	89 c2 	movl	%eax, %edx
   12439:	8b 45 fc 	movl	-4(%rbp), %eax
   1243c:	48 98 	cltq
   1243e:	48 c1 e0 04 	shlq	$4, %rax
   12442:	48 05 86 6e 01 00 	addq	$93830, %rax
   12448:	66 89 10 	movw	%dx, (%rax)
   1244b:	48 8b 45 f0 	movq	-16(%rbp), %rax
   1244f:	48 c1 e8 20 	shrq	$32, %rax
   12453:	89 c2 	movl	%eax, %edx
   12455:	8b 45 fc 	movl	-4(%rbp), %eax
   12458:	48 98 	cltq
   1245a:	48 c1 e0 04 	shlq	$4, %rax
   1245e:	48 05 88 6e 01 00 	addq	$93832, %rax
   12464:	89 10 	movl	%edx, (%rax)
   12466:	8b 45 fc 	movl	-4(%rbp), %eax
   12469:	48 98 	cltq
   1246b:	48 c1 e0 04 	shlq	$4, %rax
   1246f:	48 05 82 6e 01 00 	addq	$93826, %rax
   12475:	66 c7 00 08 00 	movw	$8, (%rax)
   1247a:	8b 45 fc 	movl	-4(%rbp), %eax
   1247d:	48 98 	cltq
   1247f:	48 c1 e0 04 	shlq	$4, %rax
   12483:	48 05 84 6e 01 00 	addq	$93828, %rax
   12489:	c6 00 00 	movb	$0, (%rax)
   1248c:	8b 45 fc 	movl	-4(%rbp), %eax
   1248f:	48 98 	cltq
   12491:	48 c1 e0 04 	shlq	$4, %rax
   12495:	48 05 8c 6e 01 00 	addq	$93836, %rax
   1249b:	c7 00 00 00 00 00 	movl	$0, (%rax)
   124a1:	90 	nop
   124a2:	5d 	popq	%rbp
   124a3:	c3 	retq

init_pic:
   124a4:	55 	pushq	%rbp
   124a5:	48 89 e5 	movq	%rsp, %rbp
   124a8:	48 83 ec 10 	subq	$16, %rsp
   124ac:	bf 21 00 00 00 	movl	$33, %edi
   124b1:	e8 ba fe ff ff 	callq	-326 <inb>
   124b6:	88 45 ff 	movb	%al, -1(%rbp)
   124b9:	b8 00 00 00 00 	movl	$0, %eax
   124be:	e8 1d ff ff ff 	callq	-227 <io_wait>
   124c3:	bf a1 00 00 00 	movl	$161, %edi
   124c8:	e8 a3 fe ff ff 	callq	-349 <inb>
   124cd:	88 45 fe 	movb	%al, -2(%rbp)
   124d0:	b8 00 00 00 00 	movl	$0, %eax
   124d5:	e8 06 ff ff ff 	callq	-250 <io_wait>
   124da:	be 11 00 00 00 	movl	$17, %esi
   124df:	bf 20 00 00 00 	movl	$32, %edi
   124e4:	e8 a1 fe ff ff 	callq	-351 <outb>
   124e9:	b8 00 00 00 00 	movl	$0, %eax
   124ee:	e8 ed fe ff ff 	callq	-275 <io_wait>
   124f3:	be 11 00 00 00 	movl	$17, %esi
   124f8:	bf a0 00 00 00 	movl	$160, %edi
   124fd:	e8 88 fe ff ff 	callq	-376 <outb>
   12502:	b8 00 00 00 00 	movl	$0, %eax
   12507:	e8 d4 fe ff ff 	callq	-300 <io_wait>
   1250c:	be 20 00 00 00 	movl	$32, %esi
   12511:	bf 21 00 00 00 	movl	$33, %edi
   12516:	e8 6f fe ff ff 	callq	-401 <outb>
   1251b:	b8 00 00 00 00 	movl	$0, %eax
   12520:	e8 bb fe ff ff 	callq	-325 <io_wait>
   12525:	be 28 00 00 00 	movl	$40, %esi
   1252a:	bf a1 00 00 00 	movl	$161, %edi
   1252f:	e8 56 fe ff ff 	callq	-426 <outb>
   12534:	b8 00 00 00 00 	movl	$0, %eax
   12539:	e8 a2 fe ff ff 	callq	-350 <io_wait>
   1253e:	be 04 00 00 00 	movl	$4, %esi
   12543:	bf 21 00 00 00 	movl	$33, %edi
   12548:	e8 3d fe ff ff 	callq	-451 <outb>
   1254d:	b8 00 00 00 00 	movl	$0, %eax
   12552:	e8 89 fe ff ff 	callq	-375 <io_wait>
   12557:	be 02 00 00 00 	movl	$2, %esi
   1255c:	bf a1 00 00 00 	movl	$161, %edi
   12561:	e8 24 fe ff ff 	callq	-476 <outb>
   12566:	b8 00 00 00 00 	movl	$0, %eax
   1256b:	e8 70 fe ff ff 	callq	-400 <io_wait>
   12570:	be 01 00 00 00 	movl	$1, %esi
   12575:	bf 21 00 00 00 	movl	$33, %edi
   1257a:	e8 0b fe ff ff 	callq	-501 <outb>
   1257f:	b8 00 00 00 00 	movl	$0, %eax
   12584:	e8 57 fe ff ff 	callq	-425 <io_wait>
   12589:	be 01 00 00 00 	movl	$1, %esi
   1258e:	bf a1 00 00 00 	movl	$161, %edi
   12593:	e8 f2 fd ff ff 	callq	-526 <outb>
   12598:	b8 00 00 00 00 	movl	$0, %eax
   1259d:	e8 3e fe ff ff 	callq	-450 <io_wait>
   125a2:	0f b6 45 ff 	movzbl	-1(%rbp), %eax
   125a6:	89 c6 	movl	%eax, %esi
   125a8:	bf 21 00 00 00 	movl	$33, %edi
   125ad:	e8 d8 fd ff ff 	callq	-552 <outb>
   125b2:	b8 00 00 00 00 	movl	$0, %eax
   125b7:	e8 24 fe ff ff 	callq	-476 <io_wait>
   125bc:	0f b6 45 fe 	movzbl	-2(%rbp), %eax
   125c0:	89 c6 	movl	%eax, %esi
   125c2:	bf a1 00 00 00 	movl	$161, %edi
   125c7:	e8 be fd ff ff 	callq	-578 <outb>
   125cc:	90 	nop
   125cd:	c9 	leave
   125ce:	c3 	retq

initIDT:
   125cf:	55 	pushq	%rbp
   125d0:	48 89 e5 	movq	%rsp, %rbp
   125d3:	66 c7 05 84 48 00 00 ff 0f 	movw	$4095, 18564(%rip)
   125dc:	b8 80 6e 01 00 	movl	$93824, %eax
   125e1:	48 89 05 7a 48 00 00 	movq	%rax, 18554(%rip)
   125e8:	ba 00 10 00 00 	movl	$4096, %edx
   125ed:	be 00 00 00 00 	movl	$0, %esi
   125f2:	bf 80 6e 01 00 	movl	$93824, %edi
   125f7:	e8 1a e3 ff ff 	callq	-7398 <memset>
   125fc:	b8 c4 2b 01 00 	movl	$76740, %eax
   12601:	b9 8e 00 00 00 	movl	$142, %ecx
   12606:	ba 08 00 00 00 	movl	$8, %edx
   1260b:	48 89 c6 	movq	%rax, %rsi
   1260e:	bf 00 00 00 00 	movl	$0, %edi
   12613:	e8 d6 fd ff ff 	callq	-554 <createIdtGate>
   12618:	b8 12 2c 01 00 	movl	$76818, %eax
   1261d:	b9 8e 00 00 00 	movl	$142, %ecx
   12622:	ba 08 00 00 00 	movl	$8, %edx
   12627:	48 89 c6 	movq	%rax, %rsi
   1262a:	bf 01 00 00 00 	movl	$1, %edi
   1262f:	e8 ba fd ff ff 	callq	-582 <createIdtGate>
   12634:	b8 60 2c 01 00 	movl	$76896, %eax
   12639:	b9 8e 00 00 00 	movl	$142, %ecx
   1263e:	ba 08 00 00 00 	movl	$8, %edx
   12643:	48 89 c6 	movq	%rax, %rsi
   12646:	bf 02 00 00 00 	movl	$2, %edi
   1264b:	e8 9e fd ff ff 	callq	-610 <createIdtGate>
   12650:	b8 ae 2c 01 00 	movl	$76974, %eax
   12655:	b9 8e 00 00 00 	movl	$142, %ecx
   1265a:	ba 08 00 00 00 	movl	$8, %edx
   1265f:	48 89 c6 	movq	%rax, %rsi
   12662:	bf 03 00 00 00 	movl	$3, %edi
   12667:	e8 82 fd ff ff 	callq	-638 <createIdtGate>
   1266c:	b8 fc 2c 01 00 	movl	$77052, %eax
   12671:	b9 8e 00 00 00 	movl	$142, %ecx
   12676:	ba 08 00 00 00 	movl	$8, %edx
   1267b:	48 89 c6 	movq	%rax, %rsi
   1267e:	bf 04 00 00 00 	movl	$4, %edi
   12683:	e8 66 fd ff ff 	callq	-666 <createIdtGate>
   12688:	b8 4a 2d 01 00 	movl	$77130, %eax
   1268d:	b9 8e 00 00 00 	movl	$142, %ecx
   12692:	ba 08 00 00 00 	movl	$8, %edx
   12697:	48 89 c6 	movq	%rax, %rsi
   1269a:	bf 05 00 00 00 	movl	$5, %edi
   1269f:	e8 4a fd ff ff 	callq	-694 <createIdtGate>
   126a4:	b8 98 2d 01 00 	movl	$77208, %eax
   126a9:	b9 8e 00 00 00 	movl	$142, %ecx
   126ae:	ba 08 00 00 00 	movl	$8, %edx
   126b3:	48 89 c6 	movq	%rax, %rsi
   126b6:	bf 06 00 00 00 	movl	$6, %edi
   126bb:	e8 2e fd ff ff 	callq	-722 <createIdtGate>
   126c0:	b8 e6 2d 01 00 	movl	$77286, %eax
   126c5:	b9 8e 00 00 00 	movl	$142, %ecx
   126ca:	ba 08 00 00 00 	movl	$8, %edx
   126cf:	48 89 c6 	movq	%rax, %rsi
   126d2:	bf 07 00 00 00 	movl	$7, %edi
   126d7:	e8 12 fd ff ff 	callq	-750 <createIdtGate>
   126dc:	b8 34 2e 01 00 	movl	$77364, %eax
   126e1:	b9 8e 00 00 00 	movl	$142, %ecx
   126e6:	ba 08 00 00 00 	movl	$8, %edx
   126eb:	48 89 c6 	movq	%rax, %rsi
   126ee:	bf 08 00 00 00 	movl	$8, %edi
   126f3:	e8 f6 fc ff ff 	callq	-778 <createIdtGate>
   126f8:	b8 80 2e 01 00 	movl	$77440, %eax
   126fd:	b9 8e 00 00 00 	movl	$142, %ecx
   12702:	ba 08 00 00 00 	movl	$8, %edx
   12707:	48 89 c6 	movq	%rax, %rsi
   1270a:	bf 09 00 00 00 	movl	$9, %edi
   1270f:	e8 da fc ff ff 	callq	-806 <createIdtGate>
   12714:	b8 ce 2e 01 00 	movl	$77518, %eax
   12719:	b9 8e 00 00 00 	movl	$142, %ecx
   1271e:	ba 08 00 00 00 	movl	$8, %edx
   12723:	48 89 c6 	movq	%rax, %rsi
   12726:	bf 0a 00 00 00 	movl	$10, %edi
   1272b:	e8 be fc ff ff 	callq	-834 <createIdtGate>
   12730:	b8 1a 2f 01 00 	movl	$77594, %eax
   12735:	b9 8e 00 00 00 	movl	$142, %ecx
   1273a:	ba 08 00 00 00 	movl	$8, %edx
   1273f:	48 89 c6 	movq	%rax, %rsi
   12742:	bf 0b 00 00 00 	movl	$11, %edi
   12747:	e8 a2 fc ff ff 	callq	-862 <createIdtGate>
   1274c:	b8 66 2f 01 00 	movl	$77670, %eax
   12751:	b9 8e 00 00 00 	movl	$142, %ecx
   12756:	ba 08 00 00 00 	movl	$8, %edx
   1275b:	48 89 c6 	movq	%rax, %rsi
   1275e:	bf 0c 00 00 00 	movl	$12, %edi
   12763:	e8 86 fc ff ff 	callq	-890 <createIdtGate>
   12768:	b8 b2 2f 01 00 	movl	$77746, %eax
   1276d:	b9 8e 00 00 00 	movl	$142, %ecx
   12772:	ba 08 00 00 00 	movl	$8, %edx
   12777:	48 89 c6 	movq	%rax, %rsi
   1277a:	bf 0d 00 00 00 	movl	$13, %edi
   1277f:	e8 6a fc ff ff 	callq	-918 <createIdtGate>
   12784:	b8 fe 2f 01 00 	movl	$77822, %eax
   12789:	b9 8e 00 00 00 	movl	$142, %ecx
   1278e:	ba 08 00 00 00 	movl	$8, %edx
   12793:	48 89 c6 	movq	%rax, %rsi
   12796:	bf 0e 00 00 00 	movl	$14, %edi
   1279b:	e8 4e fc ff ff 	callq	-946 <createIdtGate>
   127a0:	b8 fe 2f 01 00 	movl	$77822, %eax
   127a5:	b9 8e 00 00 00 	movl	$142, %ecx
   127aa:	ba 08 00 00 00 	movl	$8, %edx
   127af:	48 89 c6 	movq	%rax, %rsi
   127b2:	bf 0f 00 00 00 	movl	$15, %edi
   127b7:	e8 32 fc ff ff 	callq	-974 <createIdtGate>
   127bc:	b8 96 30 01 00 	movl	$77974, %eax
   127c1:	b9 8e 00 00 00 	movl	$142, %ecx
   127c6:	ba 08 00 00 00 	movl	$8, %edx
   127cb:	48 89 c6 	movq	%rax, %rsi
   127ce:	bf 10 00 00 00 	movl	$16, %edi
   127d3:	e8 16 fc ff ff 	callq	-1002 <createIdtGate>
   127d8:	b8 e2 30 01 00 	movl	$78050, %eax
   127dd:	b9 8e 00 00 00 	movl	$142, %ecx
   127e2:	ba 08 00 00 00 	movl	$8, %edx
   127e7:	48 89 c6 	movq	%rax, %rsi
   127ea:	bf 11 00 00 00 	movl	$17, %edi
   127ef:	e8 fa fb ff ff 	callq	-1030 <createIdtGate>
   127f4:	b8 2e 31 01 00 	movl	$78126, %eax
   127f9:	b9 8e 00 00 00 	movl	$142, %ecx
   127fe:	ba 08 00 00 00 	movl	$8, %edx
   12803:	48 89 c6 	movq	%rax, %rsi
   12806:	bf 12 00 00 00 	movl	$18, %edi
   1280b:	e8 de fb ff ff 	callq	-1058 <createIdtGate>
   12810:	b8 7a 31 01 00 	movl	$78202, %eax
   12815:	b9 8e 00 00 00 	movl	$142, %ecx
   1281a:	ba 08 00 00 00 	movl	$8, %edx
   1281f:	48 89 c6 	movq	%rax, %rsi
   12822:	bf 13 00 00 00 	movl	$19, %edi
   12827:	e8 c2 fb ff ff 	callq	-1086 <createIdtGate>
   1282c:	b8 c6 31 01 00 	movl	$78278, %eax
   12831:	b9 8e 00 00 00 	movl	$142, %ecx
   12836:	ba 08 00 00 00 	movl	$8, %edx
   1283b:	48 89 c6 	movq	%rax, %rsi
   1283e:	bf 14 00 00 00 	movl	$20, %edi
   12843:	e8 a6 fb ff ff 	callq	-1114 <createIdtGate>
   12848:	b8 12 32 01 00 	movl	$78354, %eax
   1284d:	b9 8e 00 00 00 	movl	$142, %ecx
   12852:	ba 08 00 00 00 	movl	$8, %edx
   12857:	48 89 c6 	movq	%rax, %rsi
   1285a:	bf 15 00 00 00 	movl	$21, %edi
   1285f:	e8 8a fb ff ff 	callq	-1142 <createIdtGate>
   12864:	b8 5e 32 01 00 	movl	$78430, %eax
   12869:	b9 8e 00 00 00 	movl	$142, %ecx
   1286e:	ba 08 00 00 00 	movl	$8, %edx
   12873:	48 89 c6 	movq	%rax, %rsi
   12876:	bf 16 00 00 00 	movl	$22, %edi
   1287b:	e8 6e fb ff ff 	callq	-1170 <createIdtGate>
   12880:	b8 aa 32 01 00 	movl	$78506, %eax
   12885:	b9 8e 00 00 00 	movl	$142, %ecx
   1288a:	ba 08 00 00 00 	movl	$8, %edx
   1288f:	48 89 c6 	movq	%rax, %rsi
   12892:	bf 17 00 00 00 	movl	$23, %edi
   12897:	e8 52 fb ff ff 	callq	-1198 <createIdtGate>
   1289c:	b8 f6 32 01 00 	movl	$78582, %eax
   128a1:	b9 8e 00 00 00 	movl	$142, %ecx
   128a6:	ba 08 00 00 00 	movl	$8, %edx
   128ab:	48 89 c6 	movq	%rax, %rsi
   128ae:	bf 18 00 00 00 	movl	$24, %edi
   128b3:	e8 36 fb ff ff 	callq	-1226 <createIdtGate>
   128b8:	b8 42 33 01 00 	movl	$78658, %eax
   128bd:	b9 8e 00 00 00 	movl	$142, %ecx
   128c2:	ba 08 00 00 00 	movl	$8, %edx
   128c7:	48 89 c6 	movq	%rax, %rsi
   128ca:	bf 19 00 00 00 	movl	$25, %edi
   128cf:	e8 1a fb ff ff 	callq	-1254 <createIdtGate>
   128d4:	b8 8e 33 01 00 	movl	$78734, %eax
   128d9:	b9 8e 00 00 00 	movl	$142, %ecx
   128de:	ba 08 00 00 00 	movl	$8, %edx
   128e3:	48 89 c6 	movq	%rax, %rsi
   128e6:	bf 1a 00 00 00 	movl	$26, %edi
   128eb:	e8 fe fa ff ff 	callq	-1282 <createIdtGate>
   128f0:	b8 da 33 01 00 	movl	$78810, %eax
   128f5:	b9 8e 00 00 00 	movl	$142, %ecx
   128fa:	ba 08 00 00 00 	movl	$8, %edx
   128ff:	48 89 c6 	movq	%rax, %rsi
   12902:	bf 1b 00 00 00 	movl	$27, %edi
   12907:	e8 e2 fa ff ff 	callq	-1310 <createIdtGate>
   1290c:	b8 26 34 01 00 	movl	$78886, %eax
   12911:	b9 8e 00 00 00 	movl	$142, %ecx
   12916:	ba 08 00 00 00 	movl	$8, %edx
   1291b:	48 89 c6 	movq	%rax, %rsi
   1291e:	bf 1c 00 00 00 	movl	$28, %edi
   12923:	e8 c6 fa ff ff 	callq	-1338 <createIdtGate>
   12928:	b8 72 34 01 00 	movl	$78962, %eax
   1292d:	b9 8e 00 00 00 	movl	$142, %ecx
   12932:	ba 08 00 00 00 	movl	$8, %edx
   12937:	48 89 c6 	movq	%rax, %rsi
   1293a:	bf 1d 00 00 00 	movl	$29, %edi
   1293f:	e8 aa fa ff ff 	callq	-1366 <createIdtGate>
   12944:	b8 be 34 01 00 	movl	$79038, %eax
   12949:	b9 8e 00 00 00 	movl	$142, %ecx
   1294e:	ba 08 00 00 00 	movl	$8, %edx
   12953:	48 89 c6 	movq	%rax, %rsi
   12956:	bf 1e 00 00 00 	movl	$30, %edi
   1295b:	e8 8e fa ff ff 	callq	-1394 <createIdtGate>
   12960:	b8 0a 35 01 00 	movl	$79114, %eax
   12965:	b9 8e 00 00 00 	movl	$142, %ecx
   1296a:	ba 08 00 00 00 	movl	$8, %edx
   1296f:	48 89 c6 	movq	%rax, %rsi
   12972:	bf 1f 00 00 00 	movl	$31, %edi
   12977:	e8 72 fa ff ff 	callq	-1422 <createIdtGate>
   1297c:	b8 56 35 01 00 	movl	$79190, %eax
   12981:	b9 8e 00 00 00 	movl	$142, %ecx
   12986:	ba 08 00 00 00 	movl	$8, %edx
   1298b:	48 89 c6 	movq	%rax, %rsi
   1298e:	bf 20 00 00 00 	movl	$32, %edi
   12993:	e8 56 fa ff ff 	callq	-1450 <createIdtGate>
   12998:	b8 a4 35 01 00 	movl	$79268, %eax
   1299d:	b9 8e 00 00 00 	movl	$142, %ecx
   129a2:	ba 08 00 00 00 	movl	$8, %edx
   129a7:	48 89 c6 	movq	%rax, %rsi
   129aa:	bf 21 00 00 00 	movl	$33, %edi
   129af:	e8 3a fa ff ff 	callq	-1478 <createIdtGate>
   129b4:	b8 f2 35 01 00 	movl	$79346, %eax
   129b9:	b9 8e 00 00 00 	movl	$142, %ecx
   129be:	ba 08 00 00 00 	movl	$8, %edx
   129c3:	48 89 c6 	movq	%rax, %rsi
   129c6:	bf 22 00 00 00 	movl	$34, %edi
   129cb:	e8 1e fa ff ff 	callq	-1506 <createIdtGate>
   129d0:	b8 40 36 01 00 	movl	$79424, %eax
   129d5:	b9 8e 00 00 00 	movl	$142, %ecx
   129da:	ba 08 00 00 00 	movl	$8, %edx
   129df:	48 89 c6 	movq	%rax, %rsi
   129e2:	bf 23 00 00 00 	movl	$35, %edi
   129e7:	e8 02 fa ff ff 	callq	-1534 <createIdtGate>
   129ec:	b8 8e 36 01 00 	movl	$79502, %eax
   129f1:	b9 8e 00 00 00 	movl	$142, %ecx
   129f6:	ba 08 00 00 00 	movl	$8, %edx
   129fb:	48 89 c6 	movq	%rax, %rsi
   129fe:	bf 24 00 00 00 	movl	$36, %edi
   12a03:	e8 e6 f9 ff ff 	callq	-1562 <createIdtGate>
   12a08:	b8 dc 36 01 00 	movl	$79580, %eax
   12a0d:	b9 8e 00 00 00 	movl	$142, %ecx
   12a12:	ba 08 00 00 00 	movl	$8, %edx
   12a17:	48 89 c6 	movq	%rax, %rsi
   12a1a:	bf 25 00 00 00 	movl	$37, %edi
   12a1f:	e8 ca f9 ff ff 	callq	-1590 <createIdtGate>
   12a24:	b8 2a 37 01 00 	movl	$79658, %eax
   12a29:	b9 8e 00 00 00 	movl	$142, %ecx
   12a2e:	ba 08 00 00 00 	movl	$8, %edx
   12a33:	48 89 c6 	movq	%rax, %rsi
   12a36:	bf 26 00 00 00 	movl	$38, %edi
   12a3b:	e8 ae f9 ff ff 	callq	-1618 <createIdtGate>
   12a40:	b8 78 37 01 00 	movl	$79736, %eax
   12a45:	b9 8e 00 00 00 	movl	$142, %ecx
   12a4a:	ba 08 00 00 00 	movl	$8, %edx
   12a4f:	48 89 c6 	movq	%rax, %rsi
   12a52:	bf 27 00 00 00 	movl	$39, %edi
   12a57:	e8 92 f9 ff ff 	callq	-1646 <createIdtGate>
   12a5c:	b8 c6 37 01 00 	movl	$79814, %eax
   12a61:	b9 8e 00 00 00 	movl	$142, %ecx
   12a66:	ba 08 00 00 00 	movl	$8, %edx
   12a6b:	48 89 c6 	movq	%rax, %rsi
   12a6e:	bf 28 00 00 00 	movl	$40, %edi
   12a73:	e8 76 f9 ff ff 	callq	-1674 <createIdtGate>
   12a78:	b8 14 38 01 00 	movl	$79892, %eax
   12a7d:	b9 8e 00 00 00 	movl	$142, %ecx
   12a82:	ba 08 00 00 00 	movl	$8, %edx
   12a87:	48 89 c6 	movq	%rax, %rsi
   12a8a:	bf 29 00 00 00 	movl	$41, %edi
   12a8f:	e8 5a f9 ff ff 	callq	-1702 <createIdtGate>
   12a94:	b8 62 38 01 00 	movl	$79970, %eax
   12a99:	b9 8e 00 00 00 	movl	$142, %ecx
   12a9e:	ba 08 00 00 00 	movl	$8, %edx
   12aa3:	48 89 c6 	movq	%rax, %rsi
   12aa6:	bf 2a 00 00 00 	movl	$42, %edi
   12aab:	e8 3e f9 ff ff 	callq	-1730 <createIdtGate>
   12ab0:	b8 b0 38 01 00 	movl	$80048, %eax
   12ab5:	b9 8e 00 00 00 	movl	$142, %ecx
   12aba:	ba 08 00 00 00 	movl	$8, %edx
   12abf:	48 89 c6 	movq	%rax, %rsi
   12ac2:	bf 2b 00 00 00 	movl	$43, %edi
   12ac7:	e8 22 f9 ff ff 	callq	-1758 <createIdtGate>
   12acc:	b8 fe 38 01 00 	movl	$80126, %eax
   12ad1:	b9 8e 00 00 00 	movl	$142, %ecx
   12ad6:	ba 08 00 00 00 	movl	$8, %edx
   12adb:	48 89 c6 	movq	%rax, %rsi
   12ade:	bf 2c 00 00 00 	movl	$44, %edi
   12ae3:	e8 06 f9 ff ff 	callq	-1786 <createIdtGate>
   12ae8:	b8 4c 39 01 00 	movl	$80204, %eax
   12aed:	b9 8e 00 00 00 	movl	$142, %ecx
   12af2:	ba 08 00 00 00 	movl	$8, %edx
   12af7:	48 89 c6 	movq	%rax, %rsi
   12afa:	bf 2d 00 00 00 	movl	$45, %edi
   12aff:	e8 ea f8 ff ff 	callq	-1814 <createIdtGate>
   12b04:	b8 9a 39 01 00 	movl	$80282, %eax
   12b09:	b9 8e 00 00 00 	movl	$142, %ecx
   12b0e:	ba 08 00 00 00 	movl	$8, %edx
   12b13:	48 89 c6 	movq	%rax, %rsi
   12b16:	bf 2e 00 00 00 	movl	$46, %edi
   12b1b:	e8 ce f8 ff ff 	callq	-1842 <createIdtGate>
   12b20:	b8 e8 39 01 00 	movl	$80360, %eax
   12b25:	b9 8e 00 00 00 	movl	$142, %ecx
   12b2a:	ba 08 00 00 00 	movl	$8, %edx
   12b2f:	48 89 c6 	movq	%rax, %rsi
   12b32:	bf 2f 00 00 00 	movl	$47, %edi
   12b37:	e8 b2 f8 ff ff 	callq	-1870 <createIdtGate>
   12b3c:	b8 00 00 00 00 	movl	$0, %eax
   12b41:	e8 5e f9 ff ff 	callq	-1698 <init_pic>
   12b46:	bf 60 6e 01 00 	movl	$93792, %edi
   12b4b:	e8 70 00 00 00 	callq	112 <idt_flush>
   12b50:	be 00 00 00 00 	movl	$0, %esi
   12b55:	bf 21 00 00 00 	movl	$33, %edi
   12b5a:	e8 2b f8 ff ff 	callq	-2005 <outb>
   12b5f:	be 00 00 00 00 	movl	$0, %esi
   12b64:	bf a1 00 00 00 	movl	$161, %edi
   12b69:	e8 1c f8 ff ff 	callq	-2020 <outb>
   12b6e:	fb 	sti
   12b6f:	90 	nop
   12b70:	5d 	popq	%rbp
   12b71:	c3 	retq

dumpRegistersToRAM:
   12b72:	55 	pushq	%rbp
   12b73:	48 89 e5 	movq	%rsp, %rbp
   12b76:	48 89 7d e8 	movq	%rdi, -24(%rbp)
   12b7a:	48 89 75 e0 	movq	%rsi, -32(%rbp)
   12b7e:	c7 45 fc 00 00 00 00 	movl	$0, -4(%rbp)
   12b85:	eb 25 	jmp	37 <dumpRegistersToRAM+0x3a>
   12b87:	48 8b 55 e8 	movq	-24(%rbp), %rdx
   12b8b:	48 8d 82 b8 00 00 00 	leaq	184(%rdx), %rax
   12b92:	48 89 45 e8 	movq	%rax, -24(%rbp)
   12b96:	48 8b 45 e0 	movq	-32(%rbp), %rax
   12b9a:	48 8d 48 08 	leaq	8(%rax), %rcx
   12b9e:	48 89 4d e0 	movq	%rcx, -32(%rbp)
   12ba2:	48 8b 12 	movq	(%rdx), %rdx
   12ba5:	48 89 10 	movq	%rdx, (%rax)
   12ba8:	83 45 fc 01 	addl	$1, -4(%rbp)
   12bac:	8b 45 fc 	movl	-4(%rbp), %eax
   12baf:	3d b7 00 00 00 	cmpl	$183, %eax
   12bb4:	76 d1 	jbe	-47 <dumpRegistersToRAM+0x15>
   12bb6:	90 	nop
   12bb7:	90 	nop
   12bb8:	5d 	popq	%rbp
   12bb9:	c3 	retq
   12bba:	66 0f 1f 44 00 00 	nopw	(%rax,%rax)

idt_flush:
   12bc0:	0f 01 1f 	lidtq	(%rdi)
   12bc3:	c3 	retq

isr0:
   12bc4:	6a 00 	pushq	$0
   12bc6:	6a 00 	pushq	$0
   12bc8:	57 	pushq	%rdi
   12bc9:	56 	pushq	%rsi
   12bca:	50 	pushq	%rax
   12bcb:	51 	pushq	%rcx
   12bcc:	53 	pushq	%rbx
   12bcd:	52 	pushq	%rdx
   12bce:	41 50 	pushq	%r8
   12bd0:	41 51 	pushq	%r9
   12bd2:	41 52 	pushq	%r10
   12bd4:	41 53 	pushq	%r11
   12bd6:	41 54 	pushq	%r12
   12bd8:	41 55 	pushq	%r13
   12bda:	41 56 	pushq	%r14
   12bdc:	41 57 	pushq	%r15
   12bde:	54 	pushq	%rsp
   12bdf:	55 	pushq	%rbp
   12be0:	48 89 e7 	movq	%rsp, %rdi
   12be3:	48 83 ec 28 	subq	$40, %rsp
   12be7:	fc 	cld
   12be8:	e8 49 0e 00 00 	callq	3657 <isr0_handler>
   12bed:	48 83 c4 28 	addq	$40, %rsp
   12bf1:	5d 	popq	%rbp
   12bf2:	48 83 c4 08 	addq	$8, %rsp
   12bf6:	41 5f 	popq	%r15
   12bf8:	41 5e 	popq	%r14
   12bfa:	41 5d 	popq	%r13
   12bfc:	41 5c 	popq	%r12
   12bfe:	41 5b 	popq	%r11
   12c00:	41 5a 	popq	%r10
   12c02:	41 59 	popq	%r9
   12c04:	41 58 	popq	%r8
   12c06:	5a 	popq	%rdx
   12c07:	5b 	popq	%rbx
   12c08:	59 	popq	%rcx
   12c09:	58 	popq	%rax
   12c0a:	5e 	popq	%rsi
   12c0b:	5f 	popq	%rdi
   12c0c:	48 83 c4 10 	addq	$16, %rsp
   12c10:	48 cf 	iretq

isr1:
   12c12:	6a 00 	pushq	$0
   12c14:	6a 01 	pushq	$1
   12c16:	57 	pushq	%rdi
   12c17:	56 	pushq	%rsi
   12c18:	50 	pushq	%rax
   12c19:	51 	pushq	%rcx
   12c1a:	53 	pushq	%rbx
   12c1b:	52 	pushq	%rdx
   12c1c:	41 50 	pushq	%r8
   12c1e:	41 51 	pushq	%r9
   12c20:	41 52 	pushq	%r10
   12c22:	41 53 	pushq	%r11
   12c24:	41 54 	pushq	%r12
   12c26:	41 55 	pushq	%r13
   12c28:	41 56 	pushq	%r14
   12c2a:	41 57 	pushq	%r15
   12c2c:	54 	pushq	%rsp
   12c2d:	55 	pushq	%rbp
   12c2e:	48 89 e7 	movq	%rsp, %rdi
   12c31:	48 83 ec 28 	subq	$40, %rsp
   12c35:	fc 	cld
   12c36:	e8 1a 0e 00 00 	callq	3610 <isr1_handler>
   12c3b:	48 83 c4 28 	addq	$40, %rsp
   12c3f:	5d 	popq	%rbp
   12c40:	48 83 c4 08 	addq	$8, %rsp
   12c44:	41 5f 	popq	%r15
   12c46:	41 5e 	popq	%r14
   12c48:	41 5d 	popq	%r13
   12c4a:	41 5c 	popq	%r12
   12c4c:	41 5b 	popq	%r11
   12c4e:	41 5a 	popq	%r10
   12c50:	41 59 	popq	%r9
   12c52:	41 58 	popq	%r8
   12c54:	5a 	popq	%rdx
   12c55:	5b 	popq	%rbx
   12c56:	59 	popq	%rcx
   12c57:	58 	popq	%rax
   12c58:	5e 	popq	%rsi
   12c59:	5f 	popq	%rdi
   12c5a:	48 83 c4 10 	addq	$16, %rsp
   12c5e:	48 cf 	iretq

isr2:
   12c60:	6a 00 	pushq	$0
   12c62:	6a 02 	pushq	$2
   12c64:	57 	pushq	%rdi
   12c65:	56 	pushq	%rsi
   12c66:	50 	pushq	%rax
   12c67:	51 	pushq	%rcx
   12c68:	53 	pushq	%rbx
   12c69:	52 	pushq	%rdx
   12c6a:	41 50 	pushq	%r8
   12c6c:	41 51 	pushq	%r9
   12c6e:	41 52 	pushq	%r10
   12c70:	41 53 	pushq	%r11
   12c72:	41 54 	pushq	%r12
   12c74:	41 55 	pushq	%r13
   12c76:	41 56 	pushq	%r14
   12c78:	41 57 	pushq	%r15
   12c7a:	54 	pushq	%rsp
   12c7b:	55 	pushq	%rbp
   12c7c:	48 89 e7 	movq	%rsp, %rdi
   12c7f:	48 83 ec 28 	subq	$40, %rsp
   12c83:	fc 	cld
   12c84:	e8 eb 0d 00 00 	callq	3563 <isr2_handler>
   12c89:	48 83 c4 28 	addq	$40, %rsp
   12c8d:	5d 	popq	%rbp
   12c8e:	48 83 c4 08 	addq	$8, %rsp
   12c92:	41 5f 	popq	%r15
   12c94:	41 5e 	popq	%r14
   12c96:	41 5d 	popq	%r13
   12c98:	41 5c 	popq	%r12
   12c9a:	41 5b 	popq	%r11
   12c9c:	41 5a 	popq	%r10
   12c9e:	41 59 	popq	%r9
   12ca0:	41 58 	popq	%r8
   12ca2:	5a 	popq	%rdx
   12ca3:	5b 	popq	%rbx
   12ca4:	59 	popq	%rcx
   12ca5:	58 	popq	%rax
   12ca6:	5e 	popq	%rsi
   12ca7:	5f 	popq	%rdi
   12ca8:	48 83 c4 10 	addq	$16, %rsp
   12cac:	48 cf 	iretq

isr3:
   12cae:	6a 00 	pushq	$0
   12cb0:	6a 03 	pushq	$3
   12cb2:	57 	pushq	%rdi
   12cb3:	56 	pushq	%rsi
   12cb4:	50 	pushq	%rax
   12cb5:	51 	pushq	%rcx
   12cb6:	53 	pushq	%rbx
   12cb7:	52 	pushq	%rdx
   12cb8:	41 50 	pushq	%r8
   12cba:	41 51 	pushq	%r9
   12cbc:	41 52 	pushq	%r10
   12cbe:	41 53 	pushq	%r11
   12cc0:	41 54 	pushq	%r12
   12cc2:	41 55 	pushq	%r13
   12cc4:	41 56 	pushq	%r14
   12cc6:	41 57 	pushq	%r15
   12cc8:	54 	pushq	%rsp
   12cc9:	55 	pushq	%rbp
   12cca:	48 89 e7 	movq	%rsp, %rdi
   12ccd:	48 83 ec 28 	subq	$40, %rsp
   12cd1:	fc 	cld
   12cd2:	e8 bc 0d 00 00 	callq	3516 <isr3_handler>
   12cd7:	48 83 c4 28 	addq	$40, %rsp
   12cdb:	5d 	popq	%rbp
   12cdc:	48 83 c4 08 	addq	$8, %rsp
   12ce0:	41 5f 	popq	%r15
   12ce2:	41 5e 	popq	%r14
   12ce4:	41 5d 	popq	%r13
   12ce6:	41 5c 	popq	%r12
   12ce8:	41 5b 	popq	%r11
   12cea:	41 5a 	popq	%r10
   12cec:	41 59 	popq	%r9
   12cee:	41 58 	popq	%r8
   12cf0:	5a 	popq	%rdx
   12cf1:	5b 	popq	%rbx
   12cf2:	59 	popq	%rcx
   12cf3:	58 	popq	%rax
   12cf4:	5e 	popq	%rsi
   12cf5:	5f 	popq	%rdi
   12cf6:	48 83 c4 10 	addq	$16, %rsp
   12cfa:	48 cf 	iretq

isr4:
   12cfc:	6a 00 	pushq	$0
   12cfe:	6a 04 	pushq	$4
   12d00:	57 	pushq	%rdi
   12d01:	56 	pushq	%rsi
   12d02:	50 	pushq	%rax
   12d03:	51 	pushq	%rcx
   12d04:	53 	pushq	%rbx
   12d05:	52 	pushq	%rdx
   12d06:	41 50 	pushq	%r8
   12d08:	41 51 	pushq	%r9
   12d0a:	41 52 	pushq	%r10
   12d0c:	41 53 	pushq	%r11
   12d0e:	41 54 	pushq	%r12
   12d10:	41 55 	pushq	%r13
   12d12:	41 56 	pushq	%r14
   12d14:	41 57 	pushq	%r15
   12d16:	54 	pushq	%rsp
   12d17:	55 	pushq	%rbp
   12d18:	48 89 e7 	movq	%rsp, %rdi
   12d1b:	48 83 ec 28 	subq	$40, %rsp
   12d1f:	fc 	cld
   12d20:	e8 8d 0d 00 00 	callq	3469 <isr4_handler>
   12d25:	48 83 c4 28 	addq	$40, %rsp
   12d29:	5d 	popq	%rbp
   12d2a:	48 83 c4 08 	addq	$8, %rsp
   12d2e:	41 5f 	popq	%r15
   12d30:	41 5e 	popq	%r14
   12d32:	41 5d 	popq	%r13
   12d34:	41 5c 	popq	%r12
   12d36:	41 5b 	popq	%r11
   12d38:	41 5a 	popq	%r10
   12d3a:	41 59 	popq	%r9
   12d3c:	41 58 	popq	%r8
   12d3e:	5a 	popq	%rdx
   12d3f:	5b 	popq	%rbx
   12d40:	59 	popq	%rcx
   12d41:	58 	popq	%rax
   12d42:	5e 	popq	%rsi
   12d43:	5f 	popq	%rdi
   12d44:	48 83 c4 10 	addq	$16, %rsp
   12d48:	48 cf 	iretq

isr5:
   12d4a:	6a 00 	pushq	$0
   12d4c:	6a 05 	pushq	$5
   12d4e:	57 	pushq	%rdi
   12d4f:	56 	pushq	%rsi
   12d50:	50 	pushq	%rax
   12d51:	51 	pushq	%rcx
   12d52:	53 	pushq	%rbx
   12d53:	52 	pushq	%rdx
   12d54:	41 50 	pushq	%r8
   12d56:	41 51 	pushq	%r9
   12d58:	41 52 	pushq	%r10
   12d5a:	41 53 	pushq	%r11
   12d5c:	41 54 	pushq	%r12
   12d5e:	41 55 	pushq	%r13
   12d60:	41 56 	pushq	%r14
   12d62:	41 57 	pushq	%r15
   12d64:	54 	pushq	%rsp
   12d65:	55 	pushq	%rbp
   12d66:	48 89 e7 	movq	%rsp, %rdi
   12d69:	48 83 ec 28 	subq	$40, %rsp
   12d6d:	fc 	cld
   12d6e:	e8 5e 0d 00 00 	callq	3422 <isr5_handler>
   12d73:	48 83 c4 28 	addq	$40, %rsp
   12d77:	5d 	popq	%rbp
   12d78:	48 83 c4 08 	addq	$8, %rsp
   12d7c:	41 5f 	popq	%r15
   12d7e:	41 5e 	popq	%r14
   12d80:	41 5d 	popq	%r13
   12d82:	41 5c 	popq	%r12
   12d84:	41 5b 	popq	%r11
   12d86:	41 5a 	popq	%r10
   12d88:	41 59 	popq	%r9
   12d8a:	41 58 	popq	%r8
   12d8c:	5a 	popq	%rdx
   12d8d:	5b 	popq	%rbx
   12d8e:	59 	popq	%rcx
   12d8f:	58 	popq	%rax
   12d90:	5e 	popq	%rsi
   12d91:	5f 	popq	%rdi
   12d92:	48 83 c4 10 	addq	$16, %rsp
   12d96:	48 cf 	iretq

isr6:
   12d98:	6a 00 	pushq	$0
   12d9a:	6a 06 	pushq	$6
   12d9c:	57 	pushq	%rdi
   12d9d:	56 	pushq	%rsi
   12d9e:	50 	pushq	%rax
   12d9f:	51 	pushq	%rcx
   12da0:	53 	pushq	%rbx
   12da1:	52 	pushq	%rdx
   12da2:	41 50 	pushq	%r8
   12da4:	41 51 	pushq	%r9
   12da6:	41 52 	pushq	%r10
   12da8:	41 53 	pushq	%r11
   12daa:	41 54 	pushq	%r12
   12dac:	41 55 	pushq	%r13
   12dae:	41 56 	pushq	%r14
   12db0:	41 57 	pushq	%r15
   12db2:	54 	pushq	%rsp
   12db3:	55 	pushq	%rbp
   12db4:	48 89 e7 	movq	%rsp, %rdi
   12db7:	48 83 ec 28 	subq	$40, %rsp
   12dbb:	fc 	cld
   12dbc:	e8 2f 0d 00 00 	callq	3375 <isr6_handler>
   12dc1:	48 83 c4 28 	addq	$40, %rsp
   12dc5:	5d 	popq	%rbp
   12dc6:	48 83 c4 08 	addq	$8, %rsp
   12dca:	41 5f 	popq	%r15
   12dcc:	41 5e 	popq	%r14
   12dce:	41 5d 	popq	%r13
   12dd0:	41 5c 	popq	%r12
   12dd2:	41 5b 	popq	%r11
   12dd4:	41 5a 	popq	%r10
   12dd6:	41 59 	popq	%r9
   12dd8:	41 58 	popq	%r8
   12dda:	5a 	popq	%rdx
   12ddb:	5b 	popq	%rbx
   12ddc:	59 	popq	%rcx
   12ddd:	58 	popq	%rax
   12dde:	5e 	popq	%rsi
   12ddf:	5f 	popq	%rdi
   12de0:	48 83 c4 10 	addq	$16, %rsp
   12de4:	48 cf 	iretq

isr7:
   12de6:	6a 00 	pushq	$0
   12de8:	6a 07 	pushq	$7
   12dea:	57 	pushq	%rdi
   12deb:	56 	pushq	%rsi
   12dec:	50 	pushq	%rax
   12ded:	51 	pushq	%rcx
   12dee:	53 	pushq	%rbx
   12def:	52 	pushq	%rdx
   12df0:	41 50 	pushq	%r8
   12df2:	41 51 	pushq	%r9
   12df4:	41 52 	pushq	%r10
   12df6:	41 53 	pushq	%r11
   12df8:	41 54 	pushq	%r12
   12dfa:	41 55 	pushq	%r13
   12dfc:	41 56 	pushq	%r14
   12dfe:	41 57 	pushq	%r15
   12e00:	54 	pushq	%rsp
   12e01:	55 	pushq	%rbp
   12e02:	48 89 e7 	movq	%rsp, %rdi
   12e05:	48 83 ec 28 	subq	$40, %rsp
   12e09:	fc 	cld
   12e0a:	e8 00 0d 00 00 	callq	3328 <isr7_handler>
   12e0f:	48 83 c4 28 	addq	$40, %rsp
   12e13:	5d 	popq	%rbp
   12e14:	48 83 c4 08 	addq	$8, %rsp
   12e18:	41 5f 	popq	%r15
   12e1a:	41 5e 	popq	%r14
   12e1c:	41 5d 	popq	%r13
   12e1e:	41 5c 	popq	%r12
   12e20:	41 5b 	popq	%r11
   12e22:	41 5a 	popq	%r10
   12e24:	41 59 	popq	%r9
   12e26:	41 58 	popq	%r8
   12e28:	5a 	popq	%rdx
   12e29:	5b 	popq	%rbx
   12e2a:	59 	popq	%rcx
   12e2b:	58 	popq	%rax
   12e2c:	5e 	popq	%rsi
   12e2d:	5f 	popq	%rdi
   12e2e:	48 83 c4 10 	addq	$16, %rsp
   12e32:	48 cf 	iretq

isr8:
   12e34:	6a 08 	pushq	$8
   12e36:	57 	pushq	%rdi
   12e37:	56 	pushq	%rsi
   12e38:	50 	pushq	%rax
   12e39:	51 	pushq	%rcx
   12e3a:	53 	pushq	%rbx
   12e3b:	52 	pushq	%rdx
   12e3c:	41 50 	pushq	%r8
   12e3e:	41 51 	pushq	%r9
   12e40:	41 52 	pushq	%r10
   12e42:	41 53 	pushq	%r11
   12e44:	41 54 	pushq	%r12
   12e46:	41 55 	pushq	%r13
   12e48:	41 56 	pushq	%r14
   12e4a:	41 57 	pushq	%r15
   12e4c:	54 	pushq	%rsp
   12e4d:	55 	pushq	%rbp
   12e4e:	48 89 e7 	movq	%rsp, %rdi
   12e51:	48 83 ec 28 	subq	$40, %rsp
   12e55:	fc 	cld
   12e56:	e8 d3 0c 00 00 	callq	3283 <isr8_handler>
   12e5b:	48 83 c4 28 	addq	$40, %rsp
   12e5f:	5d 	popq	%rbp
   12e60:	48 83 c4 08 	addq	$8, %rsp
   12e64:	41 5f 	popq	%r15
   12e66:	41 5e 	popq	%r14
   12e68:	41 5d 	popq	%r13
   12e6a:	41 5c 	popq	%r12
   12e6c:	41 5b 	popq	%r11
   12e6e:	41 5a 	popq	%r10
   12e70:	41 59 	popq	%r9
   12e72:	41 58 	popq	%r8
   12e74:	5a 	popq	%rdx
   12e75:	5b 	popq	%rbx
   12e76:	59 	popq	%rcx
   12e77:	58 	popq	%rax
   12e78:	5e 	popq	%rsi
   12e79:	5f 	popq	%rdi
   12e7a:	48 83 c4 10 	addq	$16, %rsp
   12e7e:	48 cf 	iretq

isr9:
   12e80:	6a 00 	pushq	$0
   12e82:	6a 09 	pushq	$9
   12e84:	57 	pushq	%rdi
   12e85:	56 	pushq	%rsi
   12e86:	50 	pushq	%rax
   12e87:	51 	pushq	%rcx
   12e88:	53 	pushq	%rbx
   12e89:	52 	pushq	%rdx
   12e8a:	41 50 	pushq	%r8
   12e8c:	41 51 	pushq	%r9
   12e8e:	41 52 	pushq	%r10
   12e90:	41 53 	pushq	%r11
   12e92:	41 54 	pushq	%r12
   12e94:	41 55 	pushq	%r13
   12e96:	41 56 	pushq	%r14
   12e98:	41 57 	pushq	%r15
   12e9a:	54 	pushq	%rsp
   12e9b:	55 	pushq	%rbp
   12e9c:	48 89 e7 	movq	%rsp, %rdi
   12e9f:	48 83 ec 28 	subq	$40, %rsp
   12ea3:	fc 	cld
   12ea4:	e8 a4 0c 00 00 	callq	3236 <isr9_handler>
   12ea9:	48 83 c4 28 	addq	$40, %rsp
   12ead:	5d 	popq	%rbp
   12eae:	48 83 c4 08 	addq	$8, %rsp
   12eb2:	41 5f 	popq	%r15
   12eb4:	41 5e 	popq	%r14
   12eb6:	41 5d 	popq	%r13
   12eb8:	41 5c 	popq	%r12
   12eba:	41 5b 	popq	%r11
   12ebc:	41 5a 	popq	%r10
   12ebe:	41 59 	popq	%r9
   12ec0:	41 58 	popq	%r8
   12ec2:	5a 	popq	%rdx
   12ec3:	5b 	popq	%rbx
   12ec4:	59 	popq	%rcx
   12ec5:	58 	popq	%rax
   12ec6:	5e 	popq	%rsi
   12ec7:	5f 	popq	%rdi
   12ec8:	48 83 c4 10 	addq	$16, %rsp
   12ecc:	48 cf 	iretq

isr10:
   12ece:	6a 0a 	pushq	$10
   12ed0:	57 	pushq	%rdi
   12ed1:	56 	pushq	%rsi
   12ed2:	50 	pushq	%rax
   12ed3:	51 	pushq	%rcx
   12ed4:	53 	pushq	%rbx
   12ed5:	52 	pushq	%rdx
   12ed6:	41 50 	pushq	%r8
   12ed8:	41 51 	pushq	%r9
   12eda:	41 52 	pushq	%r10
   12edc:	41 53 	pushq	%r11
   12ede:	41 54 	pushq	%r12
   12ee0:	41 55 	pushq	%r13
   12ee2:	41 56 	pushq	%r14
   12ee4:	41 57 	pushq	%r15
   12ee6:	54 	pushq	%rsp
   12ee7:	55 	pushq	%rbp
   12ee8:	48 89 e7 	movq	%rsp, %rdi
   12eeb:	48 83 ec 28 	subq	$40, %rsp
   12eef:	fc 	cld
   12ef0:	e8 77 0c 00 00 	callq	3191 <isr10_handler>
   12ef5:	48 83 c4 28 	addq	$40, %rsp
   12ef9:	5d 	popq	%rbp
   12efa:	48 83 c4 08 	addq	$8, %rsp
   12efe:	41 5f 	popq	%r15
   12f00:	41 5e 	popq	%r14
   12f02:	41 5d 	popq	%r13
   12f04:	41 5c 	popq	%r12
   12f06:	41 5b 	popq	%r11
   12f08:	41 5a 	popq	%r10
   12f0a:	41 59 	popq	%r9
   12f0c:	41 58 	popq	%r8
   12f0e:	5a 	popq	%rdx
   12f0f:	5b 	popq	%rbx
   12f10:	59 	popq	%rcx
   12f11:	58 	popq	%rax
   12f12:	5e 	popq	%rsi
   12f13:	5f 	popq	%rdi
   12f14:	48 83 c4 10 	addq	$16, %rsp
   12f18:	48 cf 	iretq

isr11:
   12f1a:	6a 0b 	pushq	$11
   12f1c:	57 	pushq	%rdi
   12f1d:	56 	pushq	%rsi
   12f1e:	50 	pushq	%rax
   12f1f:	51 	pushq	%rcx
   12f20:	53 	pushq	%rbx
   12f21:	52 	pushq	%rdx
   12f22:	41 50 	pushq	%r8
   12f24:	41 51 	pushq	%r9
   12f26:	41 52 	pushq	%r10
   12f28:	41 53 	pushq	%r11
   12f2a:	41 54 	pushq	%r12
   12f2c:	41 55 	pushq	%r13
   12f2e:	41 56 	pushq	%r14
   12f30:	41 57 	pushq	%r15
   12f32:	54 	pushq	%rsp
   12f33:	55 	pushq	%rbp
   12f34:	48 89 e7 	movq	%rsp, %rdi
   12f37:	48 83 ec 28 	subq	$40, %rsp
   12f3b:	fc 	cld
   12f3c:	e8 4a 0c 00 00 	callq	3146 <isr11_handler>
   12f41:	48 83 c4 28 	addq	$40, %rsp
   12f45:	5d 	popq	%rbp
   12f46:	48 83 c4 08 	addq	$8, %rsp
   12f4a:	41 5f 	popq	%r15
   12f4c:	41 5e 	popq	%r14
   12f4e:	41 5d 	popq	%r13
   12f50:	41 5c 	popq	%r12
   12f52:	41 5b 	popq	%r11
   12f54:	41 5a 	popq	%r10
   12f56:	41 59 	popq	%r9
   12f58:	41 58 	popq	%r8
   12f5a:	5a 	popq	%rdx
   12f5b:	5b 	popq	%rbx
   12f5c:	59 	popq	%rcx
   12f5d:	58 	popq	%rax
   12f5e:	5e 	popq	%rsi
   12f5f:	5f 	popq	%rdi
   12f60:	48 83 c4 10 	addq	$16, %rsp
   12f64:	48 cf 	iretq

isr12:
   12f66:	6a 0c 	pushq	$12
   12f68:	57 	pushq	%rdi
   12f69:	56 	pushq	%rsi
   12f6a:	50 	pushq	%rax
   12f6b:	51 	pushq	%rcx
   12f6c:	53 	pushq	%rbx
   12f6d:	52 	pushq	%rdx
   12f6e:	41 50 	pushq	%r8
   12f70:	41 51 	pushq	%r9
   12f72:	41 52 	pushq	%r10
   12f74:	41 53 	pushq	%r11
   12f76:	41 54 	pushq	%r12
   12f78:	41 55 	pushq	%r13
   12f7a:	41 56 	pushq	%r14
   12f7c:	41 57 	pushq	%r15
   12f7e:	54 	pushq	%rsp
   12f7f:	55 	pushq	%rbp
   12f80:	48 89 e7 	movq	%rsp, %rdi
   12f83:	48 83 ec 28 	subq	$40, %rsp
   12f87:	fc 	cld
   12f88:	e8 1d 0c 00 00 	callq	3101 <isr12_handler>
   12f8d:	48 83 c4 28 	addq	$40, %rsp
   12f91:	5d 	popq	%rbp
   12f92:	48 83 c4 08 	addq	$8, %rsp
   12f96:	41 5f 	popq	%r15
   12f98:	41 5e 	popq	%r14
   12f9a:	41 5d 	popq	%r13
   12f9c:	41 5c 	popq	%r12
   12f9e:	41 5b 	popq	%r11
   12fa0:	41 5a 	popq	%r10
   12fa2:	41 59 	popq	%r9
   12fa4:	41 58 	popq	%r8
   12fa6:	5a 	popq	%rdx
   12fa7:	5b 	popq	%rbx
   12fa8:	59 	popq	%rcx
   12fa9:	58 	popq	%rax
   12faa:	5e 	popq	%rsi
   12fab:	5f 	popq	%rdi
   12fac:	48 83 c4 10 	addq	$16, %rsp
   12fb0:	48 cf 	iretq

isr13:
   12fb2:	6a 0d 	pushq	$13
   12fb4:	57 	pushq	%rdi
   12fb5:	56 	pushq	%rsi
   12fb6:	50 	pushq	%rax
   12fb7:	51 	pushq	%rcx
   12fb8:	53 	pushq	%rbx
   12fb9:	52 	pushq	%rdx
   12fba:	41 50 	pushq	%r8
   12fbc:	41 51 	pushq	%r9
   12fbe:	41 52 	pushq	%r10
   12fc0:	41 53 	pushq	%r11
   12fc2:	41 54 	pushq	%r12
   12fc4:	41 55 	pushq	%r13
   12fc6:	41 56 	pushq	%r14
   12fc8:	41 57 	pushq	%r15
   12fca:	54 	pushq	%rsp
   12fcb:	55 	pushq	%rbp
   12fcc:	48 89 e7 	movq	%rsp, %rdi
   12fcf:	48 83 ec 28 	subq	$40, %rsp
   12fd3:	fc 	cld
   12fd4:	e8 f0 0b 00 00 	callq	3056 <isr13_handler>
   12fd9:	48 83 c4 28 	addq	$40, %rsp
   12fdd:	5d 	popq	%rbp
   12fde:	48 83 c4 08 	addq	$8, %rsp
   12fe2:	41 5f 	popq	%r15
   12fe4:	41 5e 	popq	%r14
   12fe6:	41 5d 	popq	%r13
   12fe8:	41 5c 	popq	%r12
   12fea:	41 5b 	popq	%r11
   12fec:	41 5a 	popq	%r10
   12fee:	41 59 	popq	%r9
   12ff0:	41 58 	popq	%r8
   12ff2:	5a 	popq	%rdx
   12ff3:	5b 	popq	%rbx
   12ff4:	59 	popq	%rcx
   12ff5:	58 	popq	%rax
   12ff6:	5e 	popq	%rsi
   12ff7:	5f 	popq	%rdi
   12ff8:	48 83 c4 10 	addq	$16, %rsp
   12ffc:	48 cf 	iretq

isr14:
   12ffe:	6a 0e 	pushq	$14
   13000:	57 	pushq	%rdi
   13001:	56 	pushq	%rsi
   13002:	50 	pushq	%rax
   13003:	51 	pushq	%rcx
   13004:	53 	pushq	%rbx
   13005:	52 	pushq	%rdx
   13006:	41 50 	pushq	%r8
   13008:	41 51 	pushq	%r9
   1300a:	41 52 	pushq	%r10
   1300c:	41 53 	pushq	%r11
   1300e:	41 54 	pushq	%r12
   13010:	41 55 	pushq	%r13
   13012:	41 56 	pushq	%r14
   13014:	41 57 	pushq	%r15
   13016:	54 	pushq	%rsp
   13017:	55 	pushq	%rbp
   13018:	48 89 e7 	movq	%rsp, %rdi
   1301b:	48 83 ec 28 	subq	$40, %rsp
   1301f:	fc 	cld
   13020:	e8 c3 0b 00 00 	callq	3011 <isr14_handler>
   13025:	48 83 c4 28 	addq	$40, %rsp
   13029:	5d 	popq	%rbp
   1302a:	48 83 c4 08 	addq	$8, %rsp
   1302e:	41 5f 	popq	%r15
   13030:	41 5e 	popq	%r14
   13032:	41 5d 	popq	%r13
   13034:	41 5c 	popq	%r12
   13036:	41 5b 	popq	%r11
   13038:	41 5a 	popq	%r10
   1303a:	41 59 	popq	%r9
   1303c:	41 58 	popq	%r8
   1303e:	5a 	popq	%rdx
   1303f:	5b 	popq	%rbx
   13040:	59 	popq	%rcx
   13041:	58 	popq	%rax
   13042:	5e 	popq	%rsi
   13043:	5f 	popq	%rdi
   13044:	48 83 c4 10 	addq	$16, %rsp
   13048:	48 cf 	iretq

isr15:
   1304a:	6a 0f 	pushq	$15
   1304c:	57 	pushq	%rdi
   1304d:	56 	pushq	%rsi
   1304e:	50 	pushq	%rax
   1304f:	51 	pushq	%rcx
   13050:	53 	pushq	%rbx
   13051:	52 	pushq	%rdx
   13052:	41 50 	pushq	%r8
   13054:	41 51 	pushq	%r9
   13056:	41 52 	pushq	%r10
   13058:	41 53 	pushq	%r11
   1305a:	41 54 	pushq	%r12
   1305c:	41 55 	pushq	%r13
   1305e:	41 56 	pushq	%r14
   13060:	41 57 	pushq	%r15
   13062:	54 	pushq	%rsp
   13063:	55 	pushq	%rbp
   13064:	48 89 e7 	movq	%rsp, %rdi
   13067:	48 83 ec 28 	subq	$40, %rsp
   1306b:	fc 	cld
   1306c:	e8 96 0b 00 00 	callq	2966 <isr15_handler>
   13071:	48 83 c4 28 	addq	$40, %rsp
   13075:	5d 	popq	%rbp
   13076:	48 83 c4 08 	addq	$8, %rsp
   1307a:	41 5f 	popq	%r15
   1307c:	41 5e 	popq	%r14
   1307e:	41 5d 	popq	%r13
   13080:	41 5c 	popq	%r12
   13082:	41 5b 	popq	%r11
   13084:	41 5a 	popq	%r10
   13086:	41 59 	popq	%r9
   13088:	41 58 	popq	%r8
   1308a:	5a 	popq	%rdx
   1308b:	5b 	popq	%rbx
   1308c:	59 	popq	%rcx
   1308d:	58 	popq	%rax
   1308e:	5e 	popq	%rsi
   1308f:	5f 	popq	%rdi
   13090:	48 83 c4 10 	addq	$16, %rsp
   13094:	48 cf 	iretq

isr16:
   13096:	6a 10 	pushq	$16
   13098:	57 	pushq	%rdi
   13099:	56 	pushq	%rsi
   1309a:	50 	pushq	%rax
   1309b:	51 	pushq	%rcx
   1309c:	53 	pushq	%rbx
   1309d:	52 	pushq	%rdx
   1309e:	41 50 	pushq	%r8
   130a0:	41 51 	pushq	%r9
   130a2:	41 52 	pushq	%r10
   130a4:	41 53 	pushq	%r11
   130a6:	41 54 	pushq	%r12
   130a8:	41 55 	pushq	%r13
   130aa:	41 56 	pushq	%r14
   130ac:	41 57 	pushq	%r15
   130ae:	54 	pushq	%rsp
   130af:	55 	pushq	%rbp
   130b0:	48 89 e7 	movq	%rsp, %rdi
   130b3:	48 83 ec 28 	subq	$40, %rsp
   130b7:	fc 	cld
   130b8:	e8 54 0b 00 00 	callq	2900 <isr16_handler>
   130bd:	48 83 c4 28 	addq	$40, %rsp
   130c1:	5d 	popq	%rbp
   130c2:	48 83 c4 08 	addq	$8, %rsp
   130c6:	41 5f 	popq	%r15
   130c8:	41 5e 	popq	%r14
   130ca:	41 5d 	popq	%r13
   130cc:	41 5c 	popq	%r12
   130ce:	41 5b 	popq	%r11
   130d0:	41 5a 	popq	%r10
   130d2:	41 59 	popq	%r9
   130d4:	41 58 	popq	%r8
   130d6:	5a 	popq	%rdx
   130d7:	5b 	popq	%rbx
   130d8:	59 	popq	%rcx
   130d9:	58 	popq	%rax
   130da:	5e 	popq	%rsi
   130db:	5f 	popq	%rdi
   130dc:	48 83 c4 10 	addq	$16, %rsp
   130e0:	48 cf 	iretq

isr17:
   130e2:	6a 11 	pushq	$17
   130e4:	57 	pushq	%rdi
   130e5:	56 	pushq	%rsi
   130e6:	50 	pushq	%rax
   130e7:	51 	pushq	%rcx
   130e8:	53 	pushq	%rbx
   130e9:	52 	pushq	%rdx
   130ea:	41 50 	pushq	%r8
   130ec:	41 51 	pushq	%r9
   130ee:	41 52 	pushq	%r10
   130f0:	41 53 	pushq	%r11
   130f2:	41 54 	pushq	%r12
   130f4:	41 55 	pushq	%r13
   130f6:	41 56 	pushq	%r14
   130f8:	41 57 	pushq	%r15
   130fa:	54 	pushq	%rsp
   130fb:	55 	pushq	%rbp
   130fc:	48 89 e7 	movq	%rsp, %rdi
   130ff:	48 83 ec 28 	subq	$40, %rsp
   13103:	fc 	cld
   13104:	e8 12 0b 00 00 	callq	2834 <isr17_handler>
   13109:	48 83 c4 28 	addq	$40, %rsp
   1310d:	5d 	popq	%rbp
   1310e:	48 83 c4 08 	addq	$8, %rsp
   13112:	41 5f 	popq	%r15
   13114:	41 5e 	popq	%r14
   13116:	41 5d 	popq	%r13
   13118:	41 5c 	popq	%r12
   1311a:	41 5b 	popq	%r11
   1311c:	41 5a 	popq	%r10
   1311e:	41 59 	popq	%r9
   13120:	41 58 	popq	%r8
   13122:	5a 	popq	%rdx
   13123:	5b 	popq	%rbx
   13124:	59 	popq	%rcx
   13125:	58 	popq	%rax
   13126:	5e 	popq	%rsi
   13127:	5f 	popq	%rdi
   13128:	48 83 c4 10 	addq	$16, %rsp
   1312c:	48 cf 	iretq

isr18:
   1312e:	6a 12 	pushq	$18
   13130:	57 	pushq	%rdi
   13131:	56 	pushq	%rsi
   13132:	50 	pushq	%rax
   13133:	51 	pushq	%rcx
   13134:	53 	pushq	%rbx
   13135:	52 	pushq	%rdx
   13136:	41 50 	pushq	%r8
   13138:	41 51 	pushq	%r9
   1313a:	41 52 	pushq	%r10
   1313c:	41 53 	pushq	%r11
   1313e:	41 54 	pushq	%r12
   13140:	41 55 	pushq	%r13
   13142:	41 56 	pushq	%r14
   13144:	41 57 	pushq	%r15
   13146:	54 	pushq	%rsp
   13147:	55 	pushq	%rbp
   13148:	48 89 e7 	movq	%rsp, %rdi
   1314b:	48 83 ec 28 	subq	$40, %rsp
   1314f:	fc 	cld
   13150:	e8 d0 0a 00 00 	callq	2768 <isr18_handler>
   13155:	48 83 c4 28 	addq	$40, %rsp
   13159:	5d 	popq	%rbp
   1315a:	48 83 c4 08 	addq	$8, %rsp
   1315e:	41 5f 	popq	%r15
   13160:	41 5e 	popq	%r14
   13162:	41 5d 	popq	%r13
   13164:	41 5c 	popq	%r12
   13166:	41 5b 	popq	%r11
   13168:	41 5a 	popq	%r10
   1316a:	41 59 	popq	%r9
   1316c:	41 58 	popq	%r8
   1316e:	5a 	popq	%rdx
   1316f:	5b 	popq	%rbx
   13170:	59 	popq	%rcx
   13171:	58 	popq	%rax
   13172:	5e 	popq	%rsi
   13173:	5f 	popq	%rdi
   13174:	48 83 c4 10 	addq	$16, %rsp
   13178:	48 cf 	iretq

isr19:
   1317a:	6a 13 	pushq	$19
   1317c:	57 	pushq	%rdi
   1317d:	56 	pushq	%rsi
   1317e:	50 	pushq	%rax
   1317f:	51 	pushq	%rcx
   13180:	53 	pushq	%rbx
   13181:	52 	pushq	%rdx
   13182:	41 50 	pushq	%r8
   13184:	41 51 	pushq	%r9
   13186:	41 52 	pushq	%r10
   13188:	41 53 	pushq	%r11
   1318a:	41 54 	pushq	%r12
   1318c:	41 55 	pushq	%r13
   1318e:	41 56 	pushq	%r14
   13190:	41 57 	pushq	%r15
   13192:	54 	pushq	%rsp
   13193:	55 	pushq	%rbp
   13194:	48 89 e7 	movq	%rsp, %rdi
   13197:	48 83 ec 28 	subq	$40, %rsp
   1319b:	fc 	cld
   1319c:	e8 8e 0a 00 00 	callq	2702 <isr19_handler>
   131a1:	48 83 c4 28 	addq	$40, %rsp
   131a5:	5d 	popq	%rbp
   131a6:	48 83 c4 08 	addq	$8, %rsp
   131aa:	41 5f 	popq	%r15
   131ac:	41 5e 	popq	%r14
   131ae:	41 5d 	popq	%r13
   131b0:	41 5c 	popq	%r12
   131b2:	41 5b 	popq	%r11
   131b4:	41 5a 	popq	%r10
   131b6:	41 59 	popq	%r9
   131b8:	41 58 	popq	%r8
   131ba:	5a 	popq	%rdx
   131bb:	5b 	popq	%rbx
   131bc:	59 	popq	%rcx
   131bd:	58 	popq	%rax
   131be:	5e 	popq	%rsi
   131bf:	5f 	popq	%rdi
   131c0:	48 83 c4 10 	addq	$16, %rsp
   131c4:	48 cf 	iretq

isr20:
   131c6:	6a 14 	pushq	$20
   131c8:	57 	pushq	%rdi
   131c9:	56 	pushq	%rsi
   131ca:	50 	pushq	%rax
   131cb:	51 	pushq	%rcx
   131cc:	53 	pushq	%rbx
   131cd:	52 	pushq	%rdx
   131ce:	41 50 	pushq	%r8
   131d0:	41 51 	pushq	%r9
   131d2:	41 52 	pushq	%r10
   131d4:	41 53 	pushq	%r11
   131d6:	41 54 	pushq	%r12
   131d8:	41 55 	pushq	%r13
   131da:	41 56 	pushq	%r14
   131dc:	41 57 	pushq	%r15
   131de:	54 	pushq	%rsp
   131df:	55 	pushq	%rbp
   131e0:	48 89 e7 	movq	%rsp, %rdi
   131e3:	48 83 ec 28 	subq	$40, %rsp
   131e7:	fc 	cld
   131e8:	e8 4c 0a 00 00 	callq	2636 <isr20_handler>
   131ed:	48 83 c4 28 	addq	$40, %rsp
   131f1:	5d 	popq	%rbp
   131f2:	48 83 c4 08 	addq	$8, %rsp
   131f6:	41 5f 	popq	%r15
   131f8:	41 5e 	popq	%r14
   131fa:	41 5d 	popq	%r13
   131fc:	41 5c 	popq	%r12
   131fe:	41 5b 	popq	%r11
   13200:	41 5a 	popq	%r10
   13202:	41 59 	popq	%r9
   13204:	41 58 	popq	%r8
   13206:	5a 	popq	%rdx
   13207:	5b 	popq	%rbx
   13208:	59 	popq	%rcx
   13209:	58 	popq	%rax
   1320a:	5e 	popq	%rsi
   1320b:	5f 	popq	%rdi
   1320c:	48 83 c4 10 	addq	$16, %rsp
   13210:	48 cf 	iretq

isr21:
   13212:	6a 15 	pushq	$21
   13214:	57 	pushq	%rdi
   13215:	56 	pushq	%rsi
   13216:	50 	pushq	%rax
   13217:	51 	pushq	%rcx
   13218:	53 	pushq	%rbx
   13219:	52 	pushq	%rdx
   1321a:	41 50 	pushq	%r8
   1321c:	41 51 	pushq	%r9
   1321e:	41 52 	pushq	%r10
   13220:	41 53 	pushq	%r11
   13222:	41 54 	pushq	%r12
   13224:	41 55 	pushq	%r13
   13226:	41 56 	pushq	%r14
   13228:	41 57 	pushq	%r15
   1322a:	54 	pushq	%rsp
   1322b:	55 	pushq	%rbp
   1322c:	48 89 e7 	movq	%rsp, %rdi
   1322f:	48 83 ec 28 	subq	$40, %rsp
   13233:	fc 	cld
   13234:	e8 0a 0a 00 00 	callq	2570 <isr21_handler>
   13239:	48 83 c4 28 	addq	$40, %rsp
   1323d:	5d 	popq	%rbp
   1323e:	48 83 c4 08 	addq	$8, %rsp
   13242:	41 5f 	popq	%r15
   13244:	41 5e 	popq	%r14
   13246:	41 5d 	popq	%r13
   13248:	41 5c 	popq	%r12
   1324a:	41 5b 	popq	%r11
   1324c:	41 5a 	popq	%r10
   1324e:	41 59 	popq	%r9
   13250:	41 58 	popq	%r8
   13252:	5a 	popq	%rdx
   13253:	5b 	popq	%rbx
   13254:	59 	popq	%rcx
   13255:	58 	popq	%rax
   13256:	5e 	popq	%rsi
   13257:	5f 	popq	%rdi
   13258:	48 83 c4 10 	addq	$16, %rsp
   1325c:	48 cf 	iretq

isr22:
   1325e:	6a 16 	pushq	$22
   13260:	57 	pushq	%rdi
   13261:	56 	pushq	%rsi
   13262:	50 	pushq	%rax
   13263:	51 	pushq	%rcx
   13264:	53 	pushq	%rbx
   13265:	52 	pushq	%rdx
   13266:	41 50 	pushq	%r8
   13268:	41 51 	pushq	%r9
   1326a:	41 52 	pushq	%r10
   1326c:	41 53 	pushq	%r11
   1326e:	41 54 	pushq	%r12
   13270:	41 55 	pushq	%r13
   13272:	41 56 	pushq	%r14
   13274:	41 57 	pushq	%r15
   13276:	54 	pushq	%rsp
   13277:	55 	pushq	%rbp
   13278:	48 89 e7 	movq	%rsp, %rdi
   1327b:	48 83 ec 28 	subq	$40, %rsp
   1327f:	fc 	cld
   13280:	e8 c8 09 00 00 	callq	2504 <isr22_handler>
   13285:	48 83 c4 28 	addq	$40, %rsp
   13289:	5d 	popq	%rbp
   1328a:	48 83 c4 08 	addq	$8, %rsp
   1328e:	41 5f 	popq	%r15
   13290:	41 5e 	popq	%r14
   13292:	41 5d 	popq	%r13
   13294:	41 5c 	popq	%r12
   13296:	41 5b 	popq	%r11
   13298:	41 5a 	popq	%r10
   1329a:	41 59 	popq	%r9
   1329c:	41 58 	popq	%r8
   1329e:	5a 	popq	%rdx
   1329f:	5b 	popq	%rbx
   132a0:	59 	popq	%rcx
   132a1:	58 	popq	%rax
   132a2:	5e 	popq	%rsi
   132a3:	5f 	popq	%rdi
   132a4:	48 83 c4 10 	addq	$16, %rsp
   132a8:	48 cf 	iretq

isr23:
   132aa:	6a 17 	pushq	$23
   132ac:	57 	pushq	%rdi
   132ad:	56 	pushq	%rsi
   132ae:	50 	pushq	%rax
   132af:	51 	pushq	%rcx
   132b0:	53 	pushq	%rbx
   132b1:	52 	pushq	%rdx
   132b2:	41 50 	pushq	%r8
   132b4:	41 51 	pushq	%r9
   132b6:	41 52 	pushq	%r10
   132b8:	41 53 	pushq	%r11
   132ba:	41 54 	pushq	%r12
   132bc:	41 55 	pushq	%r13
   132be:	41 56 	pushq	%r14
   132c0:	41 57 	pushq	%r15
   132c2:	54 	pushq	%rsp
   132c3:	55 	pushq	%rbp
   132c4:	48 89 e7 	movq	%rsp, %rdi
   132c7:	48 83 ec 28 	subq	$40, %rsp
   132cb:	fc 	cld
   132cc:	e8 86 09 00 00 	callq	2438 <isr23_handler>
   132d1:	48 83 c4 28 	addq	$40, %rsp
   132d5:	5d 	popq	%rbp
   132d6:	48 83 c4 08 	addq	$8, %rsp
   132da:	41 5f 	popq	%r15
   132dc:	41 5e 	popq	%r14
   132de:	41 5d 	popq	%r13
   132e0:	41 5c 	popq	%r12
   132e2:	41 5b 	popq	%r11
   132e4:	41 5a 	popq	%r10
   132e6:	41 59 	popq	%r9
   132e8:	41 58 	popq	%r8
   132ea:	5a 	popq	%rdx
   132eb:	5b 	popq	%rbx
   132ec:	59 	popq	%rcx
   132ed:	58 	popq	%rax
   132ee:	5e 	popq	%rsi
   132ef:	5f 	popq	%rdi
   132f0:	48 83 c4 10 	addq	$16, %rsp
   132f4:	48 cf 	iretq

isr24:
   132f6:	6a 18 	pushq	$24
   132f8:	57 	pushq	%rdi
   132f9:	56 	pushq	%rsi
   132fa:	50 	pushq	%rax
   132fb:	51 	pushq	%rcx
   132fc:	53 	pushq	%rbx
   132fd:	52 	pushq	%rdx
   132fe:	41 50 	pushq	%r8
   13300:	41 51 	pushq	%r9
   13302:	41 52 	pushq	%r10
   13304:	41 53 	pushq	%r11
   13306:	41 54 	pushq	%r12
   13308:	41 55 	pushq	%r13
   1330a:	41 56 	pushq	%r14
   1330c:	41 57 	pushq	%r15
   1330e:	54 	pushq	%rsp
   1330f:	55 	pushq	%rbp
   13310:	48 89 e7 	movq	%rsp, %rdi
   13313:	48 83 ec 28 	subq	$40, %rsp
   13317:	fc 	cld
   13318:	e8 44 09 00 00 	callq	2372 <isr24_handler>
   1331d:	48 83 c4 28 	addq	$40, %rsp
   13321:	5d 	popq	%rbp
   13322:	48 83 c4 08 	addq	$8, %rsp
   13326:	41 5f 	popq	%r15
   13328:	41 5e 	popq	%r14
   1332a:	41 5d 	popq	%r13
   1332c:	41 5c 	popq	%r12
   1332e:	41 5b 	popq	%r11
   13330:	41 5a 	popq	%r10
   13332:	41 59 	popq	%r9
   13334:	41 58 	popq	%r8
   13336:	5a 	popq	%rdx
   13337:	5b 	popq	%rbx
   13338:	59 	popq	%rcx
   13339:	58 	popq	%rax
   1333a:	5e 	popq	%rsi
   1333b:	5f 	popq	%rdi
   1333c:	48 83 c4 10 	addq	$16, %rsp
   13340:	48 cf 	iretq

isr25:
   13342:	6a 19 	pushq	$25
   13344:	57 	pushq	%rdi
   13345:	56 	pushq	%rsi
   13346:	50 	pushq	%rax
   13347:	51 	pushq	%rcx
   13348:	53 	pushq	%rbx
   13349:	52 	pushq	%rdx
   1334a:	41 50 	pushq	%r8
   1334c:	41 51 	pushq	%r9
   1334e:	41 52 	pushq	%r10
   13350:	41 53 	pushq	%r11
   13352:	41 54 	pushq	%r12
   13354:	41 55 	pushq	%r13
   13356:	41 56 	pushq	%r14
   13358:	41 57 	pushq	%r15
   1335a:	54 	pushq	%rsp
   1335b:	55 	pushq	%rbp
   1335c:	48 89 e7 	movq	%rsp, %rdi
   1335f:	48 83 ec 28 	subq	$40, %rsp
   13363:	fc 	cld
   13364:	e8 02 09 00 00 	callq	2306 <isr25_handler>
   13369:	48 83 c4 28 	addq	$40, %rsp
   1336d:	5d 	popq	%rbp
   1336e:	48 83 c4 08 	addq	$8, %rsp
   13372:	41 5f 	popq	%r15
   13374:	41 5e 	popq	%r14
   13376:	41 5d 	popq	%r13
   13378:	41 5c 	popq	%r12
   1337a:	41 5b 	popq	%r11
   1337c:	41 5a 	popq	%r10
   1337e:	41 59 	popq	%r9
   13380:	41 58 	popq	%r8
   13382:	5a 	popq	%rdx
   13383:	5b 	popq	%rbx
   13384:	59 	popq	%rcx
   13385:	58 	popq	%rax
   13386:	5e 	popq	%rsi
   13387:	5f 	popq	%rdi
   13388:	48 83 c4 10 	addq	$16, %rsp
   1338c:	48 cf 	iretq

isr26:
   1338e:	6a 1a 	pushq	$26
   13390:	57 	pushq	%rdi
   13391:	56 	pushq	%rsi
   13392:	50 	pushq	%rax
   13393:	51 	pushq	%rcx
   13394:	53 	pushq	%rbx
   13395:	52 	pushq	%rdx
   13396:	41 50 	pushq	%r8
   13398:	41 51 	pushq	%r9
   1339a:	41 52 	pushq	%r10
   1339c:	41 53 	pushq	%r11
   1339e:	41 54 	pushq	%r12
   133a0:	41 55 	pushq	%r13
   133a2:	41 56 	pushq	%r14
   133a4:	41 57 	pushq	%r15
   133a6:	54 	pushq	%rsp
   133a7:	55 	pushq	%rbp
   133a8:	48 89 e7 	movq	%rsp, %rdi
   133ab:	48 83 ec 28 	subq	$40, %rsp
   133af:	fc 	cld
   133b0:	e8 c0 08 00 00 	callq	2240 <isr26_handler>
   133b5:	48 83 c4 28 	addq	$40, %rsp
   133b9:	5d 	popq	%rbp
   133ba:	48 83 c4 08 	addq	$8, %rsp
   133be:	41 5f 	popq	%r15
   133c0:	41 5e 	popq	%r14
   133c2:	41 5d 	popq	%r13
   133c4:	41 5c 	popq	%r12
   133c6:	41 5b 	popq	%r11
   133c8:	41 5a 	popq	%r10
   133ca:	41 59 	popq	%r9
   133cc:	41 58 	popq	%r8
   133ce:	5a 	popq	%rdx
   133cf:	5b 	popq	%rbx
   133d0:	59 	popq	%rcx
   133d1:	58 	popq	%rax
   133d2:	5e 	popq	%rsi
   133d3:	5f 	popq	%rdi
   133d4:	48 83 c4 10 	addq	$16, %rsp
   133d8:	48 cf 	iretq

isr27:
   133da:	6a 1b 	pushq	$27
   133dc:	57 	pushq	%rdi
   133dd:	56 	pushq	%rsi
   133de:	50 	pushq	%rax
   133df:	51 	pushq	%rcx
   133e0:	53 	pushq	%rbx
   133e1:	52 	pushq	%rdx
   133e2:	41 50 	pushq	%r8
   133e4:	41 51 	pushq	%r9
   133e6:	41 52 	pushq	%r10
   133e8:	41 53 	pushq	%r11
   133ea:	41 54 	pushq	%r12
   133ec:	41 55 	pushq	%r13
   133ee:	41 56 	pushq	%r14
   133f0:	41 57 	pushq	%r15
   133f2:	54 	pushq	%rsp
   133f3:	55 	pushq	%rbp
   133f4:	48 89 e7 	movq	%rsp, %rdi
   133f7:	48 83 ec 28 	subq	$40, %rsp
   133fb:	fc 	cld
   133fc:	e8 7e 08 00 00 	callq	2174 <isr27_handler>
   13401:	48 83 c4 28 	addq	$40, %rsp
   13405:	5d 	popq	%rbp
   13406:	48 83 c4 08 	addq	$8, %rsp
   1340a:	41 5f 	popq	%r15
   1340c:	41 5e 	popq	%r14
   1340e:	41 5d 	popq	%r13
   13410:	41 5c 	popq	%r12
   13412:	41 5b 	popq	%r11
   13414:	41 5a 	popq	%r10
   13416:	41 59 	popq	%r9
   13418:	41 58 	popq	%r8
   1341a:	5a 	popq	%rdx
   1341b:	5b 	popq	%rbx
   1341c:	59 	popq	%rcx
   1341d:	58 	popq	%rax
   1341e:	5e 	popq	%rsi
   1341f:	5f 	popq	%rdi
   13420:	48 83 c4 10 	addq	$16, %rsp
   13424:	48 cf 	iretq

isr28:
   13426:	6a 1c 	pushq	$28
   13428:	57 	pushq	%rdi
   13429:	56 	pushq	%rsi
   1342a:	50 	pushq	%rax
   1342b:	51 	pushq	%rcx
   1342c:	53 	pushq	%rbx
   1342d:	52 	pushq	%rdx
   1342e:	41 50 	pushq	%r8
   13430:	41 51 	pushq	%r9
   13432:	41 52 	pushq	%r10
   13434:	41 53 	pushq	%r11
   13436:	41 54 	pushq	%r12
   13438:	41 55 	pushq	%r13
   1343a:	41 56 	pushq	%r14
   1343c:	41 57 	pushq	%r15
   1343e:	54 	pushq	%rsp
   1343f:	55 	pushq	%rbp
   13440:	48 89 e7 	movq	%rsp, %rdi
   13443:	48 83 ec 28 	subq	$40, %rsp
   13447:	fc 	cld
   13448:	e8 3c 08 00 00 	callq	2108 <isr28_handler>
   1344d:	48 83 c4 28 	addq	$40, %rsp
   13451:	5d 	popq	%rbp
   13452:	48 83 c4 08 	addq	$8, %rsp
   13456:	41 5f 	popq	%r15
   13458:	41 5e 	popq	%r14
   1345a:	41 5d 	popq	%r13
   1345c:	41 5c 	popq	%r12
   1345e:	41 5b 	popq	%r11
   13460:	41 5a 	popq	%r10
   13462:	41 59 	popq	%r9
   13464:	41 58 	popq	%r8
   13466:	5a 	popq	%rdx
   13467:	5b 	popq	%rbx
   13468:	59 	popq	%rcx
   13469:	58 	popq	%rax
   1346a:	5e 	popq	%rsi
   1346b:	5f 	popq	%rdi
   1346c:	48 83 c4 10 	addq	$16, %rsp
   13470:	48 cf 	iretq

isr29:
   13472:	6a 1d 	pushq	$29
   13474:	57 	pushq	%rdi
   13475:	56 	pushq	%rsi
   13476:	50 	pushq	%rax
   13477:	51 	pushq	%rcx
   13478:	53 	pushq	%rbx
   13479:	52 	pushq	%rdx
   1347a:	41 50 	pushq	%r8
   1347c:	41 51 	pushq	%r9
   1347e:	41 52 	pushq	%r10
   13480:	41 53 	pushq	%r11
   13482:	41 54 	pushq	%r12
   13484:	41 55 	pushq	%r13
   13486:	41 56 	pushq	%r14
   13488:	41 57 	pushq	%r15
   1348a:	54 	pushq	%rsp
   1348b:	55 	pushq	%rbp
   1348c:	48 89 e7 	movq	%rsp, %rdi
   1348f:	48 83 ec 28 	subq	$40, %rsp
   13493:	fc 	cld
   13494:	e8 fa 07 00 00 	callq	2042 <isr29_handler>
   13499:	48 83 c4 28 	addq	$40, %rsp
   1349d:	5d 	popq	%rbp
   1349e:	48 83 c4 08 	addq	$8, %rsp
   134a2:	41 5f 	popq	%r15
   134a4:	41 5e 	popq	%r14
   134a6:	41 5d 	popq	%r13
   134a8:	41 5c 	popq	%r12
   134aa:	41 5b 	popq	%r11
   134ac:	41 5a 	popq	%r10
   134ae:	41 59 	popq	%r9
   134b0:	41 58 	popq	%r8
   134b2:	5a 	popq	%rdx
   134b3:	5b 	popq	%rbx
   134b4:	59 	popq	%rcx
   134b5:	58 	popq	%rax
   134b6:	5e 	popq	%rsi
   134b7:	5f 	popq	%rdi
   134b8:	48 83 c4 10 	addq	$16, %rsp
   134bc:	48 cf 	iretq

isr30:
   134be:	6a 1e 	pushq	$30
   134c0:	57 	pushq	%rdi
   134c1:	56 	pushq	%rsi
   134c2:	50 	pushq	%rax
   134c3:	51 	pushq	%rcx
   134c4:	53 	pushq	%rbx
   134c5:	52 	pushq	%rdx
   134c6:	41 50 	pushq	%r8
   134c8:	41 51 	pushq	%r9
   134ca:	41 52 	pushq	%r10
   134cc:	41 53 	pushq	%r11
   134ce:	41 54 	pushq	%r12
   134d0:	41 55 	pushq	%r13
   134d2:	41 56 	pushq	%r14
   134d4:	41 57 	pushq	%r15
   134d6:	54 	pushq	%rsp
   134d7:	55 	pushq	%rbp
   134d8:	48 89 e7 	movq	%rsp, %rdi
   134db:	48 83 ec 28 	subq	$40, %rsp
   134df:	fc 	cld
   134e0:	e8 b8 07 00 00 	callq	1976 <isr30_handler>
   134e5:	48 83 c4 28 	addq	$40, %rsp
   134e9:	5d 	popq	%rbp
   134ea:	48 83 c4 08 	addq	$8, %rsp
   134ee:	41 5f 	popq	%r15
   134f0:	41 5e 	popq	%r14
   134f2:	41 5d 	popq	%r13
   134f4:	41 5c 	popq	%r12
   134f6:	41 5b 	popq	%r11
   134f8:	41 5a 	popq	%r10
   134fa:	41 59 	popq	%r9
   134fc:	41 58 	popq	%r8
   134fe:	5a 	popq	%rdx
   134ff:	5b 	popq	%rbx
   13500:	59 	popq	%rcx
   13501:	58 	popq	%rax
   13502:	5e 	popq	%rsi
   13503:	5f 	popq	%rdi
   13504:	48 83 c4 10 	addq	$16, %rsp
   13508:	48 cf 	iretq

isr31:
   1350a:	6a 1f 	pushq	$31
   1350c:	57 	pushq	%rdi
   1350d:	56 	pushq	%rsi
   1350e:	50 	pushq	%rax
   1350f:	51 	pushq	%rcx
   13510:	53 	pushq	%rbx
   13511:	52 	pushq	%rdx
   13512:	41 50 	pushq	%r8
   13514:	41 51 	pushq	%r9
   13516:	41 52 	pushq	%r10
   13518:	41 53 	pushq	%r11
   1351a:	41 54 	pushq	%r12
   1351c:	41 55 	pushq	%r13
   1351e:	41 56 	pushq	%r14
   13520:	41 57 	pushq	%r15
   13522:	54 	pushq	%rsp
   13523:	55 	pushq	%rbp
   13524:	48 89 e7 	movq	%rsp, %rdi
   13527:	48 83 ec 28 	subq	$40, %rsp
   1352b:	fc 	cld
   1352c:	e8 76 07 00 00 	callq	1910 <isr31_handler>
   13531:	48 83 c4 28 	addq	$40, %rsp
   13535:	5d 	popq	%rbp
   13536:	48 83 c4 08 	addq	$8, %rsp
   1353a:	41 5f 	popq	%r15
   1353c:	41 5e 	popq	%r14
   1353e:	41 5d 	popq	%r13
   13540:	41 5c 	popq	%r12
   13542:	41 5b 	popq	%r11
   13544:	41 5a 	popq	%r10
   13546:	41 59 	popq	%r9
   13548:	41 58 	popq	%r8
   1354a:	5a 	popq	%rdx
   1354b:	5b 	popq	%rbx
   1354c:	59 	popq	%rcx
   1354d:	58 	popq	%rax
   1354e:	5e 	popq	%rsi
   1354f:	5f 	popq	%rdi
   13550:	48 83 c4 10 	addq	$16, %rsp
   13554:	48 cf 	iretq

irq0:
   13556:	6a 00 	pushq	$0
   13558:	6a 20 	pushq	$32
   1355a:	57 	pushq	%rdi
   1355b:	56 	pushq	%rsi
   1355c:	50 	pushq	%rax
   1355d:	51 	pushq	%rcx
   1355e:	53 	pushq	%rbx
   1355f:	52 	pushq	%rdx
   13560:	41 50 	pushq	%r8
   13562:	41 51 	pushq	%r9
   13564:	41 52 	pushq	%r10
   13566:	41 53 	pushq	%r11
   13568:	41 54 	pushq	%r12
   1356a:	41 55 	pushq	%r13
   1356c:	41 56 	pushq	%r14
   1356e:	41 57 	pushq	%r15
   13570:	54 	pushq	%rsp
   13571:	55 	pushq	%rbp
   13572:	48 89 e7 	movq	%rsp, %rdi
   13575:	48 83 ec 28 	subq	$40, %rsp
   13579:	fc 	cld
   1357a:	e8 7a 07 00 00 	callq	1914 <irq0_handler>
   1357f:	48 83 c4 28 	addq	$40, %rsp
   13583:	5d 	popq	%rbp
   13584:	48 83 c4 08 	addq	$8, %rsp
   13588:	41 5f 	popq	%r15
   1358a:	41 5e 	popq	%r14
   1358c:	41 5d 	popq	%r13
   1358e:	41 5c 	popq	%r12
   13590:	41 5b 	popq	%r11
   13592:	41 5a 	popq	%r10
   13594:	41 59 	popq	%r9
   13596:	41 58 	popq	%r8
   13598:	5a 	popq	%rdx
   13599:	5b 	popq	%rbx
   1359a:	59 	popq	%rcx
   1359b:	58 	popq	%rax
   1359c:	5e 	popq	%rsi
   1359d:	5f 	popq	%rdi
   1359e:	48 83 c4 10 	addq	$16, %rsp
   135a2:	48 cf 	iretq

irq1:
   135a4:	6a 00 	pushq	$0
   135a6:	6a 21 	pushq	$33
   135a8:	57 	pushq	%rdi
   135a9:	56 	pushq	%rsi
   135aa:	50 	pushq	%rax
   135ab:	51 	pushq	%rcx
   135ac:	53 	pushq	%rbx
   135ad:	52 	pushq	%rdx
   135ae:	41 50 	pushq	%r8
   135b0:	41 51 	pushq	%r9
   135b2:	41 52 	pushq	%r10
   135b4:	41 53 	pushq	%r11
   135b6:	41 54 	pushq	%r12
   135b8:	41 55 	pushq	%r13
   135ba:	41 56 	pushq	%r14
   135bc:	41 57 	pushq	%r15
   135be:	54 	pushq	%rsp
   135bf:	55 	pushq	%rbp
   135c0:	48 89 e7 	movq	%rsp, %rdi
   135c3:	48 83 ec 28 	subq	$40, %rsp
   135c7:	fc 	cld
   135c8:	e8 59 07 00 00 	callq	1881 <irq1_handler>
   135cd:	48 83 c4 28 	addq	$40, %rsp
   135d1:	5d 	popq	%rbp
   135d2:	48 83 c4 08 	addq	$8, %rsp
   135d6:	41 5f 	popq	%r15
   135d8:	41 5e 	popq	%r14
   135da:	41 5d 	popq	%r13
   135dc:	41 5c 	popq	%r12
   135de:	41 5b 	popq	%r11
   135e0:	41 5a 	popq	%r10
   135e2:	41 59 	popq	%r9
   135e4:	41 58 	popq	%r8
   135e6:	5a 	popq	%rdx
   135e7:	5b 	popq	%rbx
   135e8:	59 	popq	%rcx
   135e9:	58 	popq	%rax
   135ea:	5e 	popq	%rsi
   135eb:	5f 	popq	%rdi
   135ec:	48 83 c4 10 	addq	$16, %rsp
   135f0:	48 cf 	iretq

irq2:
   135f2:	6a 00 	pushq	$0
   135f4:	6a 22 	pushq	$34
   135f6:	57 	pushq	%rdi
   135f7:	56 	pushq	%rsi
   135f8:	50 	pushq	%rax
   135f9:	51 	pushq	%rcx
   135fa:	53 	pushq	%rbx
   135fb:	52 	pushq	%rdx
   135fc:	41 50 	pushq	%r8
   135fe:	41 51 	pushq	%r9
   13600:	41 52 	pushq	%r10
   13602:	41 53 	pushq	%r11
   13604:	41 54 	pushq	%r12
   13606:	41 55 	pushq	%r13
   13608:	41 56 	pushq	%r14
   1360a:	41 57 	pushq	%r15
   1360c:	54 	pushq	%rsp
   1360d:	55 	pushq	%rbp
   1360e:	48 89 e7 	movq	%rsp, %rdi
   13611:	48 83 ec 28 	subq	$40, %rsp
   13615:	fc 	cld
   13616:	e8 26 07 00 00 	callq	1830 <irq2_handler>
   1361b:	48 83 c4 28 	addq	$40, %rsp
   1361f:	5d 	popq	%rbp
   13620:	48 83 c4 08 	addq	$8, %rsp
   13624:	41 5f 	popq	%r15
   13626:	41 5e 	popq	%r14
   13628:	41 5d 	popq	%r13
   1362a:	41 5c 	popq	%r12
   1362c:	41 5b 	popq	%r11
   1362e:	41 5a 	popq	%r10
   13630:	41 59 	popq	%r9
   13632:	41 58 	popq	%r8
   13634:	5a 	popq	%rdx
   13635:	5b 	popq	%rbx
   13636:	59 	popq	%rcx
   13637:	58 	popq	%rax
   13638:	5e 	popq	%rsi
   13639:	5f 	popq	%rdi
   1363a:	48 83 c4 10 	addq	$16, %rsp
   1363e:	48 cf 	iretq

irq3:
   13640:	6a 00 	pushq	$0
   13642:	6a 23 	pushq	$35
   13644:	57 	pushq	%rdi
   13645:	56 	pushq	%rsi
   13646:	50 	pushq	%rax
   13647:	51 	pushq	%rcx
   13648:	53 	pushq	%rbx
   13649:	52 	pushq	%rdx
   1364a:	41 50 	pushq	%r8
   1364c:	41 51 	pushq	%r9
   1364e:	41 52 	pushq	%r10
   13650:	41 53 	pushq	%r11
   13652:	41 54 	pushq	%r12
   13654:	41 55 	pushq	%r13
   13656:	41 56 	pushq	%r14
   13658:	41 57 	pushq	%r15
   1365a:	54 	pushq	%rsp
   1365b:	55 	pushq	%rbp
   1365c:	48 89 e7 	movq	%rsp, %rdi
   1365f:	48 83 ec 28 	subq	$40, %rsp
   13663:	fc 	cld
   13664:	e8 f3 06 00 00 	callq	1779 <irq3_handler>
   13669:	48 83 c4 28 	addq	$40, %rsp
   1366d:	5d 	popq	%rbp
   1366e:	48 83 c4 08 	addq	$8, %rsp
   13672:	41 5f 	popq	%r15
   13674:	41 5e 	popq	%r14
   13676:	41 5d 	popq	%r13
   13678:	41 5c 	popq	%r12
   1367a:	41 5b 	popq	%r11
   1367c:	41 5a 	popq	%r10
   1367e:	41 59 	popq	%r9
   13680:	41 58 	popq	%r8
   13682:	5a 	popq	%rdx
   13683:	5b 	popq	%rbx
   13684:	59 	popq	%rcx
   13685:	58 	popq	%rax
   13686:	5e 	popq	%rsi
   13687:	5f 	popq	%rdi
   13688:	48 83 c4 10 	addq	$16, %rsp
   1368c:	48 cf 	iretq

irq4:
   1368e:	6a 00 	pushq	$0
   13690:	6a 24 	pushq	$36
   13692:	57 	pushq	%rdi
   13693:	56 	pushq	%rsi
   13694:	50 	pushq	%rax
   13695:	51 	pushq	%rcx
   13696:	53 	pushq	%rbx
   13697:	52 	pushq	%rdx
   13698:	41 50 	pushq	%r8
   1369a:	41 51 	pushq	%r9
   1369c:	41 52 	pushq	%r10
   1369e:	41 53 	pushq	%r11
   136a0:	41 54 	pushq	%r12
   136a2:	41 55 	pushq	%r13
   136a4:	41 56 	pushq	%r14
   136a6:	41 57 	pushq	%r15
   136a8:	54 	pushq	%rsp
   136a9:	55 	pushq	%rbp
   136aa:	48 89 e7 	movq	%rsp, %rdi
   136ad:	48 83 ec 28 	subq	$40, %rsp
   136b1:	fc 	cld
   136b2:	e8 c0 06 00 00 	callq	1728 <irq4_handler>
   136b7:	48 83 c4 28 	addq	$40, %rsp
   136bb:	5d 	popq	%rbp
   136bc:	48 83 c4 08 	addq	$8, %rsp
   136c0:	41 5f 	popq	%r15
   136c2:	41 5e 	popq	%r14
   136c4:	41 5d 	popq	%r13
   136c6:	41 5c 	popq	%r12
   136c8:	41 5b 	popq	%r11
   136ca:	41 5a 	popq	%r10
   136cc:	41 59 	popq	%r9
   136ce:	41 58 	popq	%r8
   136d0:	5a 	popq	%rdx
   136d1:	5b 	popq	%rbx
   136d2:	59 	popq	%rcx
   136d3:	58 	popq	%rax
   136d4:	5e 	popq	%rsi
   136d5:	5f 	popq	%rdi
   136d6:	48 83 c4 10 	addq	$16, %rsp
   136da:	48 cf 	iretq

irq5:
   136dc:	6a 00 	pushq	$0
   136de:	6a 25 	pushq	$37
   136e0:	57 	pushq	%rdi
   136e1:	56 	pushq	%rsi
   136e2:	50 	pushq	%rax
   136e3:	51 	pushq	%rcx
   136e4:	53 	pushq	%rbx
   136e5:	52 	pushq	%rdx
   136e6:	41 50 	pushq	%r8
   136e8:	41 51 	pushq	%r9
   136ea:	41 52 	pushq	%r10
   136ec:	41 53 	pushq	%r11
   136ee:	41 54 	pushq	%r12
   136f0:	41 55 	pushq	%r13
   136f2:	41 56 	pushq	%r14
   136f4:	41 57 	pushq	%r15
   136f6:	54 	pushq	%rsp
   136f7:	55 	pushq	%rbp
   136f8:	48 89 e7 	movq	%rsp, %rdi
   136fb:	48 83 ec 28 	subq	$40, %rsp
   136ff:	fc 	cld
   13700:	e8 8d 06 00 00 	callq	1677 <irq5_handler>
   13705:	48 83 c4 28 	addq	$40, %rsp
   13709:	5d 	popq	%rbp
   1370a:	48 83 c4 08 	addq	$8, %rsp
   1370e:	41 5f 	popq	%r15
   13710:	41 5e 	popq	%r14
   13712:	41 5d 	popq	%r13
   13714:	41 5c 	popq	%r12
   13716:	41 5b 	popq	%r11
   13718:	41 5a 	popq	%r10
   1371a:	41 59 	popq	%r9
   1371c:	41 58 	popq	%r8
   1371e:	5a 	popq	%rdx
   1371f:	5b 	popq	%rbx
   13720:	59 	popq	%rcx
   13721:	58 	popq	%rax
   13722:	5e 	popq	%rsi
   13723:	5f 	popq	%rdi
   13724:	48 83 c4 10 	addq	$16, %rsp
   13728:	48 cf 	iretq

irq6:
   1372a:	6a 00 	pushq	$0
   1372c:	6a 26 	pushq	$38
   1372e:	57 	pushq	%rdi
   1372f:	56 	pushq	%rsi
   13730:	50 	pushq	%rax
   13731:	51 	pushq	%rcx
   13732:	53 	pushq	%rbx
   13733:	52 	pushq	%rdx
   13734:	41 50 	pushq	%r8
   13736:	41 51 	pushq	%r9
   13738:	41 52 	pushq	%r10
   1373a:	41 53 	pushq	%r11
   1373c:	41 54 	pushq	%r12
   1373e:	41 55 	pushq	%r13
   13740:	41 56 	pushq	%r14
   13742:	41 57 	pushq	%r15
   13744:	54 	pushq	%rsp
   13745:	55 	pushq	%rbp
   13746:	48 89 e7 	movq	%rsp, %rdi
   13749:	48 83 ec 28 	subq	$40, %rsp
   1374d:	fc 	cld
   1374e:	e8 5a 06 00 00 	callq	1626 <irq6_handler>
   13753:	48 83 c4 28 	addq	$40, %rsp
   13757:	5d 	popq	%rbp
   13758:	48 83 c4 08 	addq	$8, %rsp
   1375c:	41 5f 	popq	%r15
   1375e:	41 5e 	popq	%r14
   13760:	41 5d 	popq	%r13
   13762:	41 5c 	popq	%r12
   13764:	41 5b 	popq	%r11
   13766:	41 5a 	popq	%r10
   13768:	41 59 	popq	%r9
   1376a:	41 58 	popq	%r8
   1376c:	5a 	popq	%rdx
   1376d:	5b 	popq	%rbx
   1376e:	59 	popq	%rcx
   1376f:	58 	popq	%rax
   13770:	5e 	popq	%rsi
   13771:	5f 	popq	%rdi
   13772:	48 83 c4 10 	addq	$16, %rsp
   13776:	48 cf 	iretq

irq7:
   13778:	6a 00 	pushq	$0
   1377a:	6a 27 	pushq	$39
   1377c:	57 	pushq	%rdi
   1377d:	56 	pushq	%rsi
   1377e:	50 	pushq	%rax
   1377f:	51 	pushq	%rcx
   13780:	53 	pushq	%rbx
   13781:	52 	pushq	%rdx
   13782:	41 50 	pushq	%r8
   13784:	41 51 	pushq	%r9
   13786:	41 52 	pushq	%r10
   13788:	41 53 	pushq	%r11
   1378a:	41 54 	pushq	%r12
   1378c:	41 55 	pushq	%r13
   1378e:	41 56 	pushq	%r14
   13790:	41 57 	pushq	%r15
   13792:	54 	pushq	%rsp
   13793:	55 	pushq	%rbp
   13794:	48 89 e7 	movq	%rsp, %rdi
   13797:	48 83 ec 28 	subq	$40, %rsp
   1379b:	fc 	cld
   1379c:	e8 27 06 00 00 	callq	1575 <irq7_handler>
   137a1:	48 83 c4 28 	addq	$40, %rsp
   137a5:	5d 	popq	%rbp
   137a6:	48 83 c4 08 	addq	$8, %rsp
   137aa:	41 5f 	popq	%r15
   137ac:	41 5e 	popq	%r14
   137ae:	41 5d 	popq	%r13
   137b0:	41 5c 	popq	%r12
   137b2:	41 5b 	popq	%r11
   137b4:	41 5a 	popq	%r10
   137b6:	41 59 	popq	%r9
   137b8:	41 58 	popq	%r8
   137ba:	5a 	popq	%rdx
   137bb:	5b 	popq	%rbx
   137bc:	59 	popq	%rcx
   137bd:	58 	popq	%rax
   137be:	5e 	popq	%rsi
   137bf:	5f 	popq	%rdi
   137c0:	48 83 c4 10 	addq	$16, %rsp
   137c4:	48 cf 	iretq

irq8:
   137c6:	6a 00 	pushq	$0
   137c8:	6a 28 	pushq	$40
   137ca:	57 	pushq	%rdi
   137cb:	56 	pushq	%rsi
   137cc:	50 	pushq	%rax
   137cd:	51 	pushq	%rcx
   137ce:	53 	pushq	%rbx
   137cf:	52 	pushq	%rdx
   137d0:	41 50 	pushq	%r8
   137d2:	41 51 	pushq	%r9
   137d4:	41 52 	pushq	%r10
   137d6:	41 53 	pushq	%r11
   137d8:	41 54 	pushq	%r12
   137da:	41 55 	pushq	%r13
   137dc:	41 56 	pushq	%r14
   137de:	41 57 	pushq	%r15
   137e0:	54 	pushq	%rsp
   137e1:	55 	pushq	%rbp
   137e2:	48 89 e7 	movq	%rsp, %rdi
   137e5:	48 83 ec 28 	subq	$40, %rsp
   137e9:	fc 	cld
   137ea:	e8 f4 05 00 00 	callq	1524 <irq8_handler>
   137ef:	48 83 c4 28 	addq	$40, %rsp
   137f3:	5d 	popq	%rbp
   137f4:	48 83 c4 08 	addq	$8, %rsp
   137f8:	41 5f 	popq	%r15
   137fa:	41 5e 	popq	%r14
   137fc:	41 5d 	popq	%r13
   137fe:	41 5c 	popq	%r12
   13800:	41 5b 	popq	%r11
   13802:	41 5a 	popq	%r10
   13804:	41 59 	popq	%r9
   13806:	41 58 	popq	%r8
   13808:	5a 	popq	%rdx
   13809:	5b 	popq	%rbx
   1380a:	59 	popq	%rcx
   1380b:	58 	popq	%rax
   1380c:	5e 	popq	%rsi
   1380d:	5f 	popq	%rdi
   1380e:	48 83 c4 10 	addq	$16, %rsp
   13812:	48 cf 	iretq

irq9:
   13814:	6a 00 	pushq	$0
   13816:	6a 29 	pushq	$41
   13818:	57 	pushq	%rdi
   13819:	56 	pushq	%rsi
   1381a:	50 	pushq	%rax
   1381b:	51 	pushq	%rcx
   1381c:	53 	pushq	%rbx
   1381d:	52 	pushq	%rdx
   1381e:	41 50 	pushq	%r8
   13820:	41 51 	pushq	%r9
   13822:	41 52 	pushq	%r10
   13824:	41 53 	pushq	%r11
   13826:	41 54 	pushq	%r12
   13828:	41 55 	pushq	%r13
   1382a:	41 56 	pushq	%r14
   1382c:	41 57 	pushq	%r15
   1382e:	54 	pushq	%rsp
   1382f:	55 	pushq	%rbp
   13830:	48 89 e7 	movq	%rsp, %rdi
   13833:	48 83 ec 28 	subq	$40, %rsp
   13837:	fc 	cld
   13838:	e8 17 06 00 00 	callq	1559 <irq9_handler>
   1383d:	48 83 c4 28 	addq	$40, %rsp
   13841:	5d 	popq	%rbp
   13842:	48 83 c4 08 	addq	$8, %rsp
   13846:	41 5f 	popq	%r15
   13848:	41 5e 	popq	%r14
   1384a:	41 5d 	popq	%r13
   1384c:	41 5c 	popq	%r12
   1384e:	41 5b 	popq	%r11
   13850:	41 5a 	popq	%r10
   13852:	41 59 	popq	%r9
   13854:	41 58 	popq	%r8
   13856:	5a 	popq	%rdx
   13857:	5b 	popq	%rbx
   13858:	59 	popq	%rcx
   13859:	58 	popq	%rax
   1385a:	5e 	popq	%rsi
   1385b:	5f 	popq	%rdi
   1385c:	48 83 c4 10 	addq	$16, %rsp
   13860:	48 cf 	iretq

irq10:
   13862:	6a 00 	pushq	$0
   13864:	6a 2a 	pushq	$42
   13866:	57 	pushq	%rdi
   13867:	56 	pushq	%rsi
   13868:	50 	pushq	%rax
   13869:	51 	pushq	%rcx
   1386a:	53 	pushq	%rbx
   1386b:	52 	pushq	%rdx
   1386c:	41 50 	pushq	%r8
   1386e:	41 51 	pushq	%r9
   13870:	41 52 	pushq	%r10
   13872:	41 53 	pushq	%r11
   13874:	41 54 	pushq	%r12
   13876:	41 55 	pushq	%r13
   13878:	41 56 	pushq	%r14
   1387a:	41 57 	pushq	%r15
   1387c:	54 	pushq	%rsp
   1387d:	55 	pushq	%rbp
   1387e:	48 89 e7 	movq	%rsp, %rdi
   13881:	48 83 ec 28 	subq	$40, %rsp
   13885:	fc 	cld
   13886:	e8 e4 05 00 00 	callq	1508 <irq10_handler>
   1388b:	48 83 c4 28 	addq	$40, %rsp
   1388f:	5d 	popq	%rbp
   13890:	48 83 c4 08 	addq	$8, %rsp
   13894:	41 5f 	popq	%r15
   13896:	41 5e 	popq	%r14
   13898:	41 5d 	popq	%r13
   1389a:	41 5c 	popq	%r12
   1389c:	41 5b 	popq	%r11
   1389e:	41 5a 	popq	%r10
   138a0:	41 59 	popq	%r9
   138a2:	41 58 	popq	%r8
   138a4:	5a 	popq	%rdx
   138a5:	5b 	popq	%rbx
   138a6:	59 	popq	%rcx
   138a7:	58 	popq	%rax
   138a8:	5e 	popq	%rsi
   138a9:	5f 	popq	%rdi
   138aa:	48 83 c4 10 	addq	$16, %rsp
   138ae:	48 cf 	iretq

irq11:
   138b0:	6a 00 	pushq	$0
   138b2:	6a 2b 	pushq	$43
   138b4:	57 	pushq	%rdi
   138b5:	56 	pushq	%rsi
   138b6:	50 	pushq	%rax
   138b7:	51 	pushq	%rcx
   138b8:	53 	pushq	%rbx
   138b9:	52 	pushq	%rdx
   138ba:	41 50 	pushq	%r8
   138bc:	41 51 	pushq	%r9
   138be:	41 52 	pushq	%r10
   138c0:	41 53 	pushq	%r11
   138c2:	41 54 	pushq	%r12
   138c4:	41 55 	pushq	%r13
   138c6:	41 56 	pushq	%r14
   138c8:	41 57 	pushq	%r15
   138ca:	54 	pushq	%rsp
   138cb:	55 	pushq	%rbp
   138cc:	48 89 e7 	movq	%rsp, %rdi
   138cf:	48 83 ec 28 	subq	$40, %rsp
   138d3:	fc 	cld
   138d4:	e8 b1 05 00 00 	callq	1457 <irq11_handler>
   138d9:	48 83 c4 28 	addq	$40, %rsp
   138dd:	5d 	popq	%rbp
   138de:	48 83 c4 08 	addq	$8, %rsp
   138e2:	41 5f 	popq	%r15
   138e4:	41 5e 	popq	%r14
   138e6:	41 5d 	popq	%r13
   138e8:	41 5c 	popq	%r12
   138ea:	41 5b 	popq	%r11
   138ec:	41 5a 	popq	%r10
   138ee:	41 59 	popq	%r9
   138f0:	41 58 	popq	%r8
   138f2:	5a 	popq	%rdx
   138f3:	5b 	popq	%rbx
   138f4:	59 	popq	%rcx
   138f5:	58 	popq	%rax
   138f6:	5e 	popq	%rsi
   138f7:	5f 	popq	%rdi
   138f8:	48 83 c4 10 	addq	$16, %rsp
   138fc:	48 cf 	iretq

irq12:
   138fe:	6a 00 	pushq	$0
   13900:	6a 2c 	pushq	$44
   13902:	57 	pushq	%rdi
   13903:	56 	pushq	%rsi
   13904:	50 	pushq	%rax
   13905:	51 	pushq	%rcx
   13906:	53 	pushq	%rbx
   13907:	52 	pushq	%rdx
   13908:	41 50 	pushq	%r8
   1390a:	41 51 	pushq	%r9
   1390c:	41 52 	pushq	%r10
   1390e:	41 53 	pushq	%r11
   13910:	41 54 	pushq	%r12
   13912:	41 55 	pushq	%r13
   13914:	41 56 	pushq	%r14
   13916:	41 57 	pushq	%r15
   13918:	54 	pushq	%rsp
   13919:	55 	pushq	%rbp
   1391a:	48 89 e7 	movq	%rsp, %rdi
   1391d:	48 83 ec 28 	subq	$40, %rsp
   13921:	fc 	cld
   13922:	e8 7e 05 00 00 	callq	1406 <irq12_handler>
   13927:	48 83 c4 28 	addq	$40, %rsp
   1392b:	5d 	popq	%rbp
   1392c:	48 83 c4 08 	addq	$8, %rsp
   13930:	41 5f 	popq	%r15
   13932:	41 5e 	popq	%r14
   13934:	41 5d 	popq	%r13
   13936:	41 5c 	popq	%r12
   13938:	41 5b 	popq	%r11
   1393a:	41 5a 	popq	%r10
   1393c:	41 59 	popq	%r9
   1393e:	41 58 	popq	%r8
   13940:	5a 	popq	%rdx
   13941:	5b 	popq	%rbx
   13942:	59 	popq	%rcx
   13943:	58 	popq	%rax
   13944:	5e 	popq	%rsi
   13945:	5f 	popq	%rdi
   13946:	48 83 c4 10 	addq	$16, %rsp
   1394a:	48 cf 	iretq

irq13:
   1394c:	6a 00 	pushq	$0
   1394e:	6a 2d 	pushq	$45
   13950:	57 	pushq	%rdi
   13951:	56 	pushq	%rsi
   13952:	50 	pushq	%rax
   13953:	51 	pushq	%rcx
   13954:	53 	pushq	%rbx
   13955:	52 	pushq	%rdx
   13956:	41 50 	pushq	%r8
   13958:	41 51 	pushq	%r9
   1395a:	41 52 	pushq	%r10
   1395c:	41 53 	pushq	%r11
   1395e:	41 54 	pushq	%r12
   13960:	41 55 	pushq	%r13
   13962:	41 56 	pushq	%r14
   13964:	41 57 	pushq	%r15
   13966:	54 	pushq	%rsp
   13967:	55 	pushq	%rbp
   13968:	48 89 e7 	movq	%rsp, %rdi
   1396b:	48 83 ec 28 	subq	$40, %rsp
   1396f:	fc 	cld
   13970:	e8 4b 05 00 00 	callq	1355 <irq13_handler>
   13975:	48 83 c4 28 	addq	$40, %rsp
   13979:	5d 	popq	%rbp
   1397a:	48 83 c4 08 	addq	$8, %rsp
   1397e:	41 5f 	popq	%r15
   13980:	41 5e 	popq	%r14
   13982:	41 5d 	popq	%r13
   13984:	41 5c 	popq	%r12
   13986:	41 5b 	popq	%r11
   13988:	41 5a 	popq	%r10
   1398a:	41 59 	popq	%r9
   1398c:	41 58 	popq	%r8
   1398e:	5a 	popq	%rdx
   1398f:	5b 	popq	%rbx
   13990:	59 	popq	%rcx
   13991:	58 	popq	%rax
   13992:	5e 	popq	%rsi
   13993:	5f 	popq	%rdi
   13994:	48 83 c4 10 	addq	$16, %rsp
   13998:	48 cf 	iretq

irq14:
   1399a:	6a 00 	pushq	$0
   1399c:	6a 2e 	pushq	$46
   1399e:	57 	pushq	%rdi
   1399f:	56 	pushq	%rsi
   139a0:	50 	pushq	%rax
   139a1:	51 	pushq	%rcx
   139a2:	53 	pushq	%rbx
   139a3:	52 	pushq	%rdx
   139a4:	41 50 	pushq	%r8
   139a6:	41 51 	pushq	%r9
   139a8:	41 52 	pushq	%r10
   139aa:	41 53 	pushq	%r11
   139ac:	41 54 	pushq	%r12
   139ae:	41 55 	pushq	%r13
   139b0:	41 56 	pushq	%r14
   139b2:	41 57 	pushq	%r15
   139b4:	54 	pushq	%rsp
   139b5:	55 	pushq	%rbp
   139b6:	48 89 e7 	movq	%rsp, %rdi
   139b9:	48 83 ec 28 	subq	$40, %rsp
   139bd:	fc 	cld
   139be:	e8 18 05 00 00 	callq	1304 <irq14_handler>
   139c3:	48 83 c4 28 	addq	$40, %rsp
   139c7:	5d 	popq	%rbp
   139c8:	48 83 c4 08 	addq	$8, %rsp
   139cc:	41 5f 	popq	%r15
   139ce:	41 5e 	popq	%r14
   139d0:	41 5d 	popq	%r13
   139d2:	41 5c 	popq	%r12
   139d4:	41 5b 	popq	%r11
   139d6:	41 5a 	popq	%r10
   139d8:	41 59 	popq	%r9
   139da:	41 58 	popq	%r8
   139dc:	5a 	popq	%rdx
   139dd:	5b 	popq	%rbx
   139de:	59 	popq	%rcx
   139df:	58 	popq	%rax
   139e0:	5e 	popq	%rsi
   139e1:	5f 	popq	%rdi
   139e2:	48 83 c4 10 	addq	$16, %rsp
   139e6:	48 cf 	iretq

irq15:
   139e8:	6a 00 	pushq	$0
   139ea:	6a 2f 	pushq	$47
   139ec:	57 	pushq	%rdi
   139ed:	56 	pushq	%rsi
   139ee:	50 	pushq	%rax
   139ef:	51 	pushq	%rcx
   139f0:	53 	pushq	%rbx
   139f1:	52 	pushq	%rdx
   139f2:	41 50 	pushq	%r8
   139f4:	41 51 	pushq	%r9
   139f6:	41 52 	pushq	%r10
   139f8:	41 53 	pushq	%r11
   139fa:	41 54 	pushq	%r12
   139fc:	41 55 	pushq	%r13
   139fe:	41 56 	pushq	%r14
   13a00:	41 57 	pushq	%r15
   13a02:	54 	pushq	%rsp
   13a03:	55 	pushq	%rbp
   13a04:	48 89 e7 	movq	%rsp, %rdi
   13a07:	48 83 ec 28 	subq	$40, %rsp
   13a0b:	fc 	cld
   13a0c:	e8 e5 04 00 00 	callq	1253 <irq15_handler>
   13a11:	48 83 c4 28 	addq	$40, %rsp
   13a15:	5d 	popq	%rbp
   13a16:	48 83 c4 08 	addq	$8, %rsp
   13a1a:	41 5f 	popq	%r15
   13a1c:	41 5e 	popq	%r14
   13a1e:	41 5d 	popq	%r13
   13a20:	41 5c 	popq	%r12
   13a22:	41 5b 	popq	%r11
   13a24:	41 5a 	popq	%r10
   13a26:	41 59 	popq	%r9
   13a28:	41 58 	popq	%r8
   13a2a:	5a 	popq	%rdx
   13a2b:	5b 	popq	%rbx
   13a2c:	59 	popq	%rcx
   13a2d:	58 	popq	%rax
   13a2e:	5e 	popq	%rsi
   13a2f:	5f 	popq	%rdi
   13a30:	48 83 c4 10 	addq	$16, %rsp
   13a34:	48 cf 	iretq

isr0_handler:
   13a36:	55 	pushq	%rbp
   13a37:	48 89 e5 	movq	%rsp, %rbp
   13a3a:	48 83 ec 10 	subq	$16, %rsp
   13a3e:	48 89 7d f8 	movq	%rdi, -8(%rbp)
   13a42:	48 8b 45 f8 	movq	-8(%rbp), %rax
   13a46:	be 00 f0 01 00 	movl	$126976, %esi
   13a4b:	48 89 c7 	movq	%rax, %rdi
   13a4e:	e8 1f f1 ff ff 	callq	-3809 <dumpRegistersToRAM>
   13a53:	eb fe 	jmp	-2 <isr0_handler+0x1d>

isr1_handler:
   13a55:	55 	pushq	%rbp
   13a56:	48 89 e5 	movq	%rsp, %rbp
   13a59:	48 83 ec 10 	subq	$16, %rsp
   13a5d:	48 89 7d f8 	movq	%rdi, -8(%rbp)
   13a61:	48 8b 45 f8 	movq	-8(%rbp), %rax
   13a65:	be 00 f0 01 00 	movl	$126976, %esi
   13a6a:	48 89 c7 	movq	%rax, %rdi
   13a6d:	e8 00 f1 ff ff 	callq	-3840 <dumpRegistersToRAM>
   13a72:	eb fe 	jmp	-2 <isr1_handler+0x1d>

isr2_handler:
   13a74:	55 	pushq	%rbp
   13a75:	48 89 e5 	movq	%rsp, %rbp
   13a78:	48 83 ec 10 	subq	$16, %rsp
   13a7c:	48 89 7d f8 	movq	%rdi, -8(%rbp)
   13a80:	48 8b 45 f8 	movq	-8(%rbp), %rax
   13a84:	be 00 f0 01 00 	movl	$126976, %esi
   13a89:	48 89 c7 	movq	%rax, %rdi
   13a8c:	e8 e1 f0 ff ff 	callq	-3871 <dumpRegistersToRAM>
   13a91:	eb fe 	jmp	-2 <isr2_handler+0x1d>

isr3_handler:
   13a93:	55 	pushq	%rbp
   13a94:	48 89 e5 	movq	%rsp, %rbp
   13a97:	48 83 ec 10 	subq	$16, %rsp
   13a9b:	48 89 7d f8 	movq	%rdi, -8(%rbp)
   13a9f:	48 8b 45 f8 	movq	-8(%rbp), %rax
   13aa3:	be 00 f0 01 00 	movl	$126976, %esi
   13aa8:	48 89 c7 	movq	%rax, %rdi
   13aab:	e8 c2 f0 ff ff 	callq	-3902 <dumpRegistersToRAM>
   13ab0:	eb fe 	jmp	-2 <isr3_handler+0x1d>

isr4_handler:
   13ab2:	55 	pushq	%rbp
   13ab3:	48 89 e5 	movq	%rsp, %rbp
   13ab6:	48 83 ec 10 	subq	$16, %rsp
   13aba:	48 89 7d f8 	movq	%rdi, -8(%rbp)
   13abe:	48 8b 45 f8 	movq	-8(%rbp), %rax
   13ac2:	be 00 f0 01 00 	movl	$126976, %esi
   13ac7:	48 89 c7 	movq	%rax, %rdi
   13aca:	e8 a3 f0 ff ff 	callq	-3933 <dumpRegistersToRAM>
   13acf:	eb fe 	jmp	-2 <isr4_handler+0x1d>

isr5_handler:
   13ad1:	55 	pushq	%rbp
   13ad2:	48 89 e5 	movq	%rsp, %rbp
   13ad5:	48 83 ec 10 	subq	$16, %rsp
   13ad9:	48 89 7d f8 	movq	%rdi, -8(%rbp)
   13add:	48 8b 45 f8 	movq	-8(%rbp), %rax
   13ae1:	be 00 f0 01 00 	movl	$126976, %esi
   13ae6:	48 89 c7 	movq	%rax, %rdi
   13ae9:	e8 84 f0 ff ff 	callq	-3964 <dumpRegistersToRAM>
   13aee:	eb fe 	jmp	-2 <isr5_handler+0x1d>

isr6_handler:
   13af0:	55 	pushq	%rbp
   13af1:	48 89 e5 	movq	%rsp, %rbp
   13af4:	48 83 ec 10 	subq	$16, %rsp
   13af8:	48 89 7d f8 	movq	%rdi, -8(%rbp)
   13afc:	48 8b 45 f8 	movq	-8(%rbp), %rax
   13b00:	be 00 f0 01 00 	movl	$126976, %esi
   13b05:	48 89 c7 	movq	%rax, %rdi
   13b08:	e8 65 f0 ff ff 	callq	-3995 <dumpRegistersToRAM>
   13b0d:	eb fe 	jmp	-2 <isr6_handler+0x1d>

isr7_handler:
   13b0f:	55 	pushq	%rbp
   13b10:	48 89 e5 	movq	%rsp, %rbp
   13b13:	48 83 ec 10 	subq	$16, %rsp
   13b17:	48 89 7d f8 	movq	%rdi, -8(%rbp)
   13b1b:	48 8b 45 f8 	movq	-8(%rbp), %rax
   13b1f:	be 00 f0 01 00 	movl	$126976, %esi
   13b24:	48 89 c7 	movq	%rax, %rdi
   13b27:	e8 46 f0 ff ff 	callq	-4026 <dumpRegistersToRAM>
   13b2c:	eb fe 	jmp	-2 <isr7_handler+0x1d>

isr8_handler:
   13b2e:	55 	pushq	%rbp
   13b2f:	48 89 e5 	movq	%rsp, %rbp
   13b32:	48 83 ec 10 	subq	$16, %rsp
   13b36:	48 89 7d f8 	movq	%rdi, -8(%rbp)
   13b3a:	48 8b 45 f8 	movq	-8(%rbp), %rax
   13b3e:	be 00 f0 01 00 	movl	$126976, %esi
   13b43:	48 89 c7 	movq	%rax, %rdi
   13b46:	e8 27 f0 ff ff 	callq	-4057 <dumpRegistersToRAM>
   13b4b:	eb fe 	jmp	-2 <isr8_handler+0x1d>

isr9_handler:
   13b4d:	55 	pushq	%rbp
   13b4e:	48 89 e5 	movq	%rsp, %rbp
   13b51:	48 83 ec 10 	subq	$16, %rsp
   13b55:	48 89 7d f8 	movq	%rdi, -8(%rbp)
   13b59:	48 8b 45 f8 	movq	-8(%rbp), %rax
   13b5d:	be 00 f0 01 00 	movl	$126976, %esi
   13b62:	48 89 c7 	movq	%rax, %rdi
   13b65:	e8 08 f0 ff ff 	callq	-4088 <dumpRegistersToRAM>
   13b6a:	eb fe 	jmp	-2 <isr9_handler+0x1d>

isr10_handler:
   13b6c:	55 	pushq	%rbp
   13b6d:	48 89 e5 	movq	%rsp, %rbp
   13b70:	48 83 ec 10 	subq	$16, %rsp
   13b74:	48 89 7d f8 	movq	%rdi, -8(%rbp)
   13b78:	48 8b 45 f8 	movq	-8(%rbp), %rax
   13b7c:	be 00 f0 01 00 	movl	$126976, %esi
   13b81:	48 89 c7 	movq	%rax, %rdi
   13b84:	e8 e9 ef ff ff 	callq	-4119 <dumpRegistersToRAM>
   13b89:	eb fe 	jmp	-2 <isr10_handler+0x1d>

isr11_handler:
   13b8b:	55 	pushq	%rbp
   13b8c:	48 89 e5 	movq	%rsp, %rbp
   13b8f:	48 83 ec 10 	subq	$16, %rsp
   13b93:	48 89 7d f8 	movq	%rdi, -8(%rbp)
   13b97:	48 8b 45 f8 	movq	-8(%rbp), %rax
   13b9b:	be 00 f0 01 00 	movl	$126976, %esi
   13ba0:	48 89 c7 	movq	%rax, %rdi
   13ba3:	e8 ca ef ff ff 	callq	-4150 <dumpRegistersToRAM>
   13ba8:	eb fe 	jmp	-2 <isr11_handler+0x1d>

isr12_handler:
   13baa:	55 	pushq	%rbp
   13bab:	48 89 e5 	movq	%rsp, %rbp
   13bae:	48 83 ec 10 	subq	$16, %rsp
   13bb2:	48 89 7d f8 	movq	%rdi, -8(%rbp)
   13bb6:	48 8b 45 f8 	movq	-8(%rbp), %rax
   13bba:	be 00 f0 01 00 	movl	$126976, %esi
   13bbf:	48 89 c7 	movq	%rax, %rdi
   13bc2:	e8 ab ef ff ff 	callq	-4181 <dumpRegistersToRAM>
   13bc7:	eb fe 	jmp	-2 <isr12_handler+0x1d>

isr13_handler:
   13bc9:	55 	pushq	%rbp
   13bca:	48 89 e5 	movq	%rsp, %rbp
   13bcd:	48 83 ec 10 	subq	$16, %rsp
   13bd1:	48 89 7d f8 	movq	%rdi, -8(%rbp)
   13bd5:	48 8b 45 f8 	movq	-8(%rbp), %rax
   13bd9:	be 00 f0 01 00 	movl	$126976, %esi
   13bde:	48 89 c7 	movq	%rax, %rdi
   13be1:	e8 8c ef ff ff 	callq	-4212 <dumpRegistersToRAM>
   13be6:	eb fe 	jmp	-2 <isr13_handler+0x1d>

isr14_handler:
   13be8:	55 	pushq	%rbp
   13be9:	48 89 e5 	movq	%rsp, %rbp
   13bec:	48 83 ec 10 	subq	$16, %rsp
   13bf0:	48 89 7d f8 	movq	%rdi, -8(%rbp)
   13bf4:	48 8b 45 f8 	movq	-8(%rbp), %rax
   13bf8:	be 00 f0 01 00 	movl	$126976, %esi
   13bfd:	48 89 c7 	movq	%rax, %rdi
   13c00:	e8 6d ef ff ff 	callq	-4243 <dumpRegistersToRAM>
   13c05:	eb fe 	jmp	-2 <isr14_handler+0x1d>

isr15_handler:
   13c07:	55 	pushq	%rbp
   13c08:	48 89 e5 	movq	%rsp, %rbp
   13c0b:	48 89 7d f8 	movq	%rdi, -8(%rbp)
   13c0f:	eb fe 	jmp	-2 <isr15_handler+0x8>

isr16_handler:
   13c11:	55 	pushq	%rbp
   13c12:	48 89 e5 	movq	%rsp, %rbp
   13c15:	48 89 7d f8 	movq	%rdi, -8(%rbp)
   13c19:	eb fe 	jmp	-2 <isr16_handler+0x8>

isr17_handler:
   13c1b:	55 	pushq	%rbp
   13c1c:	48 89 e5 	movq	%rsp, %rbp
   13c1f:	48 89 7d f8 	movq	%rdi, -8(%rbp)
   13c23:	eb fe 	jmp	-2 <isr17_handler+0x8>

isr18_handler:
   13c25:	55 	pushq	%rbp
   13c26:	48 89 e5 	movq	%rsp, %rbp
   13c29:	48 89 7d f8 	movq	%rdi, -8(%rbp)
   13c2d:	eb fe 	jmp	-2 <isr18_handler+0x8>

isr19_handler:
   13c2f:	55 	pushq	%rbp
   13c30:	48 89 e5 	movq	%rsp, %rbp
   13c33:	48 89 7d f8 	movq	%rdi, -8(%rbp)
   13c37:	eb fe 	jmp	-2 <isr19_handler+0x8>

isr20_handler:
   13c39:	55 	pushq	%rbp
   13c3a:	48 89 e5 	movq	%rsp, %rbp
   13c3d:	48 89 7d f8 	movq	%rdi, -8(%rbp)
   13c41:	eb fe 	jmp	-2 <isr20_handler+0x8>

isr21_handler:
   13c43:	55 	pushq	%rbp
   13c44:	48 89 e5 	movq	%rsp, %rbp
   13c47:	48 89 7d f8 	movq	%rdi, -8(%rbp)
   13c4b:	eb fe 	jmp	-2 <isr21_handler+0x8>

isr22_handler:
   13c4d:	55 	pushq	%rbp
   13c4e:	48 89 e5 	movq	%rsp, %rbp
   13c51:	48 89 7d f8 	movq	%rdi, -8(%rbp)
   13c55:	eb fe 	jmp	-2 <isr22_handler+0x8>

isr23_handler:
   13c57:	55 	pushq	%rbp
   13c58:	48 89 e5 	movq	%rsp, %rbp
   13c5b:	48 89 7d f8 	movq	%rdi, -8(%rbp)
   13c5f:	eb fe 	jmp	-2 <isr23_handler+0x8>

isr24_handler:
   13c61:	55 	pushq	%rbp
   13c62:	48 89 e5 	movq	%rsp, %rbp
   13c65:	48 89 7d f8 	movq	%rdi, -8(%rbp)
   13c69:	eb fe 	jmp	-2 <isr24_handler+0x8>

isr25_handler:
   13c6b:	55 	pushq	%rbp
   13c6c:	48 89 e5 	movq	%rsp, %rbp
   13c6f:	48 89 7d f8 	movq	%rdi, -8(%rbp)
   13c73:	eb fe 	jmp	-2 <isr25_handler+0x8>

isr26_handler:
   13c75:	55 	pushq	%rbp
   13c76:	48 89 e5 	movq	%rsp, %rbp
   13c79:	48 89 7d f8 	movq	%rdi, -8(%rbp)
   13c7d:	eb fe 	jmp	-2 <isr26_handler+0x8>

isr27_handler:
   13c7f:	55 	pushq	%rbp
   13c80:	48 89 e5 	movq	%rsp, %rbp
   13c83:	48 89 7d f8 	movq	%rdi, -8(%rbp)
   13c87:	eb fe 	jmp	-2 <isr27_handler+0x8>

isr28_handler:
   13c89:	55 	pushq	%rbp
   13c8a:	48 89 e5 	movq	%rsp, %rbp
   13c8d:	48 89 7d f8 	movq	%rdi, -8(%rbp)
   13c91:	eb fe 	jmp	-2 <isr28_handler+0x8>

isr29_handler:
   13c93:	55 	pushq	%rbp
   13c94:	48 89 e5 	movq	%rsp, %rbp
   13c97:	48 89 7d f8 	movq	%rdi, -8(%rbp)
   13c9b:	eb fe 	jmp	-2 <isr29_handler+0x8>

isr30_handler:
   13c9d:	55 	pushq	%rbp
   13c9e:	48 89 e5 	movq	%rsp, %rbp
   13ca1:	48 89 7d f8 	movq	%rdi, -8(%rbp)
   13ca5:	eb fe 	jmp	-2 <isr30_handler+0x8>

isr31_handler:
   13ca7:	55 	pushq	%rbp
   13ca8:	48 89 e5 	movq	%rsp, %rbp
   13cab:	48 89 7d f8 	movq	%rdi, -8(%rbp)
   13caf:	eb fe 	jmp	-2 <isr31_handler+0x8>

default_irq_handler:
   13cb1:	55 	pushq	%rbp
   13cb2:	48 89 e5 	movq	%rsp, %rbp
   13cb5:	48 83 ec 10 	subq	$16, %rsp
   13cb9:	48 89 7d f8 	movq	%rdi, -8(%rbp)
   13cbd:	48 8b 45 f8 	movq	-8(%rbp), %rax
   13cc1:	48 8b 80 80 00 00 00 	movq	128(%rax), %rax
   13cc8:	48 83 f8 07 	cmpq	$7, %rax
   13ccc:	76 14 	jbe	20 <default_irq_handler+0x31>
   13cce:	be 20 00 00 00 	movl	$32, %esi
   13cd3:	bf a0 00 00 00 	movl	$160, %edi
   13cd8:	b8 00 00 00 00 	movl	$0, %eax
   13cdd:	e8 a8 e6 ff ff 	callq	-6488 <outb>
   13ce2:	be 20 00 00 00 	movl	$32, %esi
   13ce7:	bf 20 00 00 00 	movl	$32, %edi
   13cec:	b8 00 00 00 00 	movl	$0, %eax
   13cf1:	e8 94 e6 ff ff 	callq	-6508 <outb>
   13cf6:	90 	nop
   13cf7:	c9 	leave
   13cf8:	c3 	retq

irq0_handler:
   13cf9:	55 	pushq	%rbp
   13cfa:	48 89 e5 	movq	%rsp, %rbp
   13cfd:	48 83 ec 10 	subq	$16, %rsp
   13d01:	48 89 7d f8 	movq	%rdi, -8(%rbp)
   13d05:	48 8b 05 74 41 00 00 	movq	16756(%rip), %rax
   13d0c:	48 83 c0 01 	addq	$1, %rax
   13d10:	48 89 05 69 41 00 00 	movq	%rax, 16745(%rip)
   13d17:	48 8b 45 f8 	movq	-8(%rbp), %rax
   13d1b:	48 89 c7 	movq	%rax, %rdi
   13d1e:	e8 8e ff ff ff 	callq	-114 <default_irq_handler>
   13d23:	90 	nop
   13d24:	c9 	leave
   13d25:	c3 	retq

irq1_handler:
   13d26:	55 	pushq	%rbp
   13d27:	48 89 e5 	movq	%rsp, %rbp
   13d2a:	48 83 ec 10 	subq	$16, %rsp
   13d2e:	48 89 7d f8 	movq	%rdi, -8(%rbp)
   13d32:	48 8b 45 f8 	movq	-8(%rbp), %rax
   13d36:	48 89 c7 	movq	%rax, %rdi
   13d39:	e8 73 ff ff ff 	callq	-141 <default_irq_handler>
   13d3e:	90 	nop
   13d3f:	c9 	leave
   13d40:	c3 	retq

irq2_handler:
   13d41:	55 	pushq	%rbp
   13d42:	48 89 e5 	movq	%rsp, %rbp
   13d45:	48 83 ec 10 	subq	$16, %rsp
   13d49:	48 89 7d f8 	movq	%rdi, -8(%rbp)
   13d4d:	48 8b 45 f8 	movq	-8(%rbp), %rax
   13d51:	48 89 c7 	movq	%rax, %rdi
   13d54:	e8 58 ff ff ff 	callq	-168 <default_irq_handler>
   13d59:	90 	nop
   13d5a:	c9 	leave
   13d5b:	c3 	retq

irq3_handler:
   13d5c:	55 	pushq	%rbp
   13d5d:	48 89 e5 	movq	%rsp, %rbp
   13d60:	48 83 ec 10 	subq	$16, %rsp
   13d64:	48 89 7d f8 	movq	%rdi, -8(%rbp)
   13d68:	48 8b 45 f8 	movq	-8(%rbp), %rax
   13d6c:	48 89 c7 	movq	%rax, %rdi
   13d6f:	e8 3d ff ff ff 	callq	-195 <default_irq_handler>
   13d74:	90 	nop
   13d75:	c9 	leave
   13d76:	c3 	retq

irq4_handler:
   13d77:	55 	pushq	%rbp
   13d78:	48 89 e5 	movq	%rsp, %rbp
   13d7b:	48 83 ec 10 	subq	$16, %rsp
   13d7f:	48 89 7d f8 	movq	%rdi, -8(%rbp)
   13d83:	48 8b 45 f8 	movq	-8(%rbp), %rax
   13d87:	48 89 c7 	movq	%rax, %rdi
   13d8a:	e8 22 ff ff ff 	callq	-222 <default_irq_handler>
   13d8f:	90 	nop
   13d90:	c9 	leave
   13d91:	c3 	retq

irq5_handler:
   13d92:	55 	pushq	%rbp
   13d93:	48 89 e5 	movq	%rsp, %rbp
   13d96:	48 83 ec 10 	subq	$16, %rsp
   13d9a:	48 89 7d f8 	movq	%rdi, -8(%rbp)
   13d9e:	48 8b 45 f8 	movq	-8(%rbp), %rax
   13da2:	48 89 c7 	movq	%rax, %rdi
   13da5:	e8 07 ff ff ff 	callq	-249 <default_irq_handler>
   13daa:	90 	nop
   13dab:	c9 	leave
   13dac:	c3 	retq

irq6_handler:
   13dad:	55 	pushq	%rbp
   13dae:	48 89 e5 	movq	%rsp, %rbp
   13db1:	48 83 ec 10 	subq	$16, %rsp
   13db5:	48 89 7d f8 	movq	%rdi, -8(%rbp)
   13db9:	48 8b 45 f8 	movq	-8(%rbp), %rax
   13dbd:	48 89 c7 	movq	%rax, %rdi
   13dc0:	e8 ec fe ff ff 	callq	-276 <default_irq_handler>
   13dc5:	90 	nop
   13dc6:	c9 	leave
   13dc7:	c3 	retq

irq7_handler:
   13dc8:	55 	pushq	%rbp
   13dc9:	48 89 e5 	movq	%rsp, %rbp
   13dcc:	48 83 ec 10 	subq	$16, %rsp
   13dd0:	48 89 7d f8 	movq	%rdi, -8(%rbp)
   13dd4:	48 8b 45 f8 	movq	-8(%rbp), %rax
   13dd8:	48 89 c7 	movq	%rax, %rdi
   13ddb:	e8 d1 fe ff ff 	callq	-303 <default_irq_handler>
   13de0:	90 	nop
   13de1:	c9 	leave
   13de2:	c3 	retq

irq8_handler:
   13de3:	55 	pushq	%rbp
   13de4:	48 89 e5 	movq	%rsp, %rbp
   13de7:	48 83 ec 10 	subq	$16, %rsp
   13deb:	48 89 7d f8 	movq	%rdi, -8(%rbp)
   13def:	48 8b 05 92 40 00 00 	movq	16530(%rip), %rax
   13df6:	48 83 c0 01 	addq	$1, %rax
   13dfa:	48 89 05 87 40 00 00 	movq	%rax, 16519(%rip)
   13e01:	48 8b 05 80 40 00 00 	movq	16512(%rip), %rax
   13e08:	83 e0 01 	andl	$1, %eax
   13e0b:	48 85 c0 	testq	%rax, %rax
   13e0e:	75 12 	jne	18 <irq8_handler+0x3f>
   13e10:	48 8b 05 71 40 00 00 	movq	16497(%rip), %rax
   13e17:	ba 00 f0 01 00 	movl	$126976, %edx
   13e1c:	48 d1 e8 	shrq	%rax
   13e1f:	48 89 02 	movq	%rax, (%rdx)
   13e22:	be 0c 00 00 00 	movl	$12, %esi
   13e27:	bf 70 00 00 00 	movl	$112, %edi
   13e2c:	b8 00 00 00 00 	movl	$0, %eax
   13e31:	e8 54 e5 ff ff 	callq	-6828 <outb>
   13e36:	bf 71 00 00 00 	movl	$113, %edi
   13e3b:	b8 00 00 00 00 	movl	$0, %eax
   13e40:	e8 2b e5 ff ff 	callq	-6869 <inb>
   13e45:	48 8b 45 f8 	movq	-8(%rbp), %rax
   13e49:	48 89 c7 	movq	%rax, %rdi
   13e4c:	e8 60 fe ff ff 	callq	-416 <default_irq_handler>
   13e51:	90 	nop
   13e52:	c9 	leave
   13e53:	c3 	retq

irq9_handler:
   13e54:	55 	pushq	%rbp
   13e55:	48 89 e5 	movq	%rsp, %rbp
   13e58:	48 83 ec 10 	subq	$16, %rsp
   13e5c:	48 89 7d f8 	movq	%rdi, -8(%rbp)
   13e60:	48 8b 45 f8 	movq	-8(%rbp), %rax
   13e64:	48 89 c7 	movq	%rax, %rdi
   13e67:	e8 45 fe ff ff 	callq	-443 <default_irq_handler>
   13e6c:	90 	nop
   13e6d:	c9 	leave
   13e6e:	c3 	retq

irq10_handler:
   13e6f:	55 	pushq	%rbp
   13e70:	48 89 e5 	movq	%rsp, %rbp
   13e73:	48 83 ec 10 	subq	$16, %rsp
   13e77:	48 89 7d f8 	movq	%rdi, -8(%rbp)
   13e7b:	48 8b 45 f8 	movq	-8(%rbp), %rax
   13e7f:	48 89 c7 	movq	%rax, %rdi
   13e82:	e8 2a fe ff ff 	callq	-470 <default_irq_handler>
   13e87:	90 	nop
   13e88:	c9 	leave
   13e89:	c3 	retq

irq11_handler:
   13e8a:	55 	pushq	%rbp
   13e8b:	48 89 e5 	movq	%rsp, %rbp
   13e8e:	48 83 ec 10 	subq	$16, %rsp
   13e92:	48 89 7d f8 	movq	%rdi, -8(%rbp)
   13e96:	48 8b 45 f8 	movq	-8(%rbp), %rax
   13e9a:	48 89 c7 	movq	%rax, %rdi
   13e9d:	e8 0f fe ff ff 	callq	-497 <default_irq_handler>
   13ea2:	90 	nop
   13ea3:	c9 	leave
   13ea4:	c3 	retq

irq12_handler:
   13ea5:	55 	pushq	%rbp
   13ea6:	48 89 e5 	movq	%rsp, %rbp
   13ea9:	48 83 ec 10 	subq	$16, %rsp
   13ead:	48 89 7d f8 	movq	%rdi, -8(%rbp)
   13eb1:	48 8b 45 f8 	movq	-8(%rbp), %rax
   13eb5:	48 89 c7 	movq	%rax, %rdi
   13eb8:	e8 f4 fd ff ff 	callq	-524 <default_irq_handler>
   13ebd:	90 	nop
   13ebe:	c9 	leave
   13ebf:	c3 	retq

irq13_handler:
   13ec0:	55 	pushq	%rbp
   13ec1:	48 89 e5 	movq	%rsp, %rbp
   13ec4:	48 83 ec 10 	subq	$16, %rsp
   13ec8:	48 89 7d f8 	movq	%rdi, -8(%rbp)
   13ecc:	48 8b 45 f8 	movq	-8(%rbp), %rax
   13ed0:	48 89 c7 	movq	%rax, %rdi
   13ed3:	e8 d9 fd ff ff 	callq	-551 <default_irq_handler>
   13ed8:	90 	nop
   13ed9:	c9 	leave
   13eda:	c3 	retq

irq14_handler:
   13edb:	55 	pushq	%rbp
   13edc:	48 89 e5 	movq	%rsp, %rbp
   13edf:	48 83 ec 10 	subq	$16, %rsp
   13ee3:	48 89 7d f8 	movq	%rdi, -8(%rbp)
   13ee7:	48 8b 45 f8 	movq	-8(%rbp), %rax
   13eeb:	48 89 c7 	movq	%rax, %rdi
   13eee:	e8 be fd ff ff 	callq	-578 <default_irq_handler>
   13ef3:	90 	nop
   13ef4:	c9 	leave
   13ef5:	c3 	retq

irq15_handler:
   13ef6:	55 	pushq	%rbp
   13ef7:	48 89 e5 	movq	%rsp, %rbp
   13efa:	48 83 ec 10 	subq	$16, %rsp
   13efe:	48 89 7d f8 	movq	%rdi, -8(%rbp)
   13f02:	48 8b 45 f8 	movq	-8(%rbp), %rax
   13f06:	48 89 c7 	movq	%rax, %rdi
   13f09:	e8 a3 fd ff ff 	callq	-605 <default_irq_handler>
   13f0e:	90 	nop
   13f0f:	c9 	leave
   13f10:	c3 	retq

putpixel:
   13f11:	55 	pushq	%rbp
   13f12:	48 89 e5 	movq	%rsp, %rbp
   13f15:	48 89 7d e8 	movq	%rdi, -24(%rbp)
   13f19:	48 89 75 e0 	movq	%rsi, -32(%rbp)
   13f1d:	89 55 dc 	movl	%edx, -36(%rbp)
   13f20:	8b 05 a7 2e 00 00 	movl	11943(%rip), %eax
   13f26:	89 c0 	movl	%eax, %eax
   13f28:	48 89 45 f8 	movq	%rax, -8(%rbp)
   13f2c:	0f b7 05 8f 2e 00 00 	movzwl	11919(%rip), %eax
   13f33:	0f b7 c0 	movzwl	%ax, %eax
   13f36:	48 0f af 45 e0 	imulq	-32(%rbp), %rax
   13f3b:	48 89 c2 	movq	%rax, %rdx
   13f3e:	48 8b 45 e8 	movq	-24(%rbp), %rax
   13f42:	48 01 c2 	addq	%rax, %rdx
   13f45:	0f b6 05 7a 2e 00 00 	movzbl	11898(%rip), %eax
   13f4c:	c0 e8 03 	shrb	$3, %al
   13f4f:	0f b6 c0 	movzbl	%al, %eax
   13f52:	48 0f af c2 	imulq	%rdx, %rax
   13f56:	48 89 45 f0 	movq	%rax, -16(%rbp)
   13f5a:	8b 45 dc 	movl	-36(%rbp), %eax
   13f5d:	c1 e8 10 	shrl	$16, %eax
   13f60:	89 c2 	movl	%eax, %edx
   13f62:	48 8b 45 f0 	movq	-16(%rbp), %rax
   13f66:	48 8d 48 02 	leaq	2(%rax), %rcx
   13f6a:	48 8b 45 f8 	movq	-8(%rbp), %rax
   13f6e:	48 01 c8 	addq	%rcx, %rax
   13f71:	88 10 	movb	%dl, (%rax)
   13f73:	8b 45 dc 	movl	-36(%rbp), %eax
   13f76:	c1 e8 08 	shrl	$8, %eax
   13f79:	89 c2 	movl	%eax, %edx
   13f7b:	48 8b 45 f0 	movq	-16(%rbp), %rax
   13f7f:	48 8d 48 01 	leaq	1(%rax), %rcx
   13f83:	48 8b 45 f8 	movq	-8(%rbp), %rax
   13f87:	48 01 c8 	addq	%rcx, %rax
   13f8a:	88 10 	movb	%dl, (%rax)
   13f8c:	48 8b 55 f8 	movq	-8(%rbp), %rdx
   13f90:	48 8b 45 f0 	movq	-16(%rbp), %rax
   13f94:	48 01 d0 	addq	%rdx, %rax
   13f97:	8b 55 dc 	movl	-36(%rbp), %edx
   13f9a:	88 10 	movb	%dl, (%rax)
   13f9c:	90 	nop
   13f9d:	5d 	popq	%rbp
   13f9e:	c3 	retq

getpixel:
   13f9f:	55 	pushq	%rbp
   13fa0:	48 89 e5 	movq	%rsp, %rbp
   13fa3:	89 7d dc 	movl	%edi, -36(%rbp)
   13fa6:	89 75 d8 	movl	%esi, -40(%rbp)
   13fa9:	8b 05 1e 2e 00 00 	movl	11806(%rip), %eax
   13faf:	89 c0 	movl	%eax, %eax
   13fb1:	48 89 45 f8 	movq	%rax, -8(%rbp)
   13fb5:	8b 45 d8 	movl	-40(%rbp), %eax
   13fb8:	69 d0 80 07 00 00 	imull	$1920, %eax, %edx
   13fbe:	8b 45 dc 	movl	-36(%rbp), %eax
   13fc1:	01 d0 	addl	%edx, %eax
   13fc3:	c1 e0 02 	shll	$2, %eax
   13fc6:	48 98 	cltq
   13fc8:	48 89 45 f0 	movq	%rax, -16(%rbp)
   13fcc:	48 8b 55 f8 	movq	-8(%rbp), %rdx
   13fd0:	48 8b 45 f0 	movq	-16(%rbp), %rax
   13fd4:	48 01 d0 	addq	%rdx, %rax
   13fd7:	0f b6 00 	movzbl	(%rax), %eax
   13fda:	0f b6 d0 	movzbl	%al, %edx
   13fdd:	48 8b 4d f8 	movq	-8(%rbp), %rcx
   13fe1:	48 8b 45 f0 	movq	-16(%rbp), %rax
   13fe5:	48 01 c8 	addq	%rcx, %rax
   13fe8:	0f b6 00 	movzbl	(%rax), %eax
   13feb:	0f b6 c0 	movzbl	%al, %eax
   13fee:	c1 e0 08 	shll	$8, %eax
   13ff1:	8d 0c 02 	leal	(%rdx,%rax), %ecx
   13ff4:	48 8b 55 f8 	movq	-8(%rbp), %rdx
   13ff8:	48 8b 45 f0 	movq	-16(%rbp), %rax
   13ffc:	48 01 d0 	addq	%rdx, %rax
   13fff:	0f b6 00 	movzbl	(%rax), %eax
   14002:	0f b6 c0 	movzbl	%al, %eax
   14005:	c1 e0 10 	shll	$16, %eax
   14008:	01 c8 	addl	%ecx, %eax
   1400a:	89 45 ec 	movl	%eax, -20(%rbp)
   1400d:	8b 45 ec 	movl	-20(%rbp), %eax
   14010:	5d 	popq	%rbp
   14011:	c3 	retq

drawLine:
   14012:	55 	pushq	%rbp
   14013:	48 89 e5 	movq	%rsp, %rbp
   14016:	53 	pushq	%rbx
   14017:	48 83 ec 48 	subq	$72, %rsp
   1401b:	89 7d cc 	movl	%edi, -52(%rbp)
   1401e:	89 75 c8 	movl	%esi, -56(%rbp)
   14021:	89 55 c4 	movl	%edx, -60(%rbp)
   14024:	89 4d c0 	movl	%ecx, -64(%rbp)
   14027:	44 89 45 bc 	movl	%r8d, -68(%rbp)
   1402b:	8b 45 c0 	movl	-64(%rbp), %eax
   1402e:	2b 45 c8 	subl	-56(%rbp), %eax
   14031:	89 c7 	movl	%eax, %edi
   14033:	b8 00 00 00 00 	movl	$0, %eax
   14038:	e8 12 c2 ff ff 	callq	-15854 <abs>
   1403d:	89 c3 	movl	%eax, %ebx
   1403f:	8b 45 c4 	movl	-60(%rbp), %eax
   14042:	2b 45 cc 	subl	-52(%rbp), %eax
   14045:	89 c7 	movl	%eax, %edi
   14047:	b8 00 00 00 00 	movl	$0, %eax
   1404c:	e8 fe c1 ff ff 	callq	-15874 <abs>
   14051:	39 c3 	cmpl	%eax, %ebx
   14053:	0f 9f c0 	setg	%al
   14056:	0f b6 c0 	movzbl	%al, %eax
   14059:	89 45 e4 	movl	%eax, -28(%rbp)
   1405c:	83 7d e4 00 	cmpl	$0, -28(%rbp)
   14060:	74 24 	je	36 <drawLine+0x74>
   14062:	8b 45 cc 	movl	-52(%rbp), %eax
   14065:	89 45 e0 	movl	%eax, -32(%rbp)
   14068:	8b 45 c8 	movl	-56(%rbp), %eax
   1406b:	89 45 cc 	movl	%eax, -52(%rbp)
   1406e:	8b 45 e0 	movl	-32(%rbp), %eax
   14071:	89 45 c8 	movl	%eax, -56(%rbp)
   14074:	8b 45 c4 	movl	-60(%rbp), %eax
   14077:	89 45 e0 	movl	%eax, -32(%rbp)
   1407a:	8b 45 c0 	movl	-64(%rbp), %eax
   1407d:	89 45 c4 	movl	%eax, -60(%rbp)
   14080:	8b 45 e0 	movl	-32(%rbp), %eax
   14083:	89 45 c0 	movl	%eax, -64(%rbp)
   14086:	8b 45 cc 	movl	-52(%rbp), %eax
   14089:	3b 45 c4 	cmpl	-60(%rbp), %eax
   1408c:	7e 24 	jle	36 <drawLine+0xa0>
   1408e:	8b 45 cc 	movl	-52(%rbp), %eax
   14091:	89 45 dc 	movl	%eax, -36(%rbp)
   14094:	8b 45 c4 	movl	-60(%rbp), %eax
   14097:	89 45 cc 	movl	%eax, -52(%rbp)
   1409a:	8b 45 dc 	movl	-36(%rbp), %eax
   1409d:	89 45 c4 	movl	%eax, -60(%rbp)
   140a0:	8b 45 c8 	movl	-56(%rbp), %eax
   140a3:	89 45 dc 	movl	%eax, -36(%rbp)
   140a6:	8b 45 c0 	movl	-64(%rbp), %eax
   140a9:	89 45 c8 	movl	%eax, -56(%rbp)
   140ac:	8b 45 dc 	movl	-36(%rbp), %eax
   140af:	89 45 c0 	movl	%eax, -64(%rbp)
   140b2:	8b 45 c4 	movl	-60(%rbp), %eax
   140b5:	2b 45 cc 	subl	-52(%rbp), %eax
   140b8:	89 45 d8 	movl	%eax, -40(%rbp)
   140bb:	8b 45 c0 	movl	-64(%rbp), %eax
   140be:	2b 45 c8 	subl	-56(%rbp), %eax
   140c1:	89 c7 	movl	%eax, %edi
   140c3:	b8 00 00 00 00 	movl	$0, %eax
   140c8:	e8 82 c1 ff ff 	callq	-15998 <abs>
   140cd:	89 45 d4 	movl	%eax, -44(%rbp)
   140d0:	8b 45 d8 	movl	-40(%rbp), %eax
   140d3:	89 c2 	movl	%eax, %edx
   140d5:	c1 ea 1f 	shrl	$31, %edx
   140d8:	01 d0 	addl	%edx, %eax
   140da:	d1 f8 	sarl	%eax
   140dc:	89 45 ec 	movl	%eax, -20(%rbp)
   140df:	8b 45 c8 	movl	-56(%rbp), %eax
   140e2:	3b 45 c0 	cmpl	-64(%rbp), %eax
   140e5:	7d 09 	jge	9 <drawLine+0xde>
   140e7:	c7 45 e8 01 00 00 00 	movl	$1, -24(%rbp)
   140ee:	eb 5f 	jmp	95 <drawLine+0x13d>
   140f0:	c7 45 e8 ff ff ff ff 	movl	$4294967295, -24(%rbp)
   140f7:	eb 56 	jmp	86 <drawLine+0x13d>
   140f9:	83 7d e4 00 	cmpl	$0, -28(%rbp)
   140fd:	74 1b 	je	27 <drawLine+0x108>
   140ff:	8b 45 cc 	movl	-52(%rbp), %eax
   14102:	48 63 c8 	movslq	%eax, %rcx
   14105:	8b 45 c8 	movl	-56(%rbp), %eax
   14108:	48 98 	cltq
   1410a:	8b 55 bc 	movl	-68(%rbp), %edx
   1410d:	48 89 ce 	movq	%rcx, %rsi
   14110:	48 89 c7 	movq	%rax, %rdi
   14113:	e8 f9 fd ff ff 	callq	-519 <putpixel>
   14118:	eb 19 	jmp	25 <drawLine+0x121>
   1411a:	8b 45 c8 	movl	-56(%rbp), %eax
   1411d:	48 63 c8 	movslq	%eax, %rcx
   14120:	8b 45 cc 	movl	-52(%rbp), %eax
   14123:	48 98 	cltq
   14125:	8b 55 bc 	movl	-68(%rbp), %edx
   14128:	48 89 ce 	movq	%rcx, %rsi
   1412b:	48 89 c7 	movq	%rax, %rdi
   1412e:	e8 de fd ff ff 	callq	-546 <putpixel>
   14133:	8b 45 d4 	movl	-44(%rbp), %eax
   14136:	29 45 ec 	subl	%eax, -20(%rbp)
   14139:	83 7d ec 00 	cmpl	$0, -20(%rbp)
   1413d:	79 0c 	jns	12 <drawLine+0x139>
   1413f:	8b 45 e8 	movl	-24(%rbp), %eax
   14142:	01 45 c8 	addl	%eax, -56(%rbp)
   14145:	8b 45 d8 	movl	-40(%rbp), %eax
   14148:	01 45 ec 	addl	%eax, -20(%rbp)
   1414b:	83 45 cc 01 	addl	$1, -52(%rbp)
   1414f:	8b 45 cc 	movl	-52(%rbp), %eax
   14152:	3b 45 c4 	cmpl	-60(%rbp), %eax
   14155:	7e a2 	jle	-94 <drawLine+0xe7>
   14157:	90 	nop
   14158:	90 	nop
   14159:	48 8b 5d f8 	movq	-8(%rbp), %rbx
   1415d:	c9 	leave
   1415e:	c3 	retq

drawVLine:
   1415f:	55 	pushq	%rbp
   14160:	48 89 e5 	movq	%rsp, %rbp
   14163:	89 7d dc 	movl	%edi, -36(%rbp)
   14166:	89 75 d8 	movl	%esi, -40(%rbp)
   14169:	89 55 d4 	movl	%edx, -44(%rbp)
   1416c:	89 4d d0 	movl	%ecx, -48(%rbp)
   1416f:	8b 05 58 2c 00 00 	movl	11352(%rip), %eax
   14175:	89 c0 	movl	%eax, %eax
   14177:	48 89 45 f0 	movq	%rax, -16(%rbp)
   1417b:	8b 45 d8 	movl	-40(%rbp), %eax
   1417e:	69 d0 80 07 00 00 	imull	$1920, %eax, %edx
   14184:	8b 45 dc 	movl	-36(%rbp), %eax
   14187:	01 d0 	addl	%edx, %eax
   14189:	c1 e0 02 	shll	$2, %eax
   1418c:	48 98 	cltq
   1418e:	48 89 45 e8 	movq	%rax, -24(%rbp)
   14192:	c7 45 fc 00 00 00 00 	movl	$0, -4(%rbp)
   14199:	eb 77 	jmp	119 <drawVLine+0xb3>
   1419b:	8b 45 d0 	movl	-48(%rbp), %eax
   1419e:	c1 f8 10 	sarl	$16, %eax
   141a1:	89 c1 	movl	%eax, %ecx
   141a3:	8b 45 fc 	movl	-4(%rbp), %eax
   141a6:	69 c0 00 1e 00 00 	imull	$7680, %eax, %eax
   141ac:	48 63 d0 	movslq	%eax, %rdx
   141af:	48 8b 45 e8 	movq	-24(%rbp), %rax
   141b3:	48 01 d0 	addq	%rdx, %rax
   141b6:	48 8d 50 02 	leaq	2(%rax), %rdx
   141ba:	48 8b 45 f0 	movq	-16(%rbp), %rax
   141be:	48 01 d0 	addq	%rdx, %rax
   141c1:	89 ca 	movl	%ecx, %edx
   141c3:	88 10 	movb	%dl, (%rax)
   141c5:	8b 45 d0 	movl	-48(%rbp), %eax
   141c8:	c1 f8 08 	sarl	$8, %eax
   141cb:	89 c1 	movl	%eax, %ecx
   141cd:	8b 45 fc 	movl	-4(%rbp), %eax
   141d0:	69 c0 00 1e 00 00 	imull	$7680, %eax, %eax
   141d6:	48 63 d0 	movslq	%eax, %rdx
   141d9:	48 8b 45 e8 	movq	-24(%rbp), %rax
   141dd:	48 01 d0 	addq	%rdx, %rax
   141e0:	48 8d 50 01 	leaq	1(%rax), %rdx
   141e4:	48 8b 45 f0 	movq	-16(%rbp), %rax
   141e8:	48 01 d0 	addq	%rdx, %rax
   141eb:	89 ca 	movl	%ecx, %edx
   141ed:	88 10 	movb	%dl, (%rax)
   141ef:	8b 45 fc 	movl	-4(%rbp), %eax
   141f2:	69 c0 00 1e 00 00 	imull	$7680, %eax, %eax
   141f8:	48 63 d0 	movslq	%eax, %rdx
   141fb:	48 8b 45 e8 	movq	-24(%rbp), %rax
   141ff:	48 01 c2 	addq	%rax, %rdx
   14202:	48 8b 45 f0 	movq	-16(%rbp), %rax
   14206:	48 01 d0 	addq	%rdx, %rax
   14209:	8b 55 d0 	movl	-48(%rbp), %edx
   1420c:	88 10 	movb	%dl, (%rax)
   1420e:	83 45 fc 01 	addl	$1, -4(%rbp)
   14212:	8b 45 fc 	movl	-4(%rbp), %eax
   14215:	3b 45 d4 	cmpl	-44(%rbp), %eax
   14218:	7c 81 	jl	-127 <drawVLine+0x3c>
   1421a:	90 	nop
   1421b:	90 	nop
   1421c:	5d 	popq	%rbp
   1421d:	c3 	retq

drawHLine:
   1421e:	55 	pushq	%rbp
   1421f:	48 89 e5 	movq	%rsp, %rbp
   14222:	89 7d dc 	movl	%edi, -36(%rbp)
   14225:	89 75 d8 	movl	%esi, -40(%rbp)
   14228:	89 55 d4 	movl	%edx, -44(%rbp)
   1422b:	89 4d d0 	movl	%ecx, -48(%rbp)
   1422e:	8b 05 99 2b 00 00 	movl	11161(%rip), %eax
   14234:	89 c0 	movl	%eax, %eax
   14236:	48 89 45 f0 	movq	%rax, -16(%rbp)
   1423a:	8b 45 d8 	movl	-40(%rbp), %eax
   1423d:	69 d0 80 07 00 00 	imull	$1920, %eax, %edx
   14243:	8b 45 dc 	movl	-36(%rbp), %eax
   14246:	01 d0 	addl	%edx, %eax
   14248:	c1 e0 02 	shll	$2, %eax
   1424b:	48 98 	cltq
   1424d:	48 89 45 e8 	movq	%rax, -24(%rbp)
   14251:	c7 45 fc 00 00 00 00 	movl	$0, -4(%rbp)
   14258:	eb 6e 	jmp	110 <drawHLine+0xaa>
   1425a:	8b 45 d0 	movl	-48(%rbp), %eax
   1425d:	c1 f8 10 	sarl	$16, %eax
   14260:	89 c1 	movl	%eax, %ecx
   14262:	8b 45 fc 	movl	-4(%rbp), %eax
   14265:	c1 e0 02 	shll	$2, %eax
   14268:	48 63 d0 	movslq	%eax, %rdx
   1426b:	48 8b 45 e8 	movq	-24(%rbp), %rax
   1426f:	48 01 d0 	addq	%rdx, %rax
   14272:	48 8d 50 02 	leaq	2(%rax), %rdx
   14276:	48 8b 45 f0 	movq	-16(%rbp), %rax
   1427a:	48 01 d0 	addq	%rdx, %rax
   1427d:	89 ca 	movl	%ecx, %edx
   1427f:	88 10 	movb	%dl, (%rax)
   14281:	8b 45 d0 	movl	-48(%rbp), %eax
   14284:	c1 f8 08 	sarl	$8, %eax
   14287:	89 c1 	movl	%eax, %ecx
   14289:	8b 45 fc 	movl	-4(%rbp), %eax
   1428c:	c1 e0 02 	shll	$2, %eax
   1428f:	48 63 d0 	movslq	%eax, %rdx
   14292:	48 8b 45 e8 	movq	-24(%rbp), %rax
   14296:	48 01 d0 	addq	%rdx, %rax
   14299:	48 8d 50 01 	leaq	1(%rax), %rdx
   1429d:	48 8b 45 f0 	movq	-16(%rbp), %rax
   142a1:	48 01 d0 	addq	%rdx, %rax
   142a4:	89 ca 	movl	%ecx, %edx
   142a6:	88 10 	movb	%dl, (%rax)
   142a8:	8b 45 fc 	movl	-4(%rbp), %eax
   142ab:	c1 e0 02 	shll	$2, %eax
   142ae:	48 63 d0 	movslq	%eax, %rdx
   142b1:	48 8b 45 e8 	movq	-24(%rbp), %rax
   142b5:	48 01 c2 	addq	%rax, %rdx
   142b8:	48 8b 45 f0 	movq	-16(%rbp), %rax
   142bc:	48 01 d0 	addq	%rdx, %rax
   142bf:	8b 55 d0 	movl	-48(%rbp), %edx
   142c2:	88 10 	movb	%dl, (%rax)
   142c4:	83 45 fc 01 	addl	$1, -4(%rbp)
   142c8:	8b 45 fc 	movl	-4(%rbp), %eax
   142cb:	3b 45 d4 	cmpl	-44(%rbp), %eax
   142ce:	7c 8a 	jl	-118 <drawHLine+0x3c>
   142d0:	90 	nop
   142d1:	90 	nop
   142d2:	5d 	popq	%rbp
   142d3:	c3 	retq

drawRect:
   142d4:	55 	pushq	%rbp
   142d5:	48 89 e5 	movq	%rsp, %rbp
   142d8:	48 83 ec 18 	subq	$24, %rsp
   142dc:	89 7d fc 	movl	%edi, -4(%rbp)
   142df:	89 75 f8 	movl	%esi, -8(%rbp)
   142e2:	89 55 f4 	movl	%edx, -12(%rbp)
   142e5:	89 4d f0 	movl	%ecx, -16(%rbp)
   142e8:	44 89 45 ec 	movl	%r8d, -20(%rbp)
   142ec:	8b 4d ec 	movl	-20(%rbp), %ecx
   142ef:	8b 55 f0 	movl	-16(%rbp), %edx
   142f2:	8b 75 f8 	movl	-8(%rbp), %esi
   142f5:	8b 45 fc 	movl	-4(%rbp), %eax
   142f8:	89 c7 	movl	%eax, %edi
   142fa:	e8 1f ff ff ff 	callq	-225 <drawHLine>
   142ff:	8b 4d ec 	movl	-20(%rbp), %ecx
   14302:	8b 55 f4 	movl	-12(%rbp), %edx
   14305:	8b 75 f8 	movl	-8(%rbp), %esi
   14308:	8b 45 fc 	movl	-4(%rbp), %eax
   1430b:	89 c7 	movl	%eax, %edi
   1430d:	e8 4d fe ff ff 	callq	-435 <drawVLine>
   14312:	8b 55 f8 	movl	-8(%rbp), %edx
   14315:	8b 45 f4 	movl	-12(%rbp), %eax
   14318:	8d 34 02 	leal	(%rdx,%rax), %esi
   1431b:	8b 4d ec 	movl	-20(%rbp), %ecx
   1431e:	8b 55 f0 	movl	-16(%rbp), %edx
   14321:	8b 45 fc 	movl	-4(%rbp), %eax
   14324:	89 c7 	movl	%eax, %edi
   14326:	e8 f3 fe ff ff 	callq	-269 <drawHLine>
   1432b:	8b 55 fc 	movl	-4(%rbp), %edx
   1432e:	8b 45 f0 	movl	-16(%rbp), %eax
   14331:	8d 3c 02 	leal	(%rdx,%rax), %edi
   14334:	8b 4d ec 	movl	-20(%rbp), %ecx
   14337:	8b 55 f4 	movl	-12(%rbp), %edx
   1433a:	8b 45 f8 	movl	-8(%rbp), %eax
   1433d:	89 c6 	movl	%eax, %esi
   1433f:	e8 1b fe ff ff 	callq	-485 <drawVLine>
   14344:	90 	nop
   14345:	c9 	leave
   14346:	c3 	retq

fillRect:
   14347:	55 	pushq	%rbp
   14348:	48 89 e5 	movq	%rsp, %rbp
   1434b:	89 7d dc 	movl	%edi, -36(%rbp)
   1434e:	89 75 d8 	movl	%esi, -40(%rbp)
   14351:	89 55 d4 	movl	%edx, -44(%rbp)
   14354:	89 4d d0 	movl	%ecx, -48(%rbp)
   14357:	44 89 45 cc 	movl	%r8d, -52(%rbp)
   1435b:	8b 05 6c 2a 00 00 	movl	10860(%rip), %eax
   14361:	89 c0 	movl	%eax, %eax
   14363:	48 89 45 e8 	movq	%rax, -24(%rbp)
   14367:	8b 45 d8 	movl	-40(%rbp), %eax
   1436a:	69 d0 80 07 00 00 	imull	$1920, %eax, %edx
   14370:	8b 45 dc 	movl	-36(%rbp), %eax
   14373:	01 d0 	addl	%edx, %eax
   14375:	c1 e0 02 	shll	$2, %eax
   14378:	48 98 	cltq
   1437a:	48 89 45 f8 	movq	%rax, -8(%rbp)
   1437e:	c7 45 f4 00 00 00 00 	movl	$0, -12(%rbp)
   14385:	c7 45 f0 00 00 00 00 	movl	$0, -16(%rbp)
   1438c:	c7 45 f4 00 00 00 00 	movl	$0, -12(%rbp)
   14393:	e9 8b 00 00 00 	jmp	139 <fillRect+0xdc>
   14398:	c7 45 f0 00 00 00 00 	movl	$0, -16(%rbp)
   1439f:	eb 6e 	jmp	110 <fillRect+0xc8>
   143a1:	8b 45 cc 	movl	-52(%rbp), %eax
   143a4:	c1 e8 10 	shrl	$16, %eax
   143a7:	89 c1 	movl	%eax, %ecx
   143a9:	8b 45 f0 	movl	-16(%rbp), %eax
   143ac:	c1 e0 02 	shll	$2, %eax
   143af:	48 63 d0 	movslq	%eax, %rdx
   143b2:	48 8b 45 f8 	movq	-8(%rbp), %rax
   143b6:	48 01 d0 	addq	%rdx, %rax
   143b9:	48 8d 50 02 	leaq	2(%rax), %rdx
   143bd:	48 8b 45 e8 	movq	-24(%rbp), %rax
   143c1:	48 01 d0 	addq	%rdx, %rax
   143c4:	89 ca 	movl	%ecx, %edx
   143c6:	88 10 	movb	%dl, (%rax)
   143c8:	8b 45 cc 	movl	-52(%rbp), %eax
   143cb:	c1 e8 08 	shrl	$8, %eax
   143ce:	89 c1 	movl	%eax, %ecx
   143d0:	8b 45 f0 	movl	-16(%rbp), %eax
   143d3:	c1 e0 02 	shll	$2, %eax
   143d6:	48 63 d0 	movslq	%eax, %rdx
   143d9:	48 8b 45 f8 	movq	-8(%rbp), %rax
   143dd:	48 01 d0 	addq	%rdx, %rax
   143e0:	48 8d 50 01 	leaq	1(%rax), %rdx
   143e4:	48 8b 45 e8 	movq	-24(%rbp), %rax
   143e8:	48 01 d0 	addq	%rdx, %rax
   143eb:	89 ca 	movl	%ecx, %edx
   143ed:	88 10 	movb	%dl, (%rax)
   143ef:	8b 45 f0 	movl	-16(%rbp), %eax
   143f2:	c1 e0 02 	shll	$2, %eax
   143f5:	48 63 d0 	movslq	%eax, %rdx
   143f8:	48 8b 45 f8 	movq	-8(%rbp), %rax
   143fc:	48 01 c2 	addq	%rax, %rdx
   143ff:	48 8b 45 e8 	movq	-24(%rbp), %rax
   14403:	48 01 d0 	addq	%rdx, %rax
   14406:	8b 55 cc 	movl	-52(%rbp), %edx
   14409:	88 10 	movb	%dl, (%rax)
   1440b:	83 45 f0 01 	addl	$1, -16(%rbp)
   1440f:	8b 45 f0 	movl	-16(%rbp), %eax
   14412:	3b 45 d0 	cmpl	-48(%rbp), %eax
   14415:	7c 8a 	jl	-118 <fillRect+0x5a>
   14417:	48 81 45 f8 00 1e 00 00 	addq	$7680, -8(%rbp)
   1441f:	83 45 f4 01 	addl	$1, -12(%rbp)
   14423:	8b 45 f4 	movl	-12(%rbp), %eax
   14426:	3b 45 d4 	cmpl	-44(%rbp), %eax
   14429:	0f 8c 69 ff ff ff 	jl	-151 <fillRect+0x51>
   1442f:	90 	nop
   14430:	90 	nop
   14431:	5d 	popq	%rbp
   14432:	c3 	retq

drawTriangle:
   14433:	55 	pushq	%rbp
   14434:	48 89 e5 	movq	%rsp, %rbp
   14437:	48 83 ec 20 	subq	$32, %rsp
   1443b:	89 7d fc 	movl	%edi, -4(%rbp)
   1443e:	89 75 f8 	movl	%esi, -8(%rbp)
   14441:	89 55 f4 	movl	%edx, -12(%rbp)
   14444:	89 4d f0 	movl	%ecx, -16(%rbp)
   14447:	44 89 45 ec 	movl	%r8d, -20(%rbp)
   1444b:	44 89 4d e8 	movl	%r9d, -24(%rbp)
   1444f:	8b 7d 10 	movl	16(%rbp), %edi
   14452:	8b 4d f0 	movl	-16(%rbp), %ecx
   14455:	8b 55 f4 	movl	-12(%rbp), %edx
   14458:	8b 75 f8 	movl	-8(%rbp), %esi
   1445b:	8b 45 fc 	movl	-4(%rbp), %eax
   1445e:	41 89 f8 	movl	%edi, %r8d
   14461:	89 c7 	movl	%eax, %edi
   14463:	e8 aa fb ff ff 	callq	-1110 <drawLine>
   14468:	8b 7d 10 	movl	16(%rbp), %edi
   1446b:	8b 4d e8 	movl	-24(%rbp), %ecx
   1446e:	8b 55 ec 	movl	-20(%rbp), %edx
   14471:	8b 75 f0 	movl	-16(%rbp), %esi
   14474:	8b 45 f4 	movl	-12(%rbp), %eax
   14477:	41 89 f8 	movl	%edi, %r8d
   1447a:	89 c7 	movl	%eax, %edi
   1447c:	e8 91 fb ff ff 	callq	-1135 <drawLine>
   14481:	8b 7d 10 	movl	16(%rbp), %edi
   14484:	8b 4d e8 	movl	-24(%rbp), %ecx
   14487:	8b 55 ec 	movl	-20(%rbp), %edx
   1448a:	8b 75 f8 	movl	-8(%rbp), %esi
   1448d:	8b 45 fc 	movl	-4(%rbp), %eax
   14490:	41 89 f8 	movl	%edi, %r8d
   14493:	89 c7 	movl	%eax, %edi
   14495:	e8 78 fb ff ff 	callq	-1160 <drawLine>
   1449a:	90 	nop
   1449b:	c9 	leave
   1449c:	c3 	retq

fillTriangle:
   1449d:	55 	pushq	%rbp
   1449e:	48 89 e5 	movq	%rsp, %rbp
   144a1:	48 83 ec 68 	subq	$104, %rsp
   144a5:	89 7d ac 	movl	%edi, -84(%rbp)
   144a8:	89 75 a8 	movl	%esi, -88(%rbp)
   144ab:	89 55 a4 	movl	%edx, -92(%rbp)
   144ae:	89 4d a0 	movl	%ecx, -96(%rbp)
   144b1:	44 89 45 9c 	movl	%r8d, -100(%rbp)
   144b5:	44 89 4d 98 	movl	%r9d, -104(%rbp)
   144b9:	8b 45 a8 	movl	-88(%rbp), %eax
   144bc:	3b 45 a0 	cmpl	-96(%rbp), %eax
   144bf:	7e 24 	jle	36 <fillTriangle+0x48>
   144c1:	8b 45 a8 	movl	-88(%rbp), %eax
   144c4:	89 45 e4 	movl	%eax, -28(%rbp)
   144c7:	8b 45 a0 	movl	-96(%rbp), %eax
   144ca:	89 45 a8 	movl	%eax, -88(%rbp)
   144cd:	8b 45 e4 	movl	-28(%rbp), %eax
   144d0:	89 45 a0 	movl	%eax, -96(%rbp)
   144d3:	8b 45 ac 	movl	-84(%rbp), %eax
   144d6:	89 45 e4 	movl	%eax, -28(%rbp)
   144d9:	8b 45 a4 	movl	-92(%rbp), %eax
   144dc:	89 45 ac 	movl	%eax, -84(%rbp)
   144df:	8b 45 e4 	movl	-28(%rbp), %eax
   144e2:	89 45 a4 	movl	%eax, -92(%rbp)
   144e5:	8b 45 a0 	movl	-96(%rbp), %eax
   144e8:	3b 45 98 	cmpl	-104(%rbp), %eax
   144eb:	7e 24 	jle	36 <fillTriangle+0x74>
   144ed:	8b 45 a0 	movl	-96(%rbp), %eax
   144f0:	89 45 e0 	movl	%eax, -32(%rbp)
   144f3:	8b 45 98 	movl	-104(%rbp), %eax
   144f6:	89 45 a4 	movl	%eax, -92(%rbp)
   144f9:	8b 45 e0 	movl	-32(%rbp), %eax
   144fc:	89 45 98 	movl	%eax, -104(%rbp)
   144ff:	8b 45 a4 	movl	-92(%rbp), %eax
   14502:	89 45 e0 	movl	%eax, -32(%rbp)
   14505:	8b 45 9c 	movl	-100(%rbp), %eax
   14508:	89 45 a4 	movl	%eax, -92(%rbp)
   1450b:	8b 45 e0 	movl	-32(%rbp), %eax
   1450e:	89 45 9c 	movl	%eax, -100(%rbp)
   14511:	8b 45 a8 	movl	-88(%rbp), %eax
   14514:	3b 45 a0 	cmpl	-96(%rbp), %eax
   14517:	7e 24 	jle	36 <fillTriangle+0xa0>
   14519:	8b 45 a8 	movl	-88(%rbp), %eax
   1451c:	89 45 dc 	movl	%eax, -36(%rbp)
   1451f:	8b 45 a0 	movl	-96(%rbp), %eax
   14522:	89 45 a8 	movl	%eax, -88(%rbp)
   14525:	8b 45 dc 	movl	-36(%rbp), %eax
   14528:	89 45 a0 	movl	%eax, -96(%rbp)
   1452b:	8b 45 ac 	movl	-84(%rbp), %eax
   1452e:	89 45 dc 	movl	%eax, -36(%rbp)
   14531:	8b 45 a4 	movl	-92(%rbp), %eax
   14534:	89 45 ac 	movl	%eax, -84(%rbp)
   14537:	8b 45 dc 	movl	-36(%rbp), %eax
   1453a:	89 45 a4 	movl	%eax, -92(%rbp)
   1453d:	8b 45 a8 	movl	-88(%rbp), %eax
   14540:	3b 45 98 	cmpl	-104(%rbp), %eax
   14543:	75 6a 	jne	106 <fillTriangle+0x112>
   14545:	8b 45 ac 	movl	-84(%rbp), %eax
   14548:	89 45 f8 	movl	%eax, -8(%rbp)
   1454b:	8b 45 f8 	movl	-8(%rbp), %eax
   1454e:	89 45 fc 	movl	%eax, -4(%rbp)
   14551:	8b 45 a4 	movl	-92(%rbp), %eax
   14554:	3b 45 fc 	cmpl	-4(%rbp), %eax
   14557:	7d 08 	jge	8 <fillTriangle+0xc4>
   14559:	8b 45 a4 	movl	-92(%rbp), %eax
   1455c:	89 45 fc 	movl	%eax, -4(%rbp)
   1455f:	eb 0e 	jmp	14 <fillTriangle+0xd2>
   14561:	8b 45 a4 	movl	-92(%rbp), %eax
   14564:	3b 45 f8 	cmpl	-8(%rbp), %eax
   14567:	7e 06 	jle	6 <fillTriangle+0xd2>
   14569:	8b 45 a4 	movl	-92(%rbp), %eax
   1456c:	89 45 f8 	movl	%eax, -8(%rbp)
   1456f:	8b 45 9c 	movl	-100(%rbp), %eax
   14572:	3b 45 fc 	cmpl	-4(%rbp), %eax
   14575:	7d 08 	jge	8 <fillTriangle+0xe2>
   14577:	8b 45 9c 	movl	-100(%rbp), %eax
   1457a:	89 45 fc 	movl	%eax, -4(%rbp)
   1457d:	eb 0e 	jmp	14 <fillTriangle+0xf0>
   1457f:	8b 45 9c 	movl	-100(%rbp), %eax
   14582:	3b 45 f8 	cmpl	-8(%rbp), %eax
   14585:	7e 06 	jle	6 <fillTriangle+0xf0>
   14587:	8b 45 9c 	movl	-100(%rbp), %eax
   1458a:	89 45 f8 	movl	%eax, -8(%rbp)
   1458d:	8b 55 10 	movl	16(%rbp), %edx
   14590:	8b 45 f8 	movl	-8(%rbp), %eax
   14593:	2b 45 fc 	subl	-4(%rbp), %eax
   14596:	8d 78 01 	leal	1(%rax), %edi
   14599:	8b 75 a8 	movl	-88(%rbp), %esi
   1459c:	8b 45 fc 	movl	-4(%rbp), %eax
   1459f:	89 d1 	movl	%edx, %ecx
   145a1:	89 fa 	movl	%edi, %edx
   145a3:	89 c7 	movl	%eax, %edi
   145a5:	e8 74 fc ff ff 	callq	-908 <drawHLine>
   145aa:	e9 67 01 00 00 	jmp	359 <fillTriangle+0x279>
   145af:	8b 45 a4 	movl	-92(%rbp), %eax
   145b2:	2b 45 ac 	subl	-84(%rbp), %eax
   145b5:	89 45 d8 	movl	%eax, -40(%rbp)
   145b8:	8b 45 a0 	movl	-96(%rbp), %eax
   145bb:	2b 45 a8 	subl	-88(%rbp), %eax
   145be:	89 45 d4 	movl	%eax, -44(%rbp)
   145c1:	8b 45 9c 	movl	-100(%rbp), %eax
   145c4:	2b 45 ac 	subl	-84(%rbp), %eax
   145c7:	89 45 d0 	movl	%eax, -48(%rbp)
   145ca:	8b 45 98 	movl	-104(%rbp), %eax
   145cd:	2b 45 a8 	subl	-88(%rbp), %eax
   145d0:	89 45 cc 	movl	%eax, -52(%rbp)
   145d3:	8b 45 9c 	movl	-100(%rbp), %eax
   145d6:	2b 45 a4 	subl	-92(%rbp), %eax
   145d9:	89 45 c8 	movl	%eax, -56(%rbp)
   145dc:	8b 45 98 	movl	-104(%rbp), %eax
   145df:	2b 45 a0 	subl	-96(%rbp), %eax
   145e2:	89 45 c4 	movl	%eax, -60(%rbp)
   145e5:	c7 45 ec 00 00 00 00 	movl	$0, -20(%rbp)
   145ec:	c7 45 e8 00 00 00 00 	movl	$0, -24(%rbp)
   145f3:	8b 45 a0 	movl	-96(%rbp), %eax
   145f6:	3b 45 98 	cmpl	-104(%rbp), %eax
   145f9:	75 08 	jne	8 <fillTriangle+0x166>
   145fb:	8b 45 a0 	movl	-96(%rbp), %eax
   145fe:	89 45 f0 	movl	%eax, -16(%rbp)
   14601:	eb 09 	jmp	9 <fillTriangle+0x16f>
   14603:	8b 45 a0 	movl	-96(%rbp), %eax
   14606:	83 e8 01 	subl	$1, %eax
   14609:	89 45 f0 	movl	%eax, -16(%rbp)
   1460c:	8b 45 a8 	movl	-88(%rbp), %eax
   1460f:	89 45 f4 	movl	%eax, -12(%rbp)
   14612:	eb 69 	jmp	105 <fillTriangle+0x1e0>
   14614:	8b 45 ec 	movl	-20(%rbp), %eax
   14617:	99 	cltd
   14618:	f7 7d d4 	idivl	-44(%rbp)
   1461b:	89 c2 	movl	%eax, %edx
   1461d:	8b 45 ac 	movl	-84(%rbp), %eax
   14620:	01 d0 	addl	%edx, %eax
   14622:	89 45 fc 	movl	%eax, -4(%rbp)
   14625:	8b 45 e8 	movl	-24(%rbp), %eax
   14628:	99 	cltd
   14629:	f7 7d cc 	idivl	-52(%rbp)
   1462c:	89 c2 	movl	%eax, %edx
   1462e:	8b 45 ac 	movl	-84(%rbp), %eax
   14631:	01 d0 	addl	%edx, %eax
   14633:	89 45 f8 	movl	%eax, -8(%rbp)
   14636:	8b 45 d8 	movl	-40(%rbp), %eax
   14639:	01 45 ec 	addl	%eax, -20(%rbp)
   1463c:	8b 45 d0 	movl	-48(%rbp), %eax
   1463f:	01 45 e8 	addl	%eax, -24(%rbp)
   14642:	8b 45 fc 	movl	-4(%rbp), %eax
   14645:	3b 45 f8 	cmpl	-8(%rbp), %eax
   14648:	7e 12 	jle	18 <fillTriangle+0x1bf>
   1464a:	8b 45 fc 	movl	-4(%rbp), %eax
   1464d:	89 45 bc 	movl	%eax, -68(%rbp)
   14650:	8b 45 f8 	movl	-8(%rbp), %eax
   14653:	89 45 fc 	movl	%eax, -4(%rbp)
   14656:	8b 45 bc 	movl	-68(%rbp), %eax
   14659:	89 45 f8 	movl	%eax, -8(%rbp)
   1465c:	8b 55 10 	movl	16(%rbp), %edx
   1465f:	8b 45 f8 	movl	-8(%rbp), %eax
   14662:	2b 45 fc 	subl	-4(%rbp), %eax
   14665:	8d 78 01 	leal	1(%rax), %edi
   14668:	8b 75 f4 	movl	-12(%rbp), %esi
   1466b:	8b 45 fc 	movl	-4(%rbp), %eax
   1466e:	89 d1 	movl	%edx, %ecx
   14670:	89 fa 	movl	%edi, %edx
   14672:	89 c7 	movl	%eax, %edi
   14674:	e8 a5 fb ff ff 	callq	-1115 <drawHLine>
   14679:	83 45 f4 01 	addl	$1, -12(%rbp)
   1467d:	8b 45 f4 	movl	-12(%rbp), %eax
   14680:	3b 45 f0 	cmpl	-16(%rbp), %eax
   14683:	7e 8f 	jle	-113 <fillTriangle+0x177>
   14685:	8b 45 f4 	movl	-12(%rbp), %eax
   14688:	2b 45 a0 	subl	-96(%rbp), %eax
   1468b:	8b 55 c8 	movl	-56(%rbp), %edx
   1468e:	0f af c2 	imull	%edx, %eax
   14691:	89 45 ec 	movl	%eax, -20(%rbp)
   14694:	8b 45 f4 	movl	-12(%rbp), %eax
   14697:	2b 45 a8 	subl	-88(%rbp), %eax
   1469a:	8b 55 d0 	movl	-48(%rbp), %edx
   1469d:	0f af c2 	imull	%edx, %eax
   146a0:	89 45 e8 	movl	%eax, -24(%rbp)
   146a3:	eb 69 	jmp	105 <fillTriangle+0x271>
   146a5:	8b 45 ec 	movl	-20(%rbp), %eax
   146a8:	99 	cltd
   146a9:	f7 7d c4 	idivl	-60(%rbp)
   146ac:	89 c2 	movl	%eax, %edx
   146ae:	8b 45 a4 	movl	-92(%rbp), %eax
   146b1:	01 d0 	addl	%edx, %eax
   146b3:	89 45 fc 	movl	%eax, -4(%rbp)
   146b6:	8b 45 e8 	movl	-24(%rbp), %eax
   146b9:	99 	cltd
   146ba:	f7 7d cc 	idivl	-52(%rbp)
   146bd:	89 c2 	movl	%eax, %edx
   146bf:	8b 45 ac 	movl	-84(%rbp), %eax
   146c2:	01 d0 	addl	%edx, %eax
   146c4:	89 45 f8 	movl	%eax, -8(%rbp)
   146c7:	8b 45 c8 	movl	-56(%rbp), %eax
   146ca:	01 45 ec 	addl	%eax, -20(%rbp)
   146cd:	8b 45 d0 	movl	-48(%rbp), %eax
   146d0:	01 45 e8 	addl	%eax, -24(%rbp)
   146d3:	8b 45 fc 	movl	-4(%rbp), %eax
   146d6:	3b 45 f8 	cmpl	-8(%rbp), %eax
   146d9:	7e 12 	jle	18 <fillTriangle+0x250>
   146db:	8b 45 fc 	movl	-4(%rbp), %eax
   146de:	89 45 c0 	movl	%eax, -64(%rbp)
   146e1:	8b 45 f8 	movl	-8(%rbp), %eax
   146e4:	89 45 fc 	movl	%eax, -4(%rbp)
   146e7:	8b 45 c0 	movl	-64(%rbp), %eax
   146ea:	89 45 f8 	movl	%eax, -8(%rbp)
   146ed:	8b 55 10 	movl	16(%rbp), %edx
   146f0:	8b 45 f8 	movl	-8(%rbp), %eax
   146f3:	2b 45 fc 	subl	-4(%rbp), %eax
   146f6:	8d 78 01 	leal	1(%rax), %edi
   146f9:	8b 75 f4 	movl	-12(%rbp), %esi
   146fc:	8b 45 fc 	movl	-4(%rbp), %eax
   146ff:	89 d1 	movl	%edx, %ecx
   14701:	89 fa 	movl	%edi, %edx
   14703:	89 c7 	movl	%eax, %edi
   14705:	e8 14 fb ff ff 	callq	-1260 <drawHLine>
   1470a:	83 45 f4 01 	addl	$1, -12(%rbp)
   1470e:	8b 45 f4 	movl	-12(%rbp), %eax
   14711:	3b 45 98 	cmpl	-104(%rbp), %eax
   14714:	7e 8f 	jle	-113 <fillTriangle+0x208>
   14716:	c9 	leave
   14717:	c3 	retq

drawCircle:
   14718:	55 	pushq	%rbp
   14719:	48 89 e5 	movq	%rsp, %rbp
   1471c:	48 83 ec 30 	subq	$48, %rsp
   14720:	89 7d dc 	movl	%edi, -36(%rbp)
   14723:	89 75 d8 	movl	%esi, -40(%rbp)
   14726:	89 55 d4 	movl	%edx, -44(%rbp)
   14729:	89 4d d0 	movl	%ecx, -48(%rbp)
   1472c:	b8 01 00 00 00 	movl	$1, %eax
   14731:	2b 45 d4 	subl	-44(%rbp), %eax
   14734:	89 45 fc 	movl	%eax, -4(%rbp)
   14737:	c7 45 f8 01 00 00 00 	movl	$1, -8(%rbp)
   1473e:	8b 55 d4 	movl	-44(%rbp), %edx
   14741:	b8 00 00 00 00 	movl	$0, %eax
   14746:	29 d0 	subl	%edx, %eax
   14748:	01 c0 	addl	%eax, %eax
   1474a:	89 45 f4 	movl	%eax, -12(%rbp)
   1474d:	c7 45 f0 00 00 00 00 	movl	$0, -16(%rbp)
   14754:	8b 45 d4 	movl	-44(%rbp), %eax
   14757:	89 45 ec 	movl	%eax, -20(%rbp)
   1475a:	8b 55 d8 	movl	-40(%rbp), %edx
   1475d:	8b 45 d4 	movl	-44(%rbp), %eax
   14760:	01 d0 	addl	%edx, %eax
   14762:	48 63 c8 	movslq	%eax, %rcx
   14765:	8b 45 dc 	movl	-36(%rbp), %eax
   14768:	48 98 	cltq
   1476a:	8b 55 d0 	movl	-48(%rbp), %edx
   1476d:	48 89 ce 	movq	%rcx, %rsi
   14770:	48 89 c7 	movq	%rax, %rdi
   14773:	e8 99 f7 ff ff 	callq	-2151 <putpixel>
   14778:	8b 45 d8 	movl	-40(%rbp), %eax
   1477b:	2b 45 d4 	subl	-44(%rbp), %eax
   1477e:	48 63 c8 	movslq	%eax, %rcx
   14781:	8b 45 dc 	movl	-36(%rbp), %eax
   14784:	48 98 	cltq
   14786:	8b 55 d0 	movl	-48(%rbp), %edx
   14789:	48 89 ce 	movq	%rcx, %rsi
   1478c:	48 89 c7 	movq	%rax, %rdi
   1478f:	e8 7d f7 ff ff 	callq	-2179 <putpixel>
   14794:	8b 45 d8 	movl	-40(%rbp), %eax
   14797:	48 63 c8 	movslq	%eax, %rcx
   1479a:	8b 55 dc 	movl	-36(%rbp), %edx
   1479d:	8b 45 d4 	movl	-44(%rbp), %eax
   147a0:	01 d0 	addl	%edx, %eax
   147a2:	48 98 	cltq
   147a4:	8b 55 d0 	movl	-48(%rbp), %edx
   147a7:	48 89 ce 	movq	%rcx, %rsi
   147aa:	48 89 c7 	movq	%rax, %rdi
   147ad:	e8 5f f7 ff ff 	callq	-2209 <putpixel>
   147b2:	8b 45 d8 	movl	-40(%rbp), %eax
   147b5:	48 63 c8 	movslq	%eax, %rcx
   147b8:	8b 45 dc 	movl	-36(%rbp), %eax
   147bb:	2b 45 d4 	subl	-44(%rbp), %eax
   147be:	48 98 	cltq
   147c0:	8b 55 d0 	movl	-48(%rbp), %edx
   147c3:	48 89 ce 	movq	%rcx, %rsi
   147c6:	48 89 c7 	movq	%rax, %rdi
   147c9:	e8 43 f7 ff ff 	callq	-2237 <putpixel>
   147ce:	e9 2a 01 00 00 	jmp	298 <drawCircle+0x1e5>
   147d3:	83 7d fc 00 	cmpl	$0, -4(%rbp)
   147d7:	78 0e 	js	14 <drawCircle+0xcf>
   147d9:	83 6d ec 01 	subl	$1, -20(%rbp)
   147dd:	83 45 f4 02 	addl	$2, -12(%rbp)
   147e1:	8b 45 f4 	movl	-12(%rbp), %eax
   147e4:	01 45 fc 	addl	%eax, -4(%rbp)
   147e7:	83 45 f0 01 	addl	$1, -16(%rbp)
   147eb:	83 45 f8 02 	addl	$2, -8(%rbp)
   147ef:	8b 45 f8 	movl	-8(%rbp), %eax
   147f2:	01 45 fc 	addl	%eax, -4(%rbp)
   147f5:	8b 55 d8 	movl	-40(%rbp), %edx
   147f8:	8b 45 ec 	movl	-20(%rbp), %eax
   147fb:	01 d0 	addl	%edx, %eax
   147fd:	48 63 c8 	movslq	%eax, %rcx
   14800:	8b 55 dc 	movl	-36(%rbp), %edx
   14803:	8b 45 f0 	movl	-16(%rbp), %eax
   14806:	01 d0 	addl	%edx, %eax
   14808:	48 98 	cltq
   1480a:	8b 55 d0 	movl	-48(%rbp), %edx
   1480d:	48 89 ce 	movq	%rcx, %rsi
   14810:	48 89 c7 	movq	%rax, %rdi
   14813:	e8 f9 f6 ff ff 	callq	-2311 <putpixel>
   14818:	8b 55 d8 	movl	-40(%rbp), %edx
   1481b:	8b 45 ec 	movl	-20(%rbp), %eax
   1481e:	01 d0 	addl	%edx, %eax
   14820:	48 63 c8 	movslq	%eax, %rcx
   14823:	8b 45 dc 	movl	-36(%rbp), %eax
   14826:	2b 45 f0 	subl	-16(%rbp), %eax
   14829:	48 98 	cltq
   1482b:	8b 55 d0 	movl	-48(%rbp), %edx
   1482e:	48 89 ce 	movq	%rcx, %rsi
   14831:	48 89 c7 	movq	%rax, %rdi
   14834:	e8 d8 f6 ff ff 	callq	-2344 <putpixel>
   14839:	8b 45 d8 	movl	-40(%rbp), %eax
   1483c:	2b 45 ec 	subl	-20(%rbp), %eax
   1483f:	48 63 c8 	movslq	%eax, %rcx
   14842:	8b 55 dc 	movl	-36(%rbp), %edx
   14845:	8b 45 f0 	movl	-16(%rbp), %eax
   14848:	01 d0 	addl	%edx, %eax
   1484a:	48 98 	cltq
   1484c:	8b 55 d0 	movl	-48(%rbp), %edx
   1484f:	48 89 ce 	movq	%rcx, %rsi
   14852:	48 89 c7 	movq	%rax, %rdi
   14855:	e8 b7 f6 ff ff 	callq	-2377 <putpixel>
   1485a:	8b 45 d8 	movl	-40(%rbp), %eax
   1485d:	2b 45 ec 	subl	-20(%rbp), %eax
   14860:	48 63 c8 	movslq	%eax, %rcx
   14863:	8b 45 dc 	movl	-36(%rbp), %eax
   14866:	2b 45 f0 	subl	-16(%rbp), %eax
   14869:	48 98 	cltq
   1486b:	8b 55 d0 	movl	-48(%rbp), %edx
   1486e:	48 89 ce 	movq	%rcx, %rsi
   14871:	48 89 c7 	movq	%rax, %rdi
   14874:	e8 98 f6 ff ff 	callq	-2408 <putpixel>
   14879:	8b 55 d8 	movl	-40(%rbp), %edx
   1487c:	8b 45 f0 	movl	-16(%rbp), %eax
   1487f:	01 d0 	addl	%edx, %eax
   14881:	48 63 c8 	movslq	%eax, %rcx
   14884:	8b 55 dc 	movl	-36(%rbp), %edx
   14887:	8b 45 ec 	movl	-20(%rbp), %eax
   1488a:	01 d0 	addl	%edx, %eax
   1488c:	48 98 	cltq
   1488e:	8b 55 d0 	movl	-48(%rbp), %edx
   14891:	48 89 ce 	movq	%rcx, %rsi
   14894:	48 89 c7 	movq	%rax, %rdi
   14897:	e8 75 f6 ff ff 	callq	-2443 <putpixel>
   1489c:	8b 55 d8 	movl	-40(%rbp), %edx
   1489f:	8b 45 f0 	movl	-16(%rbp), %eax
   148a2:	01 d0 	addl	%edx, %eax
   148a4:	48 63 c8 	movslq	%eax, %rcx
   148a7:	8b 45 dc 	movl	-36(%rbp), %eax
   148aa:	2b 45 ec 	subl	-20(%rbp), %eax
   148ad:	48 98 	cltq
   148af:	8b 55 d0 	movl	-48(%rbp), %edx
   148b2:	48 89 ce 	movq	%rcx, %rsi
   148b5:	48 89 c7 	movq	%rax, %rdi
   148b8:	e8 54 f6 ff ff 	callq	-2476 <putpixel>
   148bd:	8b 45 d8 	movl	-40(%rbp), %eax
   148c0:	2b 45 f0 	subl	-16(%rbp), %eax
   148c3:	48 63 c8 	movslq	%eax, %rcx
   148c6:	8b 55 dc 	movl	-36(%rbp), %edx
   148c9:	8b 45 ec 	movl	-20(%rbp), %eax
   148cc:	01 d0 	addl	%edx, %eax
   148ce:	48 98 	cltq
   148d0:	8b 55 d0 	movl	-48(%rbp), %edx
   148d3:	48 89 ce 	movq	%rcx, %rsi
   148d6:	48 89 c7 	movq	%rax, %rdi
   148d9:	e8 33 f6 ff ff 	callq	-2509 <putpixel>
   148de:	8b 45 d8 	movl	-40(%rbp), %eax
   148e1:	2b 45 f0 	subl	-16(%rbp), %eax
   148e4:	48 63 c8 	movslq	%eax, %rcx
   148e7:	8b 45 dc 	movl	-36(%rbp), %eax
   148ea:	2b 45 ec 	subl	-20(%rbp), %eax
   148ed:	48 98 	cltq
   148ef:	8b 55 d0 	movl	-48(%rbp), %edx
   148f2:	48 89 ce 	movq	%rcx, %rsi
   148f5:	48 89 c7 	movq	%rax, %rdi
   148f8:	e8 14 f6 ff ff 	callq	-2540 <putpixel>
   148fd:	8b 45 f0 	movl	-16(%rbp), %eax
   14900:	3b 45 ec 	cmpl	-20(%rbp), %eax
   14903:	0f 8c ca fe ff ff 	jl	-310 <drawCircle+0xbb>
   14909:	90 	nop
   1490a:	90 	nop
   1490b:	c9 	leave
   1490c:	c3 	retq

fillCircle:
   1490d:	55 	pushq	%rbp
   1490e:	48 89 e5 	movq	%rsp, %rbp
   14911:	48 83 ec 30 	subq	$48, %rsp
   14915:	89 7d dc 	movl	%edi, -36(%rbp)
   14918:	89 75 d8 	movl	%esi, -40(%rbp)
   1491b:	89 55 d4 	movl	%edx, -44(%rbp)
   1491e:	89 4d d0 	movl	%ecx, -48(%rbp)
   14921:	c7 45 e8 03 00 00 00 	movl	$3, -24(%rbp)
   14928:	c7 45 e4 00 00 00 00 	movl	$0, -28(%rbp)
   1492f:	8b 55 d0 	movl	-48(%rbp), %edx
   14932:	8b 45 d4 	movl	-44(%rbp), %eax
   14935:	01 c0 	addl	%eax, %eax
   14937:	8d 78 01 	leal	1(%rax), %edi
   1493a:	8b 45 d8 	movl	-40(%rbp), %eax
   1493d:	2b 45 d4 	subl	-44(%rbp), %eax
   14940:	89 c6 	movl	%eax, %esi
   14942:	8b 45 dc 	movl	-36(%rbp), %eax
   14945:	89 d1 	movl	%edx, %ecx
   14947:	89 fa 	movl	%edi, %edx
   14949:	89 c7 	movl	%eax, %edi
   1494b:	e8 0f f8 ff ff 	callq	-2033 <drawVLine>
   14950:	b8 01 00 00 00 	movl	$1, %eax
   14955:	2b 45 d4 	subl	-44(%rbp), %eax
   14958:	89 45 fc 	movl	%eax, -4(%rbp)
   1495b:	c7 45 f8 01 00 00 00 	movl	$1, -8(%rbp)
   14962:	8b 55 d4 	movl	-44(%rbp), %edx
   14965:	b8 00 00 00 00 	movl	$0, %eax
   1496a:	29 d0 	subl	%edx, %eax
   1496c:	01 c0 	addl	%eax, %eax
   1496e:	89 45 f4 	movl	%eax, -12(%rbp)
   14971:	c7 45 f0 00 00 00 00 	movl	$0, -16(%rbp)
   14978:	8b 45 d4 	movl	-44(%rbp), %eax
   1497b:	89 45 ec 	movl	%eax, -20(%rbp)
   1497e:	e9 de 00 00 00 	jmp	222 <fillCircle+0x154>
   14983:	83 7d fc 00 	cmpl	$0, -4(%rbp)
   14987:	78 0e 	js	14 <fillCircle+0x8a>
   14989:	83 6d ec 01 	subl	$1, -20(%rbp)
   1498d:	83 45 f4 02 	addl	$2, -12(%rbp)
   14991:	8b 45 f4 	movl	-12(%rbp), %eax
   14994:	01 45 fc 	addl	%eax, -4(%rbp)
   14997:	83 45 f0 01 	addl	$1, -16(%rbp)
   1499b:	83 45 f8 02 	addl	$2, -8(%rbp)
   1499f:	8b 45 f8 	movl	-8(%rbp), %eax
   149a2:	01 45 fc 	addl	%eax, -4(%rbp)
   149a5:	8b 45 e8 	movl	-24(%rbp), %eax
   149a8:	83 e0 01 	andl	$1, %eax
   149ab:	85 c0 	testl	%eax, %eax
   149ad:	74 54 	je	84 <fillCircle+0xf6>
   149af:	8b 55 d0 	movl	-48(%rbp), %edx
   149b2:	8b 45 ec 	movl	-20(%rbp), %eax
   149b5:	01 c0 	addl	%eax, %eax
   149b7:	8d 48 01 	leal	1(%rax), %ecx
   149ba:	8b 45 e4 	movl	-28(%rbp), %eax
   149bd:	8d 34 01 	leal	(%rcx,%rax), %esi
   149c0:	8b 45 d8 	movl	-40(%rbp), %eax
   149c3:	2b 45 ec 	subl	-20(%rbp), %eax
   149c6:	8b 7d dc 	movl	-36(%rbp), %edi
   149c9:	8b 4d f0 	movl	-16(%rbp), %ecx
   149cc:	01 cf 	addl	%ecx, %edi
   149ce:	89 d1 	movl	%edx, %ecx
   149d0:	89 f2 	movl	%esi, %edx
   149d2:	89 c6 	movl	%eax, %esi
   149d4:	e8 86 f7 ff ff 	callq	-2170 <drawVLine>
   149d9:	8b 55 d0 	movl	-48(%rbp), %edx
   149dc:	8b 45 f0 	movl	-16(%rbp), %eax
   149df:	01 c0 	addl	%eax, %eax
   149e1:	8d 48 01 	leal	1(%rax), %ecx
   149e4:	8b 45 e4 	movl	-28(%rbp), %eax
   149e7:	8d 34 01 	leal	(%rcx,%rax), %esi
   149ea:	8b 45 d8 	movl	-40(%rbp), %eax
   149ed:	2b 45 f0 	subl	-16(%rbp), %eax
   149f0:	8b 7d dc 	movl	-36(%rbp), %edi
   149f3:	8b 4d ec 	movl	-20(%rbp), %ecx
   149f6:	01 cf 	addl	%ecx, %edi
   149f8:	89 d1 	movl	%edx, %ecx
   149fa:	89 f2 	movl	%esi, %edx
   149fc:	89 c6 	movl	%eax, %esi
   149fe:	e8 5c f7 ff ff 	callq	-2212 <drawVLine>
   14a03:	8b 45 e8 	movl	-24(%rbp), %eax
   14a06:	83 e0 02 	andl	$2, %eax
   14a09:	85 c0 	testl	%eax, %eax
   14a0b:	74 54 	je	84 <fillCircle+0x154>
   14a0d:	8b 55 d0 	movl	-48(%rbp), %edx
   14a10:	8b 45 ec 	movl	-20(%rbp), %eax
   14a13:	01 c0 	addl	%eax, %eax
   14a15:	8d 48 01 	leal	1(%rax), %ecx
   14a18:	8b 45 e4 	movl	-28(%rbp), %eax
   14a1b:	8d 3c 01 	leal	(%rcx,%rax), %edi
   14a1e:	8b 45 d8 	movl	-40(%rbp), %eax
   14a21:	2b 45 ec 	subl	-20(%rbp), %eax
   14a24:	89 c6 	movl	%eax, %esi
   14a26:	8b 45 dc 	movl	-36(%rbp), %eax
   14a29:	2b 45 f0 	subl	-16(%rbp), %eax
   14a2c:	89 d1 	movl	%edx, %ecx
   14a2e:	89 fa 	movl	%edi, %edx
   14a30:	89 c7 	movl	%eax, %edi
   14a32:	e8 28 f7 ff ff 	callq	-2264 <drawVLine>
   14a37:	8b 55 d0 	movl	-48(%rbp), %edx
   14a3a:	8b 45 f0 	movl	-16(%rbp), %eax
   14a3d:	01 c0 	addl	%eax, %eax
   14a3f:	8d 48 01 	leal	1(%rax), %ecx
   14a42:	8b 45 e4 	movl	-28(%rbp), %eax
   14a45:	8d 3c 01 	leal	(%rcx,%rax), %edi
   14a48:	8b 45 d8 	movl	-40(%rbp), %eax
   14a4b:	2b 45 f0 	subl	-16(%rbp), %eax
   14a4e:	89 c6 	movl	%eax, %esi
   14a50:	8b 45 dc 	movl	-36(%rbp), %eax
   14a53:	2b 45 ec 	subl	-20(%rbp), %eax
   14a56:	89 d1 	movl	%edx, %ecx
   14a58:	89 fa 	movl	%edi, %edx
   14a5a:	89 c7 	movl	%eax, %edi
   14a5c:	e8 fe f6 ff ff 	callq	-2306 <drawVLine>
   14a61:	8b 45 f0 	movl	-16(%rbp), %eax
   14a64:	3b 45 ec 	cmpl	-20(%rbp), %eax
   14a67:	0f 8c 16 ff ff ff 	jl	-234 <fillCircle+0x76>
   14a6d:	90 	nop
   14a6e:	90 	nop
   14a6f:	c9 	leave
   14a70:	c3 	retq

drawChar:
   14a71:	55 	pushq	%rbp
   14a72:	48 89 e5 	movq	%rsp, %rbp
   14a75:	48 83 ec 50 	subq	$80, %rsp
   14a79:	89 f8 	movl	%edi, %eax
   14a7b:	89 75 c8 	movl	%esi, -56(%rbp)
   14a7e:	89 55 c4 	movl	%edx, -60(%rbp)
   14a81:	89 4d c0 	movl	%ecx, -64(%rbp)
   14a84:	44 89 45 bc 	movl	%r8d, -68(%rbp)
   14a88:	88 45 cc 	movb	%al, -52(%rbp)
   14a8b:	c7 45 d0 80 00 00 00 	movl	$128, -48(%rbp)
   14a92:	c7 45 d4 40 00 00 00 	movl	$64, -44(%rbp)
   14a99:	c7 45 d8 20 00 00 00 	movl	$32, -40(%rbp)
   14aa0:	c7 45 dc 10 00 00 00 	movl	$16, -36(%rbp)
   14aa7:	c7 45 e0 08 00 00 00 	movl	$8, -32(%rbp)
   14aae:	c7 45 e4 04 00 00 00 	movl	$4, -28(%rbp)
   14ab5:	c7 45 e8 02 00 00 00 	movl	$2, -24(%rbp)
   14abc:	c7 45 ec 01 00 00 00 	movl	$1, -20(%rbp)
   14ac3:	48 8b 15 d6 0d 00 00 	movq	3542(%rip), %rdx
   14aca:	0f b6 45 cc 	movzbl	-52(%rbp), %eax
   14ace:	c1 e0 04 	shll	$4, %eax
   14ad1:	48 98 	cltq
   14ad3:	48 01 d0 	addq	%rdx, %rax
   14ad6:	48 89 45 f0 	movq	%rax, -16(%rbp)
   14ada:	c7 45 f8 00 00 00 00 	movl	$0, -8(%rbp)
   14ae1:	eb 64 	jmp	100 <drawChar+0xd6>
   14ae3:	c7 45 fc 00 00 00 00 	movl	$0, -4(%rbp)
   14aea:	eb 51 	jmp	81 <drawChar+0xcc>
   14aec:	8b 45 f8 	movl	-8(%rbp), %eax
   14aef:	48 63 d0 	movslq	%eax, %rdx
   14af2:	48 8b 45 f0 	movq	-16(%rbp), %rax
   14af6:	48 01 d0 	addq	%rdx, %rax
   14af9:	0f b6 00 	movzbl	(%rax), %eax
   14afc:	0f b6 d0 	movzbl	%al, %edx
   14aff:	8b 45 fc 	movl	-4(%rbp), %eax
   14b02:	48 98 	cltq
   14b04:	8b 44 85 d0 	movl	-48(%rbp,%rax,4), %eax
   14b08:	21 d0 	andl	%edx, %eax
   14b0a:	85 c0 	testl	%eax, %eax
   14b0c:	74 05 	je	5 <drawChar+0xa2>
   14b0e:	8b 45 c0 	movl	-64(%rbp), %eax
   14b11:	eb 03 	jmp	3 <drawChar+0xa5>
   14b13:	8b 45 bc 	movl	-68(%rbp), %eax
   14b16:	8b 4d c4 	movl	-60(%rbp), %ecx
   14b19:	8b 55 f8 	movl	-8(%rbp), %edx
   14b1c:	01 ca 	addl	%ecx, %edx
   14b1e:	83 ea 0c 	subl	$12, %edx
   14b21:	48 63 f2 	movslq	%edx, %rsi
   14b24:	8b 4d c8 	movl	-56(%rbp), %ecx
   14b27:	8b 55 fc 	movl	-4(%rbp), %edx
   14b2a:	01 ca 	addl	%ecx, %edx
   14b2c:	48 63 ca 	movslq	%edx, %rcx
   14b2f:	89 c2 	movl	%eax, %edx
   14b31:	48 89 cf 	movq	%rcx, %rdi
   14b34:	e8 d8 f3 ff ff 	callq	-3112 <putpixel>
   14b39:	83 45 fc 01 	addl	$1, -4(%rbp)
   14b3d:	83 7d fc 07 	cmpl	$7, -4(%rbp)
   14b41:	7e a9 	jle	-87 <drawChar+0x7b>
   14b43:	83 45 f8 01 	addl	$1, -8(%rbp)
   14b47:	83 7d f8 0f 	cmpl	$15, -8(%rbp)
   14b4b:	7e 96 	jle	-106 <drawChar+0x72>
   14b4d:	90 	nop
   14b4e:	90 	nop
   14b4f:	c9 	leave
   14b50:	c3 	retq

drawCharToCursor:
   14b51:	55 	pushq	%rbp
   14b52:	48 89 e5 	movq	%rsp, %rbp
   14b55:	48 83 ec 50 	subq	$80, %rsp
   14b59:	89 f8 	movl	%edi, %eax
   14b5b:	89 75 b8 	movl	%esi, -72(%rbp)
   14b5e:	89 55 b4 	movl	%edx, -76(%rbp)
   14b61:	88 45 bc 	movb	%al, -68(%rbp)
   14b64:	80 7d bc 0a 	cmpb	$10, -68(%rbp)
   14b68:	75 20 	jne	32 <drawCharToCursor+0x39>
   14b6a:	b8 00 00 00 00 	movl	$0, %eax
   14b6f:	e8 7e 03 00 00 	callq	894 <getCursorY>
   14b74:	3d 38 04 00 00 	cmpl	$1080, %eax
   14b79:	7f 0f 	jg	15 <drawCharToCursor+0x39>
   14b7b:	b8 00 00 00 00 	movl	$0, %eax
   14b80:	e8 fc 03 00 00 	callq	1020 <nextLine>
   14b85:	e9 dc 00 00 00 	jmp	220 <drawCharToCursor+0x115>
   14b8a:	b8 00 00 00 00 	movl	$0, %eax
   14b8f:	e8 51 03 00 00 	callq	849 <getCursorX>
   14b94:	89 45 f4 	movl	%eax, -12(%rbp)
   14b97:	b8 00 00 00 00 	movl	$0, %eax
   14b9c:	e8 51 03 00 00 	callq	849 <getCursorY>
   14ba1:	89 45 f0 	movl	%eax, -16(%rbp)
   14ba4:	c7 45 c0 80 00 00 00 	movl	$128, -64(%rbp)
   14bab:	c7 45 c4 40 00 00 00 	movl	$64, -60(%rbp)
   14bb2:	c7 45 c8 20 00 00 00 	movl	$32, -56(%rbp)
   14bb9:	c7 45 cc 10 00 00 00 	movl	$16, -52(%rbp)
   14bc0:	c7 45 d0 08 00 00 00 	movl	$8, -48(%rbp)
   14bc7:	c7 45 d4 04 00 00 00 	movl	$4, -44(%rbp)
   14bce:	c7 45 d8 02 00 00 00 	movl	$2, -40(%rbp)
   14bd5:	c7 45 dc 01 00 00 00 	movl	$1, -36(%rbp)
   14bdc:	48 8b 15 bd 0c 00 00 	movq	3261(%rip), %rdx
   14be3:	0f b6 45 bc 	movzbl	-68(%rbp), %eax
   14be7:	c1 e0 04 	shll	$4, %eax
   14bea:	48 98 	cltq
   14bec:	48 01 d0 	addq	%rdx, %rax
   14bef:	48 89 45 e8 	movq	%rax, -24(%rbp)
   14bf3:	c7 45 f8 00 00 00 00 	movl	$0, -8(%rbp)
   14bfa:	eb 64 	jmp	100 <drawCharToCursor+0x10f>
   14bfc:	c7 45 fc 00 00 00 00 	movl	$0, -4(%rbp)
   14c03:	eb 51 	jmp	81 <drawCharToCursor+0x105>
   14c05:	8b 45 f8 	movl	-8(%rbp), %eax
   14c08:	48 63 d0 	movslq	%eax, %rdx
   14c0b:	48 8b 45 e8 	movq	-24(%rbp), %rax
   14c0f:	48 01 d0 	addq	%rdx, %rax
   14c12:	0f b6 00 	movzbl	(%rax), %eax
   14c15:	0f b6 d0 	movzbl	%al, %edx
   14c18:	8b 45 fc 	movl	-4(%rbp), %eax
   14c1b:	48 98 	cltq
   14c1d:	8b 44 85 c0 	movl	-64(%rbp,%rax,4), %eax
   14c21:	21 d0 	andl	%edx, %eax
   14c23:	85 c0 	testl	%eax, %eax
   14c25:	74 05 	je	5 <drawCharToCursor+0xdb>
   14c27:	8b 45 b8 	movl	-72(%rbp), %eax
   14c2a:	eb 03 	jmp	3 <drawCharToCursor+0xde>
   14c2c:	8b 45 b4 	movl	-76(%rbp), %eax
   14c2f:	8b 4d f0 	movl	-16(%rbp), %ecx
   14c32:	8b 55 f8 	movl	-8(%rbp), %edx
   14c35:	01 ca 	addl	%ecx, %edx
   14c37:	83 ea 0c 	subl	$12, %edx
   14c3a:	48 63 f2 	movslq	%edx, %rsi
   14c3d:	8b 4d f4 	movl	-12(%rbp), %ecx
   14c40:	8b 55 fc 	movl	-4(%rbp), %edx
   14c43:	01 ca 	addl	%ecx, %edx
   14c45:	48 63 ca 	movslq	%edx, %rcx
   14c48:	89 c2 	movl	%eax, %edx
   14c4a:	48 89 cf 	movq	%rcx, %rdi
   14c4d:	e8 bf f2 ff ff 	callq	-3393 <putpixel>
   14c52:	83 45 fc 01 	addl	$1, -4(%rbp)
   14c56:	83 7d fc 07 	cmpl	$7, -4(%rbp)
   14c5a:	7e a9 	jle	-87 <drawCharToCursor+0xb4>
   14c5c:	83 45 f8 01 	addl	$1, -8(%rbp)
   14c60:	83 7d f8 0f 	cmpl	$15, -8(%rbp)
   14c64:	7e 96 	jle	-106 <drawCharToCursor+0xab>
   14c66:	c9 	leave
   14c67:	c3 	retq

drawString:
   14c68:	55 	pushq	%rbp
   14c69:	48 89 e5 	movq	%rsp, %rbp
   14c6c:	48 83 ec 30 	subq	$48, %rsp
   14c70:	48 89 7d e8 	movq	%rdi, -24(%rbp)
   14c74:	89 75 e4 	movl	%esi, -28(%rbp)
   14c77:	89 55 e0 	movl	%edx, -32(%rbp)
   14c7a:	89 4d dc 	movl	%ecx, -36(%rbp)
   14c7d:	44 89 45 d8 	movl	%r8d, -40(%rbp)
   14c81:	c7 45 fc 00 00 00 00 	movl	$0, -4(%rbp)
   14c88:	c7 45 f8 00 00 00 00 	movl	$0, -8(%rbp)
   14c8f:	c7 45 f4 00 00 00 00 	movl	$0, -12(%rbp)
   14c96:	e9 a3 00 00 00 	jmp	163 <drawString+0xd6>
   14c9b:	8b 45 f4 	movl	-12(%rbp), %eax
   14c9e:	48 63 d0 	movslq	%eax, %rdx
   14ca1:	48 8b 45 e8 	movq	-24(%rbp), %rax
   14ca5:	48 01 d0 	addq	%rdx, %rax
   14ca8:	0f b6 00 	movzbl	(%rax), %eax
   14cab:	3c 0a 	cmpb	$10, %al
   14cad:	75 20 	jne	32 <drawString+0x67>
   14caf:	81 7d f8 38 04 00 00 	cmpl	$1080, -8(%rbp)
   14cb6:	7f 17 	jg	23 <drawString+0x67>
   14cb8:	c7 45 fc 00 00 00 00 	movl	$0, -4(%rbp)
   14cbf:	8b 15 df 31 00 00 	movl	12767(%rip), %edx
   14cc5:	8b 45 f8 	movl	-8(%rbp), %eax
   14cc8:	01 d0 	addl	%edx, %eax
   14cca:	89 45 f8 	movl	%eax, -8(%rbp)
   14ccd:	eb 6b 	jmp	107 <drawString+0xd2>
   14ccf:	8b 55 e0 	movl	-32(%rbp), %edx
   14cd2:	8b 45 f8 	movl	-8(%rbp), %eax
   14cd5:	8d 3c 02 	leal	(%rdx,%rax), %edi
   14cd8:	8b 55 e4 	movl	-28(%rbp), %edx
   14cdb:	8b 45 fc 	movl	-4(%rbp), %eax
   14cde:	8d 34 02 	leal	(%rdx,%rax), %esi
   14ce1:	8b 45 f4 	movl	-12(%rbp), %eax
   14ce4:	48 63 d0 	movslq	%eax, %rdx
   14ce7:	48 8b 45 e8 	movq	-24(%rbp), %rax
   14ceb:	48 01 d0 	addq	%rdx, %rax
   14cee:	0f b6 00 	movzbl	(%rax), %eax
   14cf1:	0f b6 c0 	movzbl	%al, %eax
   14cf4:	8b 4d d8 	movl	-40(%rbp), %ecx
   14cf7:	8b 55 dc 	movl	-36(%rbp), %edx
   14cfa:	41 89 c8 	movl	%ecx, %r8d
   14cfd:	89 d1 	movl	%edx, %ecx
   14cff:	89 fa 	movl	%edi, %edx
   14d01:	89 c7 	movl	%eax, %edi
   14d03:	e8 69 fd ff ff 	callq	-663 <drawChar>
   14d08:	8b 15 92 31 00 00 	movl	12690(%rip), %edx
   14d0e:	8b 45 fc 	movl	-4(%rbp), %eax
   14d11:	01 d0 	addl	%edx, %eax
   14d13:	89 45 fc 	movl	%eax, -4(%rbp)
   14d16:	0f b7 05 a5 20 00 00 	movzwl	8357(%rip), %eax
   14d1d:	0f b7 c0 	movzwl	%ax, %eax
   14d20:	39 45 fc 	cmpl	%eax, -4(%rbp)
   14d23:	7c 15 	jl	21 <drawString+0xd2>
   14d25:	c7 45 fc 00 00 00 00 	movl	$0, -4(%rbp)
   14d2c:	8b 15 72 31 00 00 	movl	12658(%rip), %edx
   14d32:	8b 45 f8 	movl	-8(%rbp), %eax
   14d35:	01 d0 	addl	%edx, %eax
   14d37:	89 45 f8 	movl	%eax, -8(%rbp)
   14d3a:	83 45 f4 01 	addl	$1, -12(%rbp)
   14d3e:	48 8b 45 e8 	movq	-24(%rbp), %rax
   14d42:	48 89 c7 	movq	%rax, %rdi
   14d45:	b8 00 00 00 00 	movl	$0, %eax
   14d4a:	e8 9b b5 ff ff 	callq	-19045 <strlen>
   14d4f:	39 45 f4 	cmpl	%eax, -12(%rbp)
   14d52:	0f 8c 43 ff ff ff 	jl	-189 <drawString+0x33>
   14d58:	90 	nop
   14d59:	90 	nop
   14d5a:	c9 	leave
   14d5b:	c3 	retq

drawStringToCursor:
   14d5c:	55 	pushq	%rbp
   14d5d:	48 89 e5 	movq	%rsp, %rbp
   14d60:	48 83 ec 30 	subq	$48, %rsp
   14d64:	48 89 7d d8 	movq	%rdi, -40(%rbp)
   14d68:	89 75 d4 	movl	%esi, -44(%rbp)
   14d6b:	89 55 d0 	movl	%edx, -48(%rbp)
   14d6e:	b8 00 00 00 00 	movl	$0, %eax
   14d73:	e8 6d 01 00 00 	callq	365 <getCursorX>
   14d78:	89 45 f8 	movl	%eax, -8(%rbp)
   14d7b:	b8 00 00 00 00 	movl	$0, %eax
   14d80:	e8 6d 01 00 00 	callq	365 <getCursorY>
   14d85:	89 45 f4 	movl	%eax, -12(%rbp)
   14d88:	c7 45 f0 00 00 00 00 	movl	$0, -16(%rbp)
   14d8f:	c7 45 ec 00 00 00 00 	movl	$0, -20(%rbp)
   14d96:	c7 45 fc 00 00 00 00 	movl	$0, -4(%rbp)
   14d9d:	eb 59 	jmp	89 <drawStringToCursor+0x9c>
   14d9f:	8b 45 fc 	movl	-4(%rbp), %eax
   14da2:	48 63 d0 	movslq	%eax, %rdx
   14da5:	48 8b 45 d8 	movq	-40(%rbp), %rax
   14da9:	48 01 d0 	addq	%rdx, %rax
   14dac:	0f b6 00 	movzbl	(%rax), %eax
   14daf:	3c 0a 	cmpb	$10, %al
   14db1:	75 15 	jne	21 <drawStringToCursor+0x6c>
   14db3:	81 7d f4 38 04 00 00 	cmpl	$1080, -12(%rbp)
   14dba:	7f 0c 	jg	12 <drawStringToCursor+0x6c>
   14dbc:	b8 00 00 00 00 	movl	$0, %eax
   14dc1:	e8 bb 01 00 00 	callq	443 <nextLine>
   14dc6:	eb 2c 	jmp	44 <drawStringToCursor+0x98>
   14dc8:	8b 45 fc 	movl	-4(%rbp), %eax
   14dcb:	48 63 d0 	movslq	%eax, %rdx
   14dce:	48 8b 45 d8 	movq	-40(%rbp), %rax
   14dd2:	48 01 d0 	addq	%rdx, %rax
   14dd5:	0f b6 00 	movzbl	(%rax), %eax
   14dd8:	0f b6 c0 	movzbl	%al, %eax
   14ddb:	8b 55 d0 	movl	-48(%rbp), %edx
   14dde:	8b 4d d4 	movl	-44(%rbp), %ecx
   14de1:	89 ce 	movl	%ecx, %esi
   14de3:	89 c7 	movl	%eax, %edi
   14de5:	e8 67 fd ff ff 	callq	-665 <drawCharToCursor>
   14dea:	b8 00 00 00 00 	movl	$0, %eax
   14def:	e8 0b 01 00 00 	callq	267 <incrementCursor>
   14df4:	83 45 fc 01 	addl	$1, -4(%rbp)
   14df8:	48 8b 45 d8 	movq	-40(%rbp), %rax
   14dfc:	48 89 c7 	movq	%rax, %rdi
   14dff:	b8 00 00 00 00 	movl	$0, %eax
   14e04:	e8 e1 b4 ff ff 	callq	-19231 <strlen>
   14e09:	39 45 fc 	cmpl	%eax, -4(%rbp)
   14e0c:	7c 91 	jl	-111 <drawStringToCursor+0x43>
   14e0e:	90 	nop
   14e0f:	90 	nop
   14e10:	c9 	leave
   14e11:	c3 	retq

backspace:
   14e12:	55 	pushq	%rbp
   14e13:	48 89 e5 	movq	%rsp, %rbp
   14e16:	53 	pushq	%rbx
   14e17:	48 83 ec 08 	subq	$8, %rsp
   14e1b:	b8 00 00 00 00 	movl	$0, %eax
   14e20:	e8 c0 00 00 00 	callq	192 <getCursorX>
   14e25:	85 c0 	testl	%eax, %eax
   14e27:	7e 22 	jle	34 <backspace+0x39>
   14e29:	b8 00 00 00 00 	movl	$0, %eax
   14e2e:	e8 bf 00 00 00 	callq	191 <getCursorY>
   14e33:	89 c3 	movl	%eax, %ebx
   14e35:	b8 00 00 00 00 	movl	$0, %eax
   14e3a:	e8 a6 00 00 00 	callq	166 <getCursorX>
   14e3f:	83 e8 08 	subl	$8, %eax
   14e42:	89 de 	movl	%ebx, %esi
   14e44:	89 c7 	movl	%eax, %edi
   14e46:	e8 61 00 00 00 	callq	97 <setCursor>
   14e4b:	ba 00 00 00 00 	movl	$0, %edx
   14e50:	be ff ff ff 00 	movl	$16777215, %esi
   14e55:	bf 20 00 00 00 	movl	$32, %edi
   14e5a:	e8 f2 fc ff ff 	callq	-782 <drawCharToCursor>
   14e5f:	90 	nop
   14e60:	48 8b 5d f8 	movq	-8(%rbp), %rbx
   14e64:	c9 	leave
   14e65:	c3 	retq

initDefaultFont:
   14e66:	55 	pushq	%rbp
   14e67:	48 89 e5 	movq	%rsp, %rbp
   14e6a:	c7 05 2c 30 00 00 08 00 00 00 	movl	$8, 12332(%rip)
   14e74:	c7 05 26 30 00 00 10 00 00 00 	movl	$16, 12326(%rip)
   14e7e:	90 	nop
   14e7f:	5d 	popq	%rbp
   14e80:	c3 	retq

initCursor:
   14e81:	55 	pushq	%rbp
   14e82:	48 89 e5 	movq	%rsp, %rbp
   14e85:	b8 00 00 00 00 	movl	$0, %eax
   14e8a:	e8 d7 ff ff ff 	callq	-41 <initDefaultFont>
   14e8f:	48 c7 05 f6 2f 00 00 00 00 00 00 	movq	$0, 12278(%rip)
   14e9a:	8b 05 04 30 00 00 	movl	12292(%rip), %eax
   14ea0:	89 c0 	movl	%eax, %eax
   14ea2:	48 89 05 ef 2f 00 00 	movq	%rax, 12271(%rip)
   14ea9:	90 	nop
   14eaa:	5d 	popq	%rbp
   14eab:	c3 	retq

setCursor:
   14eac:	55 	pushq	%rbp
   14ead:	48 89 e5 	movq	%rsp, %rbp
   14eb0:	89 7d fc 	movl	%edi, -4(%rbp)
   14eb3:	89 75 f8 	movl	%esi, -8(%rbp)
   14eb6:	8b 45 fc 	movl	-4(%rbp), %eax
   14eb9:	48 98 	cltq
   14ebb:	48 89 05 ce 2f 00 00 	movq	%rax, 12238(%rip)
   14ec2:	8b 45 f8 	movl	-8(%rbp), %eax
   14ec5:	48 98 	cltq
   14ec7:	48 89 05 ca 2f 00 00 	movq	%rax, 12234(%rip)
   14ece:	90 	nop
   14ecf:	5d 	popq	%rbp
   14ed0:	c3 	retq

getCursor:
   14ed1:	55 	pushq	%rbp
   14ed2:	48 89 e5 	movq	%rsp, %rbp
   14ed5:	48 8b 05 b4 2f 00 00 	movq	12212(%rip), %rax
   14edc:	48 8b 15 b5 2f 00 00 	movq	12213(%rip), %rdx
   14ee3:	5d 	popq	%rbp
   14ee4:	c3 	retq

getCursorX:
   14ee5:	55 	pushq	%rbp
   14ee6:	48 89 e5 	movq	%rsp, %rbp
   14ee9:	48 8b 05 a0 2f 00 00 	movq	12192(%rip), %rax
   14ef0:	5d 	popq	%rbp
   14ef1:	c3 	retq

getCursorY:
   14ef2:	55 	pushq	%rbp
   14ef3:	48 89 e5 	movq	%rsp, %rbp
   14ef6:	48 8b 05 9b 2f 00 00 	movq	12187(%rip), %rax
   14efd:	5d 	popq	%rbp
   14efe:	c3 	retq

incrementCursor:
   14eff:	55 	pushq	%rbp
   14f00:	48 89 e5 	movq	%rsp, %rbp
   14f03:	48 83 ec 10 	subq	$16, %rsp
   14f07:	b8 00 00 00 00 	movl	$0, %eax
   14f0c:	e8 d4 ff ff ff 	callq	-44 <getCursorX>
   14f11:	89 45 fc 	movl	%eax, -4(%rbp)
   14f14:	b8 00 00 00 00 	movl	$0, %eax
   14f19:	e8 d4 ff ff ff 	callq	-44 <getCursorY>
   14f1e:	89 45 f8 	movl	%eax, -8(%rbp)
   14f21:	0f b7 05 9a 1e 00 00 	movzwl	7834(%rip), %eax
   14f28:	0f b7 c0 	movzwl	%ax, %eax
   14f2b:	8b 0d 6f 2f 00 00 	movl	12143(%rip), %ecx
   14f31:	29 c8 	subl	%ecx, %eax
   14f33:	89 c2 	movl	%eax, %edx
   14f35:	8b 45 fc 	movl	-4(%rbp), %eax
   14f38:	39 c2 	cmpl	%eax, %edx
   14f3a:	73 28 	jae	40 <incrementCursor+0x65>
   14f3c:	0f b7 05 81 1e 00 00 	movzwl	7809(%rip), %eax
   14f43:	0f b7 c0 	movzwl	%ax, %eax
   14f46:	39 45 f8 	cmpl	%eax, -8(%rbp)
   14f49:	7f 19 	jg	25 <incrementCursor+0x65>
   14f4b:	8b 15 53 2f 00 00 	movl	12115(%rip), %edx
   14f51:	8b 45 f8 	movl	-8(%rbp), %eax
   14f54:	01 d0 	addl	%edx, %eax
   14f56:	89 c6 	movl	%eax, %esi
   14f58:	bf 00 00 00 00 	movl	$0, %edi
   14f5d:	e8 4a ff ff ff 	callq	-182 <setCursor>
   14f62:	eb 1a 	jmp	26 <incrementCursor+0x7f>
   14f64:	8b 15 36 2f 00 00 	movl	12086(%rip), %edx
   14f6a:	8b 45 fc 	movl	-4(%rbp), %eax
   14f6d:	01 d0 	addl	%edx, %eax
   14f6f:	89 c2 	movl	%eax, %edx
   14f71:	8b 45 f8 	movl	-8(%rbp), %eax
   14f74:	89 c6 	movl	%eax, %esi
   14f76:	89 d7 	movl	%edx, %edi
   14f78:	e8 2f ff ff ff 	callq	-209 <setCursor>
   14f7d:	90 	nop
   14f7e:	90 	nop
   14f7f:	c9 	leave
   14f80:	c3 	retq

nextLine:
   14f81:	55 	pushq	%rbp
   14f82:	48 89 e5 	movq	%rsp, %rbp
   14f85:	48 83 ec 10 	subq	$16, %rsp
   14f89:	b8 00 00 00 00 	movl	$0, %eax
   14f8e:	e8 5f ff ff ff 	callq	-161 <getCursorY>
   14f93:	89 45 fc 	movl	%eax, -4(%rbp)
   14f96:	0f b7 05 27 1e 00 00 	movzwl	7719(%rip), %eax
   14f9d:	0f b7 c0 	movzwl	%ax, %eax
   14fa0:	39 45 fc 	cmpl	%eax, -4(%rbp)
   14fa3:	7f 17 	jg	23 <nextLine+0x3b>
   14fa5:	8b 15 f9 2e 00 00 	movl	12025(%rip), %edx
   14fab:	8b 45 fc 	movl	-4(%rbp), %eax
   14fae:	01 d0 	addl	%edx, %eax
   14fb0:	89 c6 	movl	%eax, %esi
   14fb2:	bf 00 00 00 00 	movl	$0, %edi
   14fb7:	e8 f0 fe ff ff 	callq	-272 <setCursor>
   14fbc:	90 	nop
   14fbd:	c9 	leave
   14fbe:	c3 	retq

printk:
   14fbf:	55 	pushq	%rbp
   14fc0:	48 89 e5 	movq	%rsp, %rbp
   14fc3:	48 81 ec f0 00 00 00 	subq	$240, %rsp
   14fca:	48 89 bd 18 ff ff ff 	movq	%rdi, -232(%rbp)
   14fd1:	48 89 b5 58 ff ff ff 	movq	%rsi, -168(%rbp)
   14fd8:	48 89 95 60 ff ff ff 	movq	%rdx, -160(%rbp)
   14fdf:	48 89 8d 68 ff ff ff 	movq	%rcx, -152(%rbp)
   14fe6:	4c 89 85 70 ff ff ff 	movq	%r8, -144(%rbp)
   14fed:	4c 89 8d 78 ff ff ff 	movq	%r9, -136(%rbp)
   14ff4:	84 c0 	testb	%al, %al
   14ff6:	74 20 	je	32 <printk+0x59>
   14ff8:	0f 29 45 80 	movaps	%xmm0, -128(%rbp)
   14ffc:	0f 29 4d 90 	movaps	%xmm1, -112(%rbp)
   15000:	0f 29 55 a0 	movaps	%xmm2, -96(%rbp)
   15004:	0f 29 5d b0 	movaps	%xmm3, -80(%rbp)
   15008:	0f 29 65 c0 	movaps	%xmm4, -64(%rbp)
   1500c:	0f 29 6d d0 	movaps	%xmm5, -48(%rbp)
   15010:	0f 29 75 e0 	movaps	%xmm6, -32(%rbp)
   15014:	0f 29 7d f0 	movaps	%xmm7, -16(%rbp)
   15018:	48 8b 85 18 ff ff ff 	movq	-232(%rbp), %rax
   1501f:	48 89 85 40 ff ff ff 	movq	%rax, -192(%rbp)
   15026:	c7 85 28 ff ff ff 08 00 00 00 	movl	$8, -216(%rbp)
   15030:	c7 85 2c ff ff ff 30 00 00 00 	movl	$48, -212(%rbp)
   1503a:	48 8d 45 10 	leaq	16(%rbp), %rax
   1503e:	48 89 85 30 ff ff ff 	movq	%rax, -208(%rbp)
   15045:	48 8d 85 50 ff ff ff 	leaq	-176(%rbp), %rax
   1504c:	48 89 85 38 ff ff ff 	movq	%rax, -200(%rbp)
   15053:	48 8b 85 18 ff ff ff 	movq	-232(%rbp), %rax
   1505a:	48 89 85 48 ff ff ff 	movq	%rax, -184(%rbp)
   15061:	e9 62 02 00 00 	jmp	610 <printk+0x309>
   15066:	48 8b 85 48 ff ff ff 	movq	-184(%rbp), %rax
   1506d:	0f b6 00 	movzbl	(%rax), %eax
   15070:	3c 25 	cmpb	$37, %al
   15072:	0f 85 12 02 00 00 	jne	530 <printk+0x2cb>
   15078:	48 83 85 48 ff ff ff 01 	addq	$1, -184(%rbp)
   15080:	48 8b 85 48 ff ff ff 	movq	-184(%rbp), %rax
   15087:	0f b6 00 	movzbl	(%rax), %eax
   1508a:	0f be c0 	movsbl	%al, %eax
   1508d:	83 f8 78 	cmpl	$120, %eax
   15090:	0f 84 6b 01 00 00 	je	363 <printk+0x242>
   15096:	83 f8 78 	cmpl	$120, %eax
   15099:	0f 8f 21 02 00 00 	jg	545 <printk+0x301>
   1509f:	83 f8 73 	cmpl	$115, %eax
   150a2:	0f 84 ff 00 00 00 	je	255 <printk+0x1e8>
   150a8:	83 f8 73 	cmpl	$115, %eax
   150ab:	0f 8f 0f 02 00 00 	jg	527 <printk+0x301>
   150b1:	83 f8 64 	cmpl	$100, %eax
   150b4:	0f 84 81 00 00 00 	je	129 <printk+0x17c>
   150ba:	83 f8 64 	cmpl	$100, %eax
   150bd:	0f 8f fd 01 00 00 	jg	509 <printk+0x301>
   150c3:	83 f8 25 	cmpl	$37, %eax
   150c6:	0f 84 9e 01 00 00 	je	414 <printk+0x2ab>
   150cc:	83 f8 63 	cmpl	$99, %eax
   150cf:	0f 85 eb 01 00 00 	jne	491 <printk+0x301>
   150d5:	8b 85 28 ff ff ff 	movl	-216(%rbp), %eax
   150db:	83 f8 2f 	cmpl	$47, %eax
   150de:	77 23 	ja	35 <printk+0x144>
   150e0:	48 8b 85 38 ff ff ff 	movq	-200(%rbp), %rax
   150e7:	8b 95 28 ff ff ff 	movl	-216(%rbp), %edx
   150ed:	89 d2 	movl	%edx, %edx
   150ef:	48 01 d0 	addq	%rdx, %rax
   150f2:	8b 95 28 ff ff ff 	movl	-216(%rbp), %edx
   150f8:	83 c2 08 	addl	$8, %edx
   150fb:	89 95 28 ff ff ff 	movl	%edx, -216(%rbp)
   15101:	eb 12 	jmp	18 <printk+0x156>
   15103:	48 8b 85 30 ff ff ff 	movq	-208(%rbp), %rax
   1510a:	48 8d 50 08 	leaq	8(%rax), %rdx
   1510e:	48 89 95 30 ff ff ff 	movq	%rdx, -208(%rbp)
   15115:	48 8b 00 	movq	(%rax), %rax
   15118:	0f b6 c0 	movzbl	%al, %eax
   1511b:	ba 00 00 00 00 	movl	$0, %edx
   15120:	be ff ff ff 00 	movl	$16777215, %esi
   15125:	89 c7 	movl	%eax, %edi
   15127:	e8 25 fa ff ff 	callq	-1499 <drawCharToCursor>
   1512c:	b8 00 00 00 00 	movl	$0, %eax
   15131:	e8 c9 fd ff ff 	callq	-567 <incrementCursor>
   15136:	e9 85 01 00 00 	jmp	389 <printk+0x301>
   1513b:	8b 85 28 ff ff ff 	movl	-216(%rbp), %eax
   15141:	83 f8 2f 	cmpl	$47, %eax
   15144:	77 23 	ja	35 <printk+0x1aa>
   15146:	48 8b 85 38 ff ff ff 	movq	-200(%rbp), %rax
   1514d:	8b 95 28 ff ff ff 	movl	-216(%rbp), %edx
   15153:	89 d2 	movl	%edx, %edx
   15155:	48 01 d0 	addq	%rdx, %rax
   15158:	8b 95 28 ff ff ff 	movl	-216(%rbp), %edx
   1515e:	83 c2 08 	addl	$8, %edx
   15161:	89 95 28 ff ff ff 	movl	%edx, -216(%rbp)
   15167:	eb 12 	jmp	18 <printk+0x1bc>
   15169:	48 8b 85 30 ff ff ff 	movq	-208(%rbp), %rax
   15170:	48 8d 50 08 	leaq	8(%rax), %rdx
   15174:	48 89 95 30 ff ff ff 	movq	%rdx, -208(%rbp)
   1517b:	48 8b 00 	movq	(%rax), %rax
   1517e:	ba 0a 00 00 00 	movl	$10, %edx
   15183:	be c0 7e 01 00 	movl	$97984, %esi
   15188:	48 89 c7 	movq	%rax, %rdi
   1518b:	e8 84 b9 ff ff 	callq	-18044 <itoa>
   15190:	ba 00 00 00 00 	movl	$0, %edx
   15195:	be ff ff ff 00 	movl	$16777215, %esi
   1519a:	48 89 c7 	movq	%rax, %rdi
   1519d:	e8 ba fb ff ff 	callq	-1094 <drawStringToCursor>
   151a2:	e9 19 01 00 00 	jmp	281 <printk+0x301>
   151a7:	8b 85 28 ff ff ff 	movl	-216(%rbp), %eax
   151ad:	83 f8 2f 	cmpl	$47, %eax
   151b0:	77 23 	ja	35 <printk+0x216>
   151b2:	48 8b 85 38 ff ff ff 	movq	-200(%rbp), %rax
   151b9:	8b 95 28 ff ff ff 	movl	-216(%rbp), %edx
   151bf:	89 d2 	movl	%edx, %edx
   151c1:	48 01 d0 	addq	%rdx, %rax
   151c4:	8b 95 28 ff ff ff 	movl	-216(%rbp), %edx
   151ca:	83 c2 08 	addl	$8, %edx
   151cd:	89 95 28 ff ff ff 	movl	%edx, -216(%rbp)
   151d3:	eb 12 	jmp	18 <printk+0x228>
   151d5:	48 8b 85 30 ff ff ff 	movq	-208(%rbp), %rax
   151dc:	48 8d 50 08 	leaq	8(%rax), %rdx
   151e0:	48 89 95 30 ff ff ff 	movq	%rdx, -208(%rbp)
   151e7:	48 8b 00 	movq	(%rax), %rax
   151ea:	ba 00 00 00 00 	movl	$0, %edx
   151ef:	be ff ff ff 00 	movl	$16777215, %esi
   151f4:	48 89 c7 	movq	%rax, %rdi
   151f7:	e8 60 fb ff ff 	callq	-1184 <drawStringToCursor>
   151fc:	e9 bf 00 00 00 	jmp	191 <printk+0x301>
   15201:	8b 85 28 ff ff ff 	movl	-216(%rbp), %eax
   15207:	83 f8 2f 	cmpl	$47, %eax
   1520a:	77 23 	ja	35 <printk+0x270>
   1520c:	48 8b 85 38 ff ff ff 	movq	-200(%rbp), %rax
   15213:	8b 95 28 ff ff ff 	movl	-216(%rbp), %edx
   15219:	89 d2 	movl	%edx, %edx
   1521b:	48 01 d0 	addq	%rdx, %rax
   1521e:	8b 95 28 ff ff ff 	movl	-216(%rbp), %edx
   15224:	83 c2 08 	addl	$8, %edx
   15227:	89 95 28 ff ff ff 	movl	%edx, -216(%rbp)
   1522d:	eb 12 	jmp	18 <printk+0x282>
   1522f:	48 8b 85 30 ff ff ff 	movq	-208(%rbp), %rax
   15236:	48 8d 50 08 	leaq	8(%rax), %rdx
   1523a:	48 89 95 30 ff ff ff 	movq	%rdx, -208(%rbp)
   15241:	48 8b 00 	movq	(%rax), %rax
   15244:	ba 10 00 00 00 	movl	$16, %edx
   15249:	be c0 7e 01 00 	movl	$97984, %esi
   1524e:	48 89 c7 	movq	%rax, %rdi
   15251:	e8 be b8 ff ff 	callq	-18242 <itoa>
   15256:	ba 00 00 00 00 	movl	$0, %edx
   1525b:	be ff ff ff 00 	movl	$16777215, %esi
   15260:	48 89 c7 	movq	%rax, %rdi
   15263:	e8 f4 fa ff ff 	callq	-1292 <drawStringToCursor>
   15268:	eb 56 	jmp	86 <printk+0x301>
   1526a:	ba 00 00 00 00 	movl	$0, %edx
   1526f:	be ff ff ff 00 	movl	$16777215, %esi
   15274:	bf 25 00 00 00 	movl	$37, %edi
   15279:	e8 d3 f8 ff ff 	callq	-1837 <drawCharToCursor>
   1527e:	b8 00 00 00 00 	movl	$0, %eax
   15283:	e8 77 fc ff ff 	callq	-905 <incrementCursor>
   15288:	eb 36 	jmp	54 <printk+0x301>
   1528a:	48 8b 85 48 ff ff ff 	movq	-184(%rbp), %rax
   15291:	0f b6 00 	movzbl	(%rax), %eax
   15294:	0f b6 c0 	movzbl	%al, %eax
   15297:	ba 00 00 00 00 	movl	$0, %edx
   1529c:	be ff ff ff 00 	movl	$16777215, %esi
   152a1:	89 c7 	movl	%eax, %edi
   152a3:	e8 a9 f8 ff ff 	callq	-1879 <drawCharToCursor>
   152a8:	48 8b 85 48 ff ff ff 	movq	-184(%rbp), %rax
   152af:	0f b6 00 	movzbl	(%rax), %eax
   152b2:	3c 0a 	cmpb	$10, %al
   152b4:	74 0a 	je	10 <printk+0x301>
   152b6:	b8 00 00 00 00 	movl	$0, %eax
   152bb:	e8 3f fc ff ff 	callq	-961 <incrementCursor>
   152c0:	48 83 85 48 ff ff ff 01 	addq	$1, -184(%rbp)
   152c8:	48 8b 85 48 ff ff ff 	movq	-184(%rbp), %rax
   152cf:	0f b6 00 	movzbl	(%rax), %eax
   152d2:	84 c0 	testb	%al, %al
   152d4:	0f 85 8c fd ff ff 	jne	-628 <printk+0xa7>
   152da:	90 	nop
   152db:	90 	nop
   152dc:	c9 	leave
   152dd:	c3 	retq

panic:
   152de:	55 	pushq	%rbp
   152df:	48 89 e5 	movq	%rsp, %rbp
   152e2:	48 83 ec 10 	subq	$16, %rsp
   152e6:	48 89 7d f8 	movq	%rdi, -8(%rbp)
   152ea:	48 8b 45 f8 	movq	-8(%rbp), %rax
   152ee:	48 89 c6 	movq	%rax, %rsi
   152f1:	bf 90 58 01 00 	movl	$88208, %edi
   152f6:	b8 00 00 00 00 	movl	$0, %eax
   152fb:	e8 bf fc ff ff 	callq	-833 <printk>
   15300:	90 	nop
   15301:	c9 	leave
   15302:	c3 	retq

initPIT:
   15303:	55 	pushq	%rbp
   15304:	48 89 e5 	movq	%rsp, %rbp
   15307:	48 83 ec 10 	subq	$16, %rsp
   1530b:	48 89 7d f8 	movq	%rdi, -8(%rbp)
   1530f:	48 8b 45 f8 	movq	-8(%rbp), %rax
   15313:	48 89 c7 	movq	%rax, %rdi
   15316:	b8 00 00 00 00 	movl	$0, %eax
   1531b:	e8 03 00 00 00 	callq	3 <SetPITSpeed>
   15320:	90 	nop
   15321:	c9 	leave
   15322:	c3 	retq

SetPITSpeed:
   15323:	55 	pushq	%rbp
   15324:	48 89 e5 	movq	%rsp, %rbp
   15327:	48 83 ec 20 	subq	$32, %rsp
   1532b:	89 7d ec 	movl	%edi, -20(%rbp)
   1532e:	b8 dc 34 12 00 	movl	$1193180, %eax
   15333:	99 	cltd
   15334:	f7 7d ec 	idivl	-20(%rbp)
   15337:	89 45 fc 	movl	%eax, -4(%rbp)
   1533a:	be 36 00 00 00 	movl	$54, %esi
   1533f:	bf 43 00 00 00 	movl	$67, %edi
   15344:	e8 41 d0 ff ff 	callq	-12223 <outb>
   15349:	8b 45 fc 	movl	-4(%rbp), %eax
   1534c:	0f b6 c0 	movzbl	%al, %eax
   1534f:	89 c6 	movl	%eax, %esi
   15351:	bf 40 00 00 00 	movl	$64, %edi
   15356:	e8 2f d0 ff ff 	callq	-12241 <outb>
   1535b:	8b 45 fc 	movl	-4(%rbp), %eax
   1535e:	c1 f8 08 	sarl	$8, %eax
   15361:	0f b6 c0 	movzbl	%al, %eax
   15364:	89 c6 	movl	%eax, %esi
   15366:	bf 40 00 00 00 	movl	$64, %edi
   1536b:	e8 1a d0 ff ff 	callq	-12262 <outb>
   15370:	90 	nop
   15371:	c9 	leave
   15372:	c3 	retq

initRTC:
   15373:	55 	pushq	%rbp
   15374:	48 89 e5 	movq	%rsp, %rbp
   15377:	48 83 ec 20 	subq	$32, %rsp
   1537b:	48 89 7d e8 	movq	%rdi, -24(%rbp)
   1537f:	fa 	cli
   15380:	be 8a 00 00 00 	movl	$138, %esi
   15385:	bf 70 00 00 00 	movl	$112, %edi
   1538a:	e8 fb cf ff ff 	callq	-12293 <outb>
   1538f:	be 20 00 00 00 	movl	$32, %esi
   15394:	bf 71 00 00 00 	movl	$113, %edi
   15399:	e8 ec cf ff ff 	callq	-12308 <outb>
   1539e:	48 83 65 e8 0f 	andq	$15, -24(%rbp)
   153a3:	be 8a 00 00 00 	movl	$138, %esi
   153a8:	bf 70 00 00 00 	movl	$112, %edi
   153ad:	e8 d8 cf ff ff 	callq	-12328 <outb>
   153b2:	bf 71 00 00 00 	movl	$113, %edi
   153b7:	e8 b4 cf ff ff 	callq	-12364 <inb>
   153bc:	88 45 ff 	movb	%al, -1(%rbp)
   153bf:	be 8a 00 00 00 	movl	$138, %esi
   153c4:	bf 70 00 00 00 	movl	$112, %edi
   153c9:	e8 bc cf ff ff 	callq	-12356 <outb>
   153ce:	0f b6 45 ff 	movzbl	-1(%rbp), %eax
   153d2:	83 e0 f0 	andl	$-16, %eax
   153d5:	89 c2 	movl	%eax, %edx
   153d7:	48 8b 45 e8 	movq	-24(%rbp), %rax
   153db:	09 d0 	orl	%edx, %eax
   153dd:	0f b6 c0 	movzbl	%al, %eax
   153e0:	89 c6 	movl	%eax, %esi
   153e2:	bf 71 00 00 00 	movl	$113, %edi
   153e7:	e8 9e cf ff ff 	callq	-12386 <outb>
   153ec:	fb 	sti
   153ed:	b8 00 00 00 00 	movl	$0, %eax
   153f2:	e8 03 00 00 00 	callq	3 <startRTC>
   153f7:	90 	nop
   153f8:	c9 	leave
   153f9:	c3 	retq

startRTC:
   153fa:	55 	pushq	%rbp
   153fb:	48 89 e5 	movq	%rsp, %rbp
   153fe:	48 83 ec 10 	subq	$16, %rsp
   15402:	fa 	cli
   15403:	be 8b 00 00 00 	movl	$139, %esi
   15408:	bf 70 00 00 00 	movl	$112, %edi
   1540d:	e8 78 cf ff ff 	callq	-12424 <outb>
   15412:	bf 71 00 00 00 	movl	$113, %edi
   15417:	e8 54 cf ff ff 	callq	-12460 <inb>
   1541c:	88 45 ff 	movb	%al, -1(%rbp)
   1541f:	be 8b 00 00 00 	movl	$139, %esi
   15424:	bf 70 00 00 00 	movl	$112, %edi
   15429:	e8 5c cf ff ff 	callq	-12452 <outb>
   1542e:	0f b6 45 ff 	movzbl	-1(%rbp), %eax
   15432:	83 c8 40 	orl	$64, %eax
   15435:	0f b6 c0 	movzbl	%al, %eax
   15438:	89 c6 	movl	%eax, %esi
   1543a:	bf 71 00 00 00 	movl	$113, %edi
   1543f:	e8 46 cf ff ff 	callq	-12474 <outb>
   15444:	fb 	sti
   15445:	be 0c 00 00 00 	movl	$12, %esi
   1544a:	bf 70 00 00 00 	movl	$112, %edi
   1544f:	e8 36 cf ff ff 	callq	-12490 <outb>
   15454:	bf 71 00 00 00 	movl	$113, %edi
   15459:	e8 12 cf ff ff 	callq	-12526 <inb>
   1545e:	90 	nop
   1545f:	c9 	leave
   15460:	c3 	retq

controllerWait:
   15461:	55 	pushq	%rbp
   15462:	48 89 e5 	movq	%rsp, %rbp
   15465:	48 83 ec 20 	subq	$32, %rsp
   15469:	89 f8 	movl	%edi, %eax
   1546b:	88 45 ec 	movb	%al, -20(%rbp)
   1546e:	c7 45 fc a0 86 01 00 	movl	$100000, -4(%rbp)
   15475:	80 7d ec 00 	cmpb	$0, -20(%rbp)
   15479:	75 3a 	jne	58 <controllerWait+0x54>
   1547b:	eb 15 	jmp	21 <controllerWait+0x31>
   1547d:	bf 64 00 00 00 	movl	$100, %edi
   15482:	e8 e9 ce ff ff 	callq	-12567 <inb>
   15487:	0f b6 c0 	movzbl	%al, %eax
   1548a:	83 e0 01 	andl	$1, %eax
   1548d:	83 f8 01 	cmpl	$1, %eax
   15490:	74 32 	je	50 <controllerWait+0x63>
   15492:	8b 45 fc 	movl	-4(%rbp), %eax
   15495:	8d 50 ff 	leal	-1(%rax), %edx
   15498:	89 55 fc 	movl	%edx, -4(%rbp)
   1549b:	85 c0 	testl	%eax, %eax
   1549d:	75 de 	jne	-34 <controllerWait+0x1c>
   1549f:	eb 27 	jmp	39 <controllerWait+0x67>
   154a1:	bf 64 00 00 00 	movl	$100, %edi
   154a6:	e8 c5 ce ff ff 	callq	-12603 <inb>
   154ab:	0f b6 c0 	movzbl	%al, %eax
   154ae:	83 e0 02 	andl	$2, %eax
   154b1:	85 c0 	testl	%eax, %eax
   154b3:	74 12 	je	18 <controllerWait+0x66>
   154b5:	8b 45 fc 	movl	-4(%rbp), %eax
   154b8:	8d 50 ff 	leal	-1(%rax), %edx
   154bb:	89 55 fc 	movl	%edx, -4(%rbp)
   154be:	85 c0 	testl	%eax, %eax
   154c0:	75 df 	jne	-33 <controllerWait+0x40>
   154c2:	eb 04 	jmp	4 <controllerWait+0x67>
   154c4:	90 	nop
   154c5:	eb 01 	jmp	1 <controllerWait+0x67>
   154c7:	90 	nop
   154c8:	c9 	leave
   154c9:	c3 	retq

getPS2ControllerStatus:
   154ca:	55 	pushq	%rbp
   154cb:	48 89 e5 	movq	%rsp, %rbp
   154ce:	bf 01 00 00 00 	movl	$1, %edi
   154d3:	e8 89 ff ff ff 	callq	-119 <controllerWait>
   154d8:	be 20 00 00 00 	movl	$32, %esi
   154dd:	bf 64 00 00 00 	movl	$100, %edi
   154e2:	e8 a3 ce ff ff 	callq	-12637 <outb>
   154e7:	bf 00 00 00 00 	movl	$0, %edi
   154ec:	e8 70 ff ff ff 	callq	-144 <controllerWait>
   154f1:	bf 60 00 00 00 	movl	$96, %edi
   154f6:	e8 75 ce ff ff 	callq	-12683 <inb>
   154fb:	5d 	popq	%rbp
   154fc:	c3 	retq

setPS2ControllerStatus:
   154fd:	55 	pushq	%rbp
   154fe:	48 89 e5 	movq	%rsp, %rbp
   15501:	48 83 ec 10 	subq	$16, %rsp
   15505:	89 f8 	movl	%edi, %eax
   15507:	88 45 fc 	movb	%al, -4(%rbp)
   1550a:	bf 01 00 00 00 	movl	$1, %edi
   1550f:	e8 4d ff ff ff 	callq	-179 <controllerWait>
   15514:	be 60 00 00 00 	movl	$96, %esi
   15519:	bf 64 00 00 00 	movl	$100, %edi
   1551e:	e8 67 ce ff ff 	callq	-12697 <outb>
   15523:	0f b6 45 fc 	movzbl	-4(%rbp), %eax
   15527:	89 c6 	movl	%eax, %esi
   15529:	bf 60 00 00 00 	movl	$96, %edi
   1552e:	e8 57 ce ff ff 	callq	-12713 <outb>
   15533:	90 	nop
   15534:	c9 	leave
   15535:	c3 	retq

disableSecondPS2Port:
   15536:	55 	pushq	%rbp
   15537:	48 89 e5 	movq	%rsp, %rbp
   1553a:	bf 01 00 00 00 	movl	$1, %edi
   1553f:	e8 1d ff ff ff 	callq	-227 <controllerWait>
   15544:	be a7 00 00 00 	movl	$167, %esi
   15549:	bf 64 00 00 00 	movl	$100, %edi
   1554e:	e8 37 ce ff ff 	callq	-12745 <outb>
   15553:	90 	nop
   15554:	5d 	popq	%rbp
   15555:	c3 	retq

enableSecondPS2Port:
   15556:	55 	pushq	%rbp
   15557:	48 89 e5 	movq	%rsp, %rbp
   1555a:	bf 01 00 00 00 	movl	$1, %edi
   1555f:	e8 fd fe ff ff 	callq	-259 <controllerWait>
   15564:	be a8 00 00 00 	movl	$168, %esi
   15569:	bf 64 00 00 00 	movl	$100, %edi
   1556e:	e8 17 ce ff ff 	callq	-12777 <outb>
   15573:	90 	nop
   15574:	5d 	popq	%rbp
   15575:	c3 	retq

disableFirstPS2Port:
   15576:	55 	pushq	%rbp
   15577:	48 89 e5 	movq	%rsp, %rbp
   1557a:	bf 01 00 00 00 	movl	$1, %edi
   1557f:	e8 dd fe ff ff 	callq	-291 <controllerWait>
   15584:	be ad 00 00 00 	movl	$173, %esi
   15589:	bf 64 00 00 00 	movl	$100, %edi
   1558e:	e8 f7 cd ff ff 	callq	-12809 <outb>
   15593:	90 	nop
   15594:	5d 	popq	%rbp
   15595:	c3 	retq

enableFirstPS2Port:
   15596:	55 	pushq	%rbp
   15597:	48 89 e5 	movq	%rsp, %rbp
   1559a:	bf 01 00 00 00 	movl	$1, %edi
   1559f:	e8 bd fe ff ff 	callq	-323 <controllerWait>
   155a4:	be ae 00 00 00 	movl	$174, %esi
   155a9:	bf 64 00 00 00 	movl	$100, %edi
   155ae:	e8 d7 cd ff ff 	callq	-12841 <outb>
   155b3:	90 	nop
   155b4:	5d 	popq	%rbp
   155b5:	c3 	retq

commandPS2Controller:
   155b6:	55 	pushq	%rbp
   155b7:	48 89 e5 	movq	%rsp, %rbp
   155ba:	48 83 ec 10 	subq	$16, %rsp
   155be:	89 f8 	movl	%edi, %eax
   155c0:	88 45 fc 	movb	%al, -4(%rbp)
   155c3:	bf 01 00 00 00 	movl	$1, %edi
   155c8:	e8 94 fe ff ff 	callq	-364 <controllerWait>
   155cd:	0f b6 45 fc 	movzbl	-4(%rbp), %eax
   155d1:	89 c6 	movl	%eax, %esi
   155d3:	bf 64 00 00 00 	movl	$100, %edi
   155d8:	e8 ad cd ff ff 	callq	-12883 <outb>
   155dd:	90 	nop
   155de:	c9 	leave
   155df:	c3 	retq

writeToFirstPS2Port:
   155e0:	55 	pushq	%rbp
   155e1:	48 89 e5 	movq	%rsp, %rbp
   155e4:	48 83 ec 10 	subq	$16, %rsp
   155e8:	89 f8 	movl	%edi, %eax
   155ea:	88 45 fc 	movb	%al, -4(%rbp)
   155ed:	bf 01 00 00 00 	movl	$1, %edi
   155f2:	e8 6a fe ff ff 	callq	-406 <controllerWait>
   155f7:	0f b6 45 fc 	movzbl	-4(%rbp), %eax
   155fb:	89 c6 	movl	%eax, %esi
   155fd:	bf 64 00 00 00 	movl	$100, %edi
   15602:	e8 83 cd ff ff 	callq	-12925 <outb>
   15607:	90 	nop
   15608:	c9 	leave
   15609:	c3 	retq

writeToSecondPS2Port:
   1560a:	55 	pushq	%rbp
   1560b:	48 89 e5 	movq	%rsp, %rbp
   1560e:	48 83 ec 10 	subq	$16, %rsp
   15612:	89 f8 	movl	%edi, %eax
   15614:	88 45 fc 	movb	%al, -4(%rbp)
   15617:	bf 01 00 00 00 	movl	$1, %edi
   1561c:	e8 40 fe ff ff 	callq	-448 <controllerWait>
   15621:	be d4 00 00 00 	movl	$212, %esi
   15626:	bf 64 00 00 00 	movl	$100, %edi
   1562b:	e8 5a cd ff ff 	callq	-12966 <outb>
   15630:	bf 01 00 00 00 	movl	$1, %edi
   15635:	e8 27 fe ff ff 	callq	-473 <controllerWait>
   1563a:	0f b6 45 fc 	movzbl	-4(%rbp), %eax
   1563e:	89 c6 	movl	%eax, %esi
   15640:	bf 60 00 00 00 	movl	$96, %edi
   15645:	e8 40 cd ff ff 	callq	-12992 <outb>
   1564a:	90 	nop
   1564b:	c9 	leave
   1564c:	c3 	retq

readPS2DataPort:
   1564d:	55 	pushq	%rbp
   1564e:	48 89 e5 	movq	%rsp, %rbp
   15651:	bf 00 00 00 00 	movl	$0, %edi
   15656:	e8 06 fe ff ff 	callq	-506 <controllerWait>
   1565b:	bf 60 00 00 00 	movl	$96, %edi
   15660:	e8 0b cd ff ff 	callq	-13045 <inb>
   15665:	5d 	popq	%rbp
   15666:	c3 	retq

initPS2:
   15667:	55 	pushq	%rbp
   15668:	48 89 e5 	movq	%rsp, %rbp
   1566b:	48 83 ec 10 	subq	$16, %rsp
   1566f:	b8 00 00 00 00 	movl	$0, %eax
   15674:	e8 fd fe ff ff 	callq	-259 <disableFirstPS2Port>
   15679:	b8 00 00 00 00 	movl	$0, %eax
   1567e:	e8 b3 fe ff ff 	callq	-333 <disableSecondPS2Port>
   15683:	bf 60 00 00 00 	movl	$96, %edi
   15688:	e8 e3 cc ff ff 	callq	-13085 <inb>
   1568d:	be 20 00 00 00 	movl	$32, %esi
   15692:	bf 64 00 00 00 	movl	$100, %edi
   15697:	e8 ee cc ff ff 	callq	-13074 <outb>
   1569c:	bf 60 00 00 00 	movl	$96, %edi
   156a1:	e8 ca cc ff ff 	callq	-13110 <inb>
   156a6:	88 45 fd 	movb	%al, -3(%rbp)
   156a9:	0f b6 45 fd 	movzbl	-3(%rbp), %eax
   156ad:	83 e0 01 	andl	$1, %eax
   156b0:	88 45 fc 	movb	%al, -4(%rbp)
   156b3:	80 4d fd 43 	orb	$67, -3(%rbp)
   156b7:	be 60 00 00 00 	movl	$96, %esi
   156bc:	bf 64 00 00 00 	movl	$100, %edi
   156c1:	e8 c4 cc ff ff 	callq	-13116 <outb>
   156c6:	0f b6 45 fd 	movzbl	-3(%rbp), %eax
   156ca:	89 c6 	movl	%eax, %esi
   156cc:	bf 60 00 00 00 	movl	$96, %edi
   156d1:	e8 b4 cc ff ff 	callq	-13132 <outb>
   156d6:	be aa 00 00 00 	movl	$170, %esi
   156db:	bf 64 00 00 00 	movl	$100, %edi
   156e0:	e8 a5 cc ff ff 	callq	-13147 <outb>
   156e5:	bf 60 00 00 00 	movl	$96, %edi
   156ea:	e8 81 cc ff ff 	callq	-13183 <inb>
   156ef:	88 45 fb 	movb	%al, -5(%rbp)
   156f2:	80 7d fb fc 	cmpb	$-4, -5(%rbp)
   156f6:	75 0a 	jne	10 <initPS2+0x9b>
   156f8:	b8 fc ff ff ff 	movl	$4294967292, %eax
   156fd:	e9 02 01 00 00 	jmp	258 <initPS2+0x19d>
   15702:	be 60 00 00 00 	movl	$96, %esi
   15707:	bf 64 00 00 00 	movl	$100, %edi
   1570c:	e8 79 cc ff ff 	callq	-13191 <outb>
   15711:	0f b6 45 fd 	movzbl	-3(%rbp), %eax
   15715:	89 c6 	movl	%eax, %esi
   15717:	bf 60 00 00 00 	movl	$96, %edi
   1571c:	e8 69 cc ff ff 	callq	-13207 <outb>
   15721:	c6 45 ff ff 	movb	$-1, -1(%rbp)
   15725:	80 7d fc 01 	cmpb	$1, -4(%rbp)
   15729:	75 50 	jne	80 <initPS2+0x114>
   1572b:	be ae 00 00 00 	movl	$174, %esi
   15730:	bf 64 00 00 00 	movl	$100, %edi
   15735:	e8 50 cc ff ff 	callq	-13232 <outb>
   1573a:	be 20 00 00 00 	movl	$32, %esi
   1573f:	bf 64 00 00 00 	movl	$100, %edi
   15744:	e8 41 cc ff ff 	callq	-13247 <outb>
   15749:	bf 60 00 00 00 	movl	$96, %edi
   1574e:	e8 1d cc ff ff 	callq	-13283 <inb>
   15753:	88 45 fd 	movb	%al, -3(%rbp)
   15756:	0f b6 45 fd 	movzbl	-3(%rbp), %eax
   1575a:	83 e0 01 	andl	$1, %eax
   1575d:	88 45 fa 	movb	%al, -6(%rbp)
   15760:	be ad 00 00 00 	movl	$173, %esi
   15765:	bf 64 00 00 00 	movl	$100, %edi
   1576a:	e8 1b cc ff ff 	callq	-13285 <outb>
   1576f:	80 7d fa 00 	cmpb	$0, -6(%rbp)
   15773:	0f 94 c0 	sete	%al
   15776:	88 45 ff 	movb	%al, -1(%rbp)
   15779:	eb 04 	jmp	4 <initPS2+0x118>
   1577b:	c6 45 ff 00 	movb	$0, -1(%rbp)
   1577f:	be ab 00 00 00 	movl	$171, %esi
   15784:	bf 64 00 00 00 	movl	$100, %edi
   15789:	e8 fc cb ff ff 	callq	-13316 <outb>
   1578e:	bf 60 00 00 00 	movl	$96, %edi
   15793:	e8 d8 cb ff ff 	callq	-13352 <inb>
   15798:	88 45 f9 	movb	%al, -7(%rbp)
   1579b:	80 7d ff 01 	cmpb	$1, -1(%rbp)
   1579f:	75 1c 	jne	28 <initPS2+0x156>
   157a1:	be a9 00 00 00 	movl	$169, %esi
   157a6:	bf 64 00 00 00 	movl	$100, %edi
   157ab:	e8 da cb ff ff 	callq	-13350 <outb>
   157b0:	bf 60 00 00 00 	movl	$96, %edi
   157b5:	e8 b6 cb ff ff 	callq	-13386 <inb>
   157ba:	88 45 fe 	movb	%al, -2(%rbp)
   157bd:	80 7d f9 00 	cmpb	$0, -7(%rbp)
   157c1:	74 06 	je	6 <initPS2+0x162>
   157c3:	0f b6 45 f9 	movzbl	-7(%rbp), %eax
   157c7:	eb 3b 	jmp	59 <initPS2+0x19d>
   157c9:	80 7d fe 00 	cmpb	$0, -2(%rbp)
   157cd:	74 0c 	je	12 <initPS2+0x174>
   157cf:	80 7d ff 01 	cmpb	$1, -1(%rbp)
   157d3:	75 06 	jne	6 <initPS2+0x174>
   157d5:	0f b6 45 fe 	movzbl	-2(%rbp), %eax
   157d9:	eb 29 	jmp	41 <initPS2+0x19d>
   157db:	be ae 00 00 00 	movl	$174, %esi
   157e0:	bf 64 00 00 00 	movl	$100, %edi
   157e5:	e8 a0 cb ff ff 	callq	-13408 <outb>
   157ea:	80 7d ff 01 	cmpb	$1, -1(%rbp)
   157ee:	75 0f 	jne	15 <initPS2+0x198>
   157f0:	be a8 00 00 00 	movl	$168, %esi
   157f5:	bf 64 00 00 00 	movl	$100, %edi
   157fa:	e8 8b cb ff ff 	callq	-13429 <outb>
   157ff:	b8 00 00 00 00 	movl	$0, %eax
   15804:	c9 	leave
   15805:	c3 	retq

commandKeyboard:
   15806:	55 	pushq	%rbp
   15807:	48 89 e5 	movq	%rsp, %rbp
   1580a:	48 83 ec 10 	subq	$16, %rsp
   1580e:	89 f8 	movl	%edi, %eax
   15810:	88 45 fc 	movb	%al, -4(%rbp)
   15813:	0f b6 45 fc 	movzbl	-4(%rbp), %eax
   15817:	89 c7 	movl	%eax, %edi
   15819:	e8 c2 fd ff ff 	callq	-574 <writeToFirstPS2Port>
   1581e:	bf 00 00 00 00 	movl	$0, %edi
   15823:	e8 39 fc ff ff 	callq	-967 <controllerWait>
   15828:	bf 60 00 00 00 	movl	$96, %edi
   1582d:	b8 00 00 00 00 	movl	$0, %eax
   15832:	e8 39 cb ff ff 	callq	-13511 <inb>
   15837:	c9 	leave
   15838:	c3 	retq

initKeyboard:
   15839:	55 	pushq	%rbp
   1583a:	48 89 e5 	movq	%rsp, %rbp
   1583d:	48 83 ec 10 	subq	$16, %rsp
   15841:	c7 45 fc 03 00 00 00 	movl	$3, -4(%rbp)
   15848:	bf f4 00 00 00 	movl	$244, %edi
   1584d:	e8 b4 ff ff ff 	callq	-76 <commandKeyboard>
   15852:	88 45 fb 	movb	%al, -5(%rbp)
   15855:	b8 fa ff ff ff 	movl	$4294967290, %eax
   1585a:	c9 	leave
   1585b:	c3 	retq
   1585c:	0f 1f 40 00 	nopl	(%rax)
   15860:	50 	pushq	%rax
   15861:	53 	pushq	%rbx
   15862:	32 20 	xorb	(%rax), %ah
   15864:	49 6e 	outsb	(%rsi), %dx
   15866:	69 74 61 6c 69 7a 65 64 	imull	$1684372073, 108(%rcx,%riz,2), %esi
   1586e:	2c 20 	subb	$32, %al
   15870:	72 65 	jb	101 <Default_T_font+0x17>
   15872:	74 75 	je	117 <Default_T_font+0x29>
   15874:	72 6e 	jb	110 <Default_T_font+0x24>
   15876:	65 64 20 77 69 	andb	%dh, %fs:105(%rdi)
   1587b:	74 68 	je	104 <Default_T_font+0x25>
   1587d:	20 30 	andb	%dh, (%rax)
   1587f:	78 25 	js	37 <font+0x6>
   15881:	78 0a 	js	10 <initKeyboard+0x54>
   15883:	00 0f 	addb	%cl, (%rdi)
   15885:	1f  <unknown>
   15886:	40 00 00 	addb	%al, (%rax)
   15889:	00 00 	addb	%al, (%rax)
   1588b:	00 00 	addb	%al, (%rax)
   1588d:	00 f0 	addb	%dh, %al
   1588f:	3f  <unknown>
   15890:	50 	pushq	%rax
   15891:	41 4e  <unknown>
   15893:	49 43  <unknown>
   15895:	3a 20 	cmpb	(%rax), %ah
   15897:	25 73 00 66 0f 	andl	$258343027, %eax
   1589c:	1f  <unknown>
   1589d:	44 00 00 	addb	%r8b, (%rax)

font:
   158a0:	 c0 58 01 00 00 00 00 00         .X......
   158a8:	 66 2e 0f 1f 84 00 00 00         f.......
   158b0:	 00 00 66 2e 0f 1f 84 00         ..f.....
   158b8:	 00 00 00 00 0f 1f 40 00         

Default_T_font:
   158c0:	 00 00 da 02 80 82 02 80         ........
   158c8:	 82 02 80 b6 00 00 00 00         ........
   158d0:	 00 00 da 02 80 82 02 80         ........
   158d8:	 82 02 80 b6 00 00 00 00         ........
   158e0:	 00 00 da 02 80 82 02 80         ........
   158e8:	 82 02 80 b6 00 00 00 00         ........
   158f0:	 00 00 da 02 80 82 02 80         ........
   158f8:	 82 02 80 b6 00 00 00 00         ........
   15900:	 00 00 da 02 80 82 02 80         ........
   15908:	 82 02 80 b6 00 00 00 00         ........
   15910:	 00 00 da 02 80 82 02 80         ........
   15918:	 82 02 80 b6 00 00 00 00         ........
   15920:	 00 00 da 02 80 82 02 80         ........
   15928:	 82 02 80 b6 00 00 00 00         ........
   15930:	 00 00 da 02 80 82 02 80         ........
   15938:	 82 02 80 b6 00 00 00 00         ........
   15940:	 00 00 da 02 80 82 02 80         ........
   15948:	 82 02 80 b6 00 00 00 00         ........
   15950:	 00 00 da 02 80 82 02 80         ........
   15958:	 82 02 80 b6 00 00 00 00         ........
   15960:	 00 00 da 02 80 82 02 80         ........
   15968:	 82 02 80 b6 00 00 00 00         ........
   15970:	 00 00 da 02 80 82 02 80         ........
   15978:	 82 02 80 b6 00 00 00 00         ........
   15980:	 00 00 da 02 80 82 02 80         ........
   15988:	 82 02 80 b6 00 00 00 00         ........
   15990:	 00 00 da 02 80 82 02 80         ........
   15998:	 82 02 80 b6 00 00 00 00         ........
   159a0:	 00 00 da 02 80 82 02 80         ........
   159a8:	 82 02 80 b6 00 00 00 00         ........
   159b0:	 00 00 da 02 80 82 02 80         ........
   159b8:	 82 02 80 b6 00 00 00 00         ........
   159c0:	 00 00 da 02 80 82 02 80         ........
   159c8:	 82 02 80 b6 00 00 00 00         ........
   159d0:	 00 00 da 02 80 82 02 80         ........
   159d8:	 82 02 80 b6 00 00 00 00         ........
   159e0:	 00 00 da 02 80 82 02 80         ........
   159e8:	 82 02 80 b6 00 00 00 00         ........
   159f0:	 00 00 da 02 80 82 02 80         ........
   159f8:	 82 02 80 b6 00 00 00 00         ........
   15a00:	 00 00 da 02 80 82 02 80         ........
   15a08:	 82 02 80 b6 00 00 00 00         ........
   15a10:	 00 00 da 02 80 82 02 80         ........
   15a18:	 82 02 80 b6 00 00 00 00         ........
   15a20:	 00 00 da 02 80 82 02 80         ........
   15a28:	 82 02 80 b6 00 00 00 00         ........
   15a30:	 00 00 da 02 80 82 02 80         ........
   15a38:	 82 02 80 b6 00 00 00 00         ........
   15a40:	 00 00 da 02 80 82 02 80         ........
   15a48:	 82 02 80 b6 00 00 00 00         ........
   15a50:	 00 00 da 02 80 82 02 80         ........
   15a58:	 82 02 80 b6 00 00 00 00         ........
   15a60:	 00 00 da 02 80 82 02 80         ........
   15a68:	 82 02 80 b6 00 00 00 00         ........
   15a70:	 00 00 da 02 80 82 02 80         ........
   15a78:	 82 02 80 b6 00 00 00 00         ........
   15a80:	 00 00 da 02 80 82 02 80         ........
   15a88:	 82 02 80 b6 00 00 00 00         ........
   15a90:	 00 00 da 02 80 82 02 80         ........
   15a98:	 82 02 80 b6 00 00 00 00         ........
   15aa0:	 00 00 da 02 80 82 02 80         ........
   15aa8:	 82 02 80 b6 00 00 00 00         ........
   15ab0:	 00 00 da 02 80 82 02 80         ........
   15ab8:	 82 02 80 b6 00 00 00 00         ........
   15ac0:	 00 00 00 00 00 00 00 00         ........
   15ac8:	 00 00 00 00 00 00 00 00         ........
   15ad0:	 00 00 18 3c 3c 3c 18 18         ...<<<..
   15ad8:	 18 00 18 18 00 00 00 00         ........
   15ae0:	 00 66 66 66 24 00 00 00         .fff$...
   15ae8:	 00 00 00 00 00 00 00 00         ........
   15af0:	 00 00 00 6c 6c fe 6c 6c         ...ll.ll
   15af8:	 6c fe 6c 6c 00 00 00 00         l.ll....
   15b00:	 18 18 7c c6 c2 c0 7c 06         ..|...|.
   15b08:	 06 86 c6 7c 18 18 00 00         ...|....
   15b10:	 00 00 00 00 c2 c6 0c 18         ........
   15b18:	 30 60 c6 86 00 00 00 00         0`......
   15b20:	 00 00 38 6c 6c 38 76 dc         ..8ll8v.
   15b28:	 cc cc cc 76 00 00 00 00         ...v....
   15b30:	 00 30 30 30 20 00 00 00         .000 ...
   15b38:	 00 00 00 00 00 00 00 00         ........
   15b40:	 00 00 0c 18 30 30 30 30         ....0000
   15b48:	 30 30 18 0c 00 00 00 00         00......
   15b50:	 00 00 30 18 0c 0c 0c 0c         ..0.....
   15b58:	 0c 0c 18 30 00 00 00 00         ...0....
   15b60:	 00 00 00 00 00 66 3c ff         .....f<.
   15b68:	 3c 66 00 00 00 00 00 00         <f......
   15b70:	 00 00 00 00 00 18 18 7e         .......~
   15b78:	 18 18 00 00 00 00 00 00         ........
   15b80:	 00 00 00 00 00 00 00 00         ........
   15b88:	 00 18 18 18 30 00 00 00         ....0...
   15b90:	 00 00 00 00 00 00 00 fe         ........
   15b98:	 00 00 00 00 00 00 00 00         ........
   15ba0:	 00 00 00 00 00 00 00 00         ........
   15ba8:	 00 00 18 18 00 00 00 00         ........
   15bb0:	 00 00 00 00 02 06 0c 18         ........
   15bb8:	 30 60 c0 80 00 00 00 00         0`......
   15bc0:	 00 00 38 6c c6 c6 d6 d6         ..8l....
   15bc8:	 c6 c6 6c 38 00 00 00 00         ..l8....
   15bd0:	 00 00 18 38 78 18 18 18         ...8x...
   15bd8:	 18 18 18 7e 00 00 00 00         ...~....
   15be0:	 00 00 7c c6 06 0c 18 30         ..|....0
   15be8:	 60 c0 c6 fe 00 00 00 00         `.......
   15bf0:	 00 00 7c c6 06 06 3c 06         ..|...<.
   15bf8:	 06 06 c6 7c 00 00 00 00         ...|....
   15c00:	 00 00 0c 1c 3c 6c cc fe         ....<l..
   15c08:	 0c 0c 0c 1e 00 00 00 00         ........
   15c10:	 00 00 fe c0 c0 c0 fc 06         ........
   15c18:	 06 06 c6 7c 00 00 00 00         ...|....
   15c20:	 00 00 38 60 c0 c0 fc c6         ..8`....
   15c28:	 c6 c6 c6 7c 00 00 00 00         ...|....
   15c30:	 00 00 fe c6 06 06 0c 18         ........
   15c38:	 30 30 30 30 00 00 00 00         0000....
   15c40:	 00 00 7c c6 c6 c6 7c c6         ..|...|.
   15c48:	 c6 c6 c6 7c 00 00 00 00         ...|....
   15c50:	 00 00 7c c6 c6 c6 7e 06         ..|...~.
   15c58:	 06 06 0c 78 00 00 00 00         ...x....
   15c60:	 00 00 00 00 18 18 00 00         ........
   15c68:	 00 18 18 00 00 00 00 00         ........
   15c70:	 00 00 00 00 18 18 00 00         ........
   15c78:	 00 18 18 30 00 00 00 00         ...0....
   15c80:	 00 00 00 06 0c 18 30 60         ......0`
   15c88:	 30 18 0c 06 00 00 00 00         0.......
   15c90:	 00 00 00 00 00 7e 00 00         .....~..
   15c98:	 7e 00 00 00 00 00 00 00         ~.......
   15ca0:	 00 00 00 60 30 18 0c 06         ...`0...
   15ca8:	 0c 18 30 60 00 00 00 00         ..0`....
   15cb0:	 00 00 7c c6 c6 0c 18 18         ..|.....
   15cb8:	 18 00 18 18 00 00 00 00         ........
   15cc0:	 00 00 00 7c c6 c6 de de         ...|....
   15cc8:	 de dc c0 7c 00 00 00 00         ...|....
   15cd0:	 00 00 10 38 6c c6 c6 fe         ...8l...
   15cd8:	 c6 c6 c6 c6 00 00 00 00         ........
   15ce0:	 00 00 fc 66 66 66 7c 66         ...fff|f
   15ce8:	 66 66 66 fc 00 00 00 00         fff.....
   15cf0:	 00 00 3c 66 c2 c0 c0 c0         ..<f....
   15cf8:	 c0 c2 66 3c 00 00 00 00         ..f<....
   15d00:	 00 00 f8 6c 66 66 66 66         ...lffff
   15d08:	 66 66 6c f8 00 00 00 00         ffl.....
   15d10:	 00 00 fe 66 62 68 78 68         ...fbhxh
   15d18:	 60 62 66 fe 00 00 00 00         `bf.....
   15d20:	 00 00 fe 66 62 68 78 68         ...fbhxh
   15d28:	 60 60 60 f0 00 00 00 00         ```.....
   15d30:	 00 00 3c 66 c2 c0 c0 de         ..<f....
   15d38:	 c6 c6 66 3a 00 00 00 00         ..f:....
   15d40:	 00 00 c6 c6 c6 c6 fe c6         ........
   15d48:	 c6 c6 c6 c6 00 00 00 00         ........
   15d50:	 00 00 3c 18 18 18 18 18         ..<.....
   15d58:	 18 18 18 3c 00 00 00 00         ...<....
   15d60:	 00 00 1e 0c 0c 0c 0c 0c         ........
   15d68:	 cc cc cc 78 00 00 00 00         ...x....
   15d70:	 00 00 e6 66 66 6c 78 78         ...fflxx
   15d78:	 6c 66 66 e6 00 00 00 00         lff.....
   15d80:	 00 00 f0 60 60 60 60 60         ...`````
   15d88:	 60 62 66 fe 00 00 00 00         `bf.....
   15d90:	 00 00 c6 ee fe fe d6 c6         ........
   15d98:	 c6 c6 c6 c6 00 00 00 00         ........
   15da0:	 00 00 c6 e6 f6 fe de ce         ........
   15da8:	 c6 c6 c6 c6 00 00 00 00         ........
   15db0:	 00 00 7c c6 c6 c6 c6 c6         ..|.....
   15db8:	 c6 c6 c6 7c 00 00 00 00         ...|....
   15dc0:	 00 00 fc 66 66 66 7c 60         ...fff|`
   15dc8:	 60 60 60 f0 00 00 00 00         ```.....
   15dd0:	 00 00 7c c6 c6 c6 c6 c6         ..|.....
   15dd8:	 c6 d6 de 7c 0c 0e 00 00         ...|....
   15de0:	 00 00 fc 66 66 66 7c 6c         ...fff|l
   15de8:	 66 66 66 e6 00 00 00 00         fff.....
   15df0:	 00 00 7c c6 c6 60 38 0c         ..|..`8.
   15df8:	 06 c6 c6 7c 00 00 00 00         ...|....
   15e00:	 00 00 7e 7e 5a 18 18 18         ..~~Z...
   15e08:	 18 18 18 3c 00 00 00 00         ...<....
   15e10:	 00 00 c6 c6 c6 c6 c6 c6         ........
   15e18:	 c6 c6 c6 7c 00 00 00 00         ...|....
   15e20:	 00 00 c6 c6 c6 c6 c6 c6         ........
   15e28:	 c6 6c 38 10 00 00 00 00         .l8.....
   15e30:	 00 00 c6 c6 c6 c6 d6 d6         ........
   15e38:	 d6 fe ee 6c 00 00 00 00         ...l....
   15e40:	 00 00 c6 c6 6c 7c 38 38         ....l|88
   15e48:	 7c 6c c6 c6 00 00 00 00         |l......
   15e50:	 00 00 66 66 66 66 3c 18         ..ffff<.
   15e58:	 18 18 18 3c 00 00 00 00         ...<....
   15e60:	 00 00 fe c6 86 0c 18 30         .......0
   15e68:	 60 c2 c6 fe 00 00 00 00         `.......
   15e70:	 00 00 3c 30 30 30 30 30         ..<00000
   15e78:	 30 30 30 3c 00 00 00 00         000<....
   15e80:	 00 00 00 80 c0 e0 70 38         ......p8
   15e88:	 1c 0e 06 02 00 00 00 00         ........
   15e90:	 00 00 3c 0c 0c 0c 0c 0c         ..<.....
   15e98:	 0c 0c 0c 3c 00 00 00 00         ...<....
   15ea0:	 10 38 6c c6 00 00 00 00         .8l.....
   15ea8:	 00 00 00 00 00 00 00 00         ........
   15eb0:	 00 00 00 00 00 00 00 00         ........
   15eb8:	 00 00 00 00 00 ff 00 00         ........
   15ec0:	 30 30 18 00 00 00 00 00         00......
   15ec8:	 00 00 00 00 00 00 00 00         ........
   15ed0:	 00 00 00 00 00 78 0c 7c         .....x.|
   15ed8:	 cc cc cc 76 00 00 00 00         ...v....
   15ee0:	 00 00 e0 60 60 78 6c 66         ...``xlf
   15ee8:	 66 66 66 7c 00 00 00 00         fff|....
   15ef0:	 00 00 00 00 00 7c c6 c0         .....|..
   15ef8:	 c0 c0 c6 7c 00 00 00 00         ...|....
   15f00:	 00 00 1c 0c 0c 3c 6c cc         .....<l.
   15f08:	 cc cc cc 76 00 00 00 00         ...v....
   15f10:	 00 00 00 00 00 7c c6 fe         .....|..
   15f18:	 c0 c0 c6 7c 00 00 00 00         ...|....
   15f20:	 00 00 38 6c 64 60 f0 60         ..8ld`.`
   15f28:	 60 60 60 f0 00 00 00 00         ```.....
   15f30:	 00 00 00 00 00 76 cc cc         .....v..
   15f38:	 cc cc cc 7c 0c cc 78 00         ...|..x.
   15f40:	 00 00 e0 60 60 6c 76 66         ...``lvf
   15f48:	 66 66 66 e6 00 00 00 00         fff.....
   15f50:	 00 00 18 18 00 38 18 18         .....8..
   15f58:	 18 18 18 3c 00 00 00 00         ...<....
   15f60:	 00 00 06 06 00 0e 06 06         ........
   15f68:	 06 06 06 06 66 66 3c 00         ....ff<.
   15f70:	 00 00 e0 60 60 66 6c 78         ...``flx
   15f78:	 78 6c 66 e6 00 00 00 00         xlf.....
   15f80:	 00 00 38 18 18 18 18 18         ..8.....
   15f88:	 18 18 18 3c 00 00 00 00         ...<....
   15f90:	 00 00 00 00 00 ec fe d6         ........
   15f98:	 d6 d6 d6 c6 00 00 00 00         ........
   15fa0:	 00 00 00 00 00 dc 66 66         ......ff
   15fa8:	 66 66 66 66 00 00 00 00         ffff....
   15fb0:	 00 00 00 00 00 7c c6 c6         .....|..
   15fb8:	 c6 c6 c6 7c 00 00 00 00         ...|....
   15fc0:	 00 00 00 00 00 dc 66 66         ......ff
   15fc8:	 66 66 66 7c 60 60 f0 00         fff|``..
   15fd0:	 00 00 00 00 00 76 cc cc         .....v..
   15fd8:	 cc cc cc 7c 0c 0c 1e 00         ...|....
   15fe0:	 00 00 00 00 00 dc 76 66         ......vf
   15fe8:	 60 60 60 f0 00 00 00 00         ```.....
   15ff0:	 00 00 00 00 00 7c c6 60         .....|.`
   15ff8:	 38 0c c6 7c 00 00 00 00         8..|....
   16000:	 00 00 10 30 30 fc 30 30         ...00.00
   16008:	 30 30 36 1c 00 00 00 00         006.....
   16010:	 00 00 00 00 00 cc cc cc         ........
   16018:	 cc cc cc 76 00 00 00 00         ...v....
   16020:	 00 00 00 00 00 66 66 66         .....fff
   16028:	 66 66 3c 18 00 00 00 00         ff<.....
   16030:	 00 00 00 00 00 c6 c6 d6         ........
   16038:	 d6 d6 fe 6c 00 00 00 00         ...l....
   16040:	 00 00 00 00 00 c6 6c 38         ......l8
   16048:	 38 38 6c c6 00 00 00 00         88l.....
   16050:	 00 00 00 00 00 c6 c6 c6         ........
   16058:	 c6 c6 c6 7e 06 0c f8 00         ...~....
   16060:	 00 00 00 00 00 fe cc 18         ........
   16068:	 30 60 c6 fe 00 00 00 00         0`......
   16070:	 00 00 0e 18 18 18 70 18         ......p.
   16078:	 18 18 18 0e 00 00 00 00         ........
   16080:	 00 00 18 18 18 18 00 18         ........
   16088:	 18 18 18 18 00 00 00 00         ........
   16090:	 00 00 70 18 18 18 0e 18         ..p.....
   16098:	 18 18 18 70 00 00 00 00         ...p....
   160a0:	 00 00 76 dc 00 00 00 00         ..v.....
   160a8:	 00 00 00 00 00 00 00 00         ........
   160b0:	 00 00 00 00 10 38 6c c6         .....8l.
   160b8:	 c6 c6 fe 00 00 00 00 00         ........
   160c0:	 00 00 00 00 00 00 00 00         ........
   160c8:	 00 00 00 00 00 00 00 00         ........
   160d0:	 00 00 18 18 00 18 18 18         ........
   160d8:	 3c 3c 3c 18 00 00 00 00         <<<.....
   160e0:	 00 18 18 3c 66 60 60 60         ...<f```
   160e8:	 66 3c 18 18 00 00 00 00         f<......
   160f0:	 00 38 6c 64 60 f0 60 60         .8ld`.``
   160f8:	 60 60 e6 fc 00 00 00 00         ``......
   16100:	 00 00 00 00 66 3c 66 66         ....f<ff
   16108:	 66 3c 66 00 00 00 00 00         f<f.....
   16110:	 00 00 66 66 3c 18 7e 18         ..ff<.~.
   16118:	 7e 18 18 18 00 00 00 00         ~.......
   16120:	 00 00 18 18 18 18 00 18         ........
   16128:	 18 18 18 18 00 00 00 00         ........
   16130:	 00 7c c6 60 38 6c c6 c6         .|.`8l..
   16138:	 6c 38 0c c6 7c 00 00 00         l8..|...
   16140:	 00 00 6c 6c 00 00 00 00         ..ll....
   16148:	 00 00 00 00 00 00 00 00         ........
   16150:	 00 00 3c 42 99 a5 a1 a1         ..<B....
   16158:	 a5 99 42 3c 00 00 00 00         ..B<....
   16160:	 00 3c 6c 6c 3e 00 7e 00         .<ll>.~.
   16168:	 00 00 00 00 00 00 00 00         ........
   16170:	 00 00 00 00 00 36 6c d8         .....6l.
   16178:	 6c 36 00 00 00 00 00 00         l6......
   16180:	 00 00 00 00 00 00 fe 06         ........
   16188:	 06 06 06 00 00 00 00 00         ........
   16190:	 00 00 00 00 00 00 00 3c         .......<
   16198:	 00 00 00 00 00 00 00 00         ........
   161a0:	 00 00 38 44 ba b2 aa 44         ..8D...D
   161a8:	 38 00 00 00 00 00 00 00         8.......
   161b0:	 00 00 00 7c 00 00 00 00         ...|....
   161b8:	 00 00 00 00 00 00 00 00         ........
   161c0:	 00 38 6c 6c 38 00 00 00         .8ll8...
   161c8:	 00 00 00 00 00 00 00 00         ........
   161d0:	 00 00 00 00 18 18 7e 18         ......~.
   161d8:	 18 00 7e 00 00 00 00 00         ..~.....
   161e0:	 00 70 d8 30 60 c8 f8 00         .p.0`...
   161e8:	 00 00 00 00 00 00 00 00         ........
   161f0:	 00 70 d8 30 18 d8 70 00         .p.0..p.
   161f8:	 00 00 00 00 00 00 00 00         ........
   16200:	 00 00 0c 18 00 00 00 00         ........
   16208:	 00 00 00 00 00 00 00 00         ........
   16210:	 00 00 00 00 00 cc cc cc         ........
   16218:	 cc cc cc f6 c0 c0 c0 00         ........
   16220:	 00 00 7f db db db 7b 1b         ......{.
   16228:	 1b 1b 1b 1b 00 00 00 00         ........
   16230:	 00 00 00 00 00 00 00 00         ........
   16238:	 18 00 00 00 00 00 00 00         ........
   16240:	 00 00 00 00 00 00 00 00         ........
   16248:	 00 00 00 00 18 0c 38 00         ......8.
   16250:	 00 30 70 30 30 30 78 00         .0p000x.
   16258:	 00 00 00 00 00 00 00 00         ........
   16260:	 00 38 6c 6c 38 00 7c 00         .8ll8.|.
   16268:	 00 00 00 00 00 00 00 00         ........
   16270:	 00 00 00 00 00 d8 6c 36         ......l6
   16278:	 6c d8 00 00 00 00 00 00         l.......
   16280:	 00 c0 c0 c2 c6 cc 18 30         .......0
   16288:	 66 ce 9e 3e 06 06 00 00         f..>....
   16290:	 00 c0 c0 c2 c6 cc 18 30         .......0
   16298:	 60 dc 86 0c 18 3e 00 00         `....>..
   162a0:	 00 e0 30 62 36 ec 18 30         ..0b6..0
   162a8:	 66 ce 9e 3e 06 06 00 00         f..>....
   162b0:	 00 00 30 30 00 30 30 60         ..00.00`
   162b8:	 c0 c6 c6 7c 00 00 00 00         ...|....
   162c0:	 60 30 00 10 38 6c c6 c6         `0..8l..
   162c8:	 fe c6 c6 c6 00 00 00 00         ........
   162d0:	 0c 18 00 10 38 6c c6 c6         ....8l..
   162d8:	 fe c6 c6 c6 00 00 00 00         ........
   162e0:	 10 38 6c 10 38 6c c6 c6         .8l.8l..
   162e8:	 fe c6 c6 c6 00 00 00 00         ........
   162f0:	 76 dc 00 10 38 6c c6 c6         v...8l..
   162f8:	 fe c6 c6 c6 00 00 00 00         ........
   16300:	 6c 6c 00 10 38 6c c6 c6         ll..8l..
   16308:	 fe c6 c6 c6 00 00 00 00         ........
   16310:	 38 6c 38 10 38 6c c6 c6         8l8.8l..
   16318:	 fe c6 c6 c6 00 00 00 00         ........
   16320:	 00 00 3e 6c cc cc fe cc         ..>l....
   16328:	 cc cc cc ce 00 00 00 00         ........
   16330:	 00 00 3c 66 c2 c0 c0 c0         ..<f....
   16338:	 c0 c2 66 3c 18 0c 38 00         ..f<..8.
   16340:	 30 18 00 fe 66 62 68 78         0...fbhx
   16348:	 68 62 66 fe 00 00 00 00         hbf.....
   16350:	 0c 18 00 fe 66 62 68 78         ....fbhx
   16358:	 68 62 66 fe 00 00 00 00         hbf.....
   16360:	 10 38 44 fe 66 62 68 78         .8D.fbhx
   16368:	 68 62 66 fe 00 00 00 00         hbf.....
   16370:	 6c 6c 00 fe 66 62 68 78         ll..fbhx
   16378:	 68 62 66 fe 00 00 00 00         hbf.....
   16380:	 30 18 00 3c 18 18 18 18         0..<....
   16388:	 18 18 18 3c 00 00 00 00         ...<....
   16390:	 0c 18 00 3c 18 18 18 18         ...<....
   16398:	 18 18 18 3c 00 00 00 00         ...<....
   163a0:	 18 3c 42 3c 18 18 18 18         .<B<....
   163a8:	 18 18 18 3c 00 00 00 00         ...<....
   163b0:	 66 66 00 3c 18 18 18 18         ff.<....
   163b8:	 18 18 18 3c 00 00 00 00         ...<....
   163c0:	 00 00 f8 6c 66 66 f6 66         ...lff.f
   163c8:	 66 66 6c f8 00 00 00 00         ffl.....
   163d0:	 76 dc 00 c6 e6 f6 fe de         v.......
   163d8:	 ce c6 c6 c6 00 00 00 00         ........
   163e0:	 60 30 00 7c c6 c6 c6 c6         `0.|....
   163e8:	 c6 c6 c6 7c 00 00 00 00         ...|....
   163f0:	 0c 18 00 7c c6 c6 c6 c6         ...|....
   163f8:	 c6 c6 c6 7c 00 00 00 00         ...|....
   16400:	 10 38 44 7c c6 c6 c6 c6         .8D|....
   16408:	 c6 c6 c6 7c 00 00 00 00         ...|....
   16410:	 76 dc 00 7c c6 c6 c6 c6         v..|....
   16418:	 c6 c6 c6 7c 00 00 00 00         ...|....
   16420:	 6c 6c 00 7c c6 c6 c6 c6         ll.|....
   16428:	 c6 c6 c6 7c 00 00 00 00         ...|....
   16430:	 00 00 00 00 00 66 3c 18         .....f<.
   16438:	 3c 66 00 00 00 00 00 00         <f......
   16440:	 00 00 7a c4 ce ce d6 d6         ..z.....
   16448:	 e6 e6 46 bc 00 00 00 00         ..F.....
   16450:	 60 30 00 c6 c6 c6 c6 c6         `0......
   16458:	 c6 c6 c6 7c 00 00 00 00         ...|....
   16460:	 0c 18 00 c6 c6 c6 c6 c6         ........
   16468:	 c6 c6 c6 7c 00 00 00 00         ...|....
   16470:	 10 38 44 c6 c6 c6 c6 c6         .8D.....
   16478:	 c6 c6 c6 7c 00 00 00 00         ...|....
   16480:	 6c 6c 00 c6 c6 c6 c6 c6         ll......
   16488:	 c6 c6 c6 7c 00 00 00 00         ...|....
   16490:	 0c 18 00 66 66 66 3c 18         ...fff<.
   16498:	 18 18 18 3c 00 00 00 00         ...<....
   164a0:	 00 00 f0 60 7c 66 66 66         ...`|fff
   164a8:	 66 7c 60 f0 00 00 00 00         f|`.....
   164b0:	 00 00 3c 66 66 66 6c 66         ..<ffflf
   164b8:	 66 66 66 ec 00 00 00 00         fff.....
   164c0:	 00 00 60 30 00 78 0c 7c         ..`0.x.|
   164c8:	 cc cc cc 76 00 00 00 00         ...v....
   164d0:	 00 00 18 30 00 78 0c 7c         ...0.x.|
   164d8:	 cc cc cc 76 00 00 00 00         ...v....
   164e0:	 00 10 38 6c 00 78 0c 7c         ..8l.x.|
   164e8:	 cc cc cc 76 00 00 00 00         ...v....
   164f0:	 00 00 76 dc 00 78 0c 7c         ..v..x.|
   164f8:	 cc cc cc 76 00 00 00 00         ...v....
   16500:	 00 00 6c 6c 00 78 0c 7c         ..ll.x.|
   16508:	 cc cc cc 76 00 00 00 00         ...v....
   16510:	 00 38 6c 38 00 78 0c 7c         .8l8.x.|
   16518:	 cc cc cc 76 00 00 00 00         ...v....
   16520:	 00 00 00 00 00 cc 76 36         ......v6
   16528:	 7e d8 d8 6e 00 00 00 00         ~..n....
   16530:	 00 00 00 00 00 7c c6 c0         .....|..
   16538:	 c0 c0 c6 7c 18 0c 38 00         ...|..8.
   16540:	 00 00 60 30 00 7c c6 fe         ..`0.|..
   16548:	 c0 c0 c6 7c 00 00 00 00         ...|....
   16550:	 00 00 0c 18 00 7c c6 fe         .....|..
   16558:	 c0 c0 c6 7c 00 00 00 00         ...|....
   16560:	 00 10 38 6c 00 7c c6 fe         ..8l.|..
   16568:	 c0 c0 c6 7c 00 00 00 00         ...|....
   16570:	 00 00 6c 6c 00 7c c6 fe         ..ll.|..
   16578:	 c0 c0 c6 7c 00 00 00 00         ...|....
   16580:	 00 00 30 18 00 38 18 18         ..0..8..
   16588:	 18 18 18 3c 00 00 00 00         ...<....
   16590:	 00 00 0c 18 00 38 18 18         .....8..
   16598:	 18 18 18 3c 00 00 00 00         ...<....
   165a0:	 00 10 38 6c 00 38 18 18         ..8l.8..
   165a8:	 18 18 18 3c 00 00 00 00         ...<....
   165b0:	 00 00 66 66 00 38 18 18         ..ff.8..
   165b8:	 18 18 18 3c 00 00 00 00         ...<....
   165c0:	 00 00 76 1c 3c 06 7e c6         ..v.<.~.
   165c8:	 c6 c6 c6 7c 00 00 00 00         ...|....
   165d0:	 00 00 76 dc 00 dc 66 66         ..v...ff
   165d8:	 66 66 66 66 00 00 00 00         ffff....
   165e0:	 00 00 60 30 00 7c c6 c6         ..`0.|..
   165e8:	 c6 c6 c6 7c 00 00 00 00         ...|....
   165f0:	 00 00 0c 18 00 7c c6 c6         .....|..
   165f8:	 c6 c6 c6 7c 00 00 00 00         ...|....
   16600:	 00 10 38 6c 00 7c c6 c6         ..8l.|..
   16608:	 c6 c6 c6 7c 00 00 00 00         ...|....
   16610:	 00 00 76 dc 00 7c c6 c6         ..v..|..
   16618:	 c6 c6 c6 7c 00 00 00 00         ...|....
   16620:	 00 00 6c 6c 00 7c c6 c6         ..ll.|..
   16628:	 c6 c6 c6 7c 00 00 00 00         ...|....
   16630:	 00 00 00 00 18 18 00 7e         .......~
   16638:	 00 18 18 00 00 00 00 00         ........
   16640:	 00 00 00 00 00 7a c4 ce         .....z..
   16648:	 d6 e6 46 bc 00 00 00 00         ..F.....
   16650:	 00 00 60 30 00 cc cc cc         ..`0....
   16658:	 cc cc cc 76 00 00 00 00         ...v....
   16660:	 00 00 18 30 00 cc cc cc         ...0....
   16668:	 cc cc cc 76 00 00 00 00         ...v....
   16670:	 00 10 38 6c 00 cc cc cc         ..8l....
   16678:	 cc cc cc 76 00 00 00 00         ...v....
   16680:	 00 00 cc cc 00 cc cc cc         ........
   16688:	 cc cc cc 76 00 00 00 00         ...v....
   16690:	 00 00 0c 18 00 c6 c6 c6         ........
   16698:	 c6 c6 c6 7e 06 0c f8 00         ...~....
   166a0:	 00 00 e0 60 60 7c 66 66         ...``|ff
   166a8:	 66 66 66 7c 60 60 f0 00         fff|``..
   166b0:	 00 00 6c 6c 00 c6 c6 c6         ..ll....
   166b8:	 c6 c6 c6 7e 06 0c f8 00         

KeyCodeToScancode8:
   166c0:	 00 76 05 06 04 0c 03 0b         .v......
   166c8:	 83 0a 01 09 78 07 00 7e         ....x..~
   166d0:	 00 00 00 00 00 00 00 00         ........
   166d8:	 00 00 00 00 00 00 00 00         ........
   166e0:	 0e 16 1e 26 25 2e 36 3d         ...&%.6=
   166e8:	 3e 46 45 4e 55 66 00 00         >FENUf..
   166f0:	 00 77 00 7c 7b 00 00 00         .w.|{...
   166f8:	 00 00 00 00 00 00 00 00         ........
   16700:	 0d 15 1d 24 2d 2c 35 3c         ...$-,5<
   16708:	 43 44 4d 54 5b 00 00 00         CDMT[...
   16710:	 00 6c 75 7d 79 00 00 00         .lu}y...
   16718:	 00 00 00 00 00 00 00 00         ........
   16720:	 58 1c 1b 23 2b 34 33 3b         X..#+43;
   16728:	 42 4b 4c 52 5d 5a 00 00         BKLR]Z..
   16730:	 00 6b 73 74 00 00 00 00         .kst....
   16738:	 00 00 00 00 00 00 00 00         ........
   16740:	 12 1a 22 21 2a 32 31 3a         .."!*21:
   16748:	 41 49 4a 59 00 00 00 00         AIJY....
   16750:	 00 69 72 7a 00 00 00 00         .irz....
   16758:	 00 00 00 00 00 00 00 00         ........
   16760:	 14 00 11 29 00 00 00 00         ...)....
   16768:	 00 00 00 00 00 00 00 00         ........
   16770:	 00 70 71 00 00 00 00 00         .pq.....
   16778:	 00 00 00 00 00 00 00 00         ........
   16780:	 00 00 00 00 00 00 00 00         ........
   16788:	 00 00 00 00 00 00 00 00         ........
   16790:	 00 00 00 00 00 00 00 00         ........
   16798:	 00 00 00 00 00 00 00 00         ........
   167a0:	 00 00 00 00 00 00 00 00         ........
   167a8:	 00 00 00 00 00 00 00 00         ........
   167b0:	 00 00 00 00 00 00 00 00         ........
   167b8:	 00 00 00 00 00 00 00 00         

ScancodeToKeyCode8:
   167c0:	 00 0a 00 06 04 02 03 0d         ........
   167c8:	 00 0b 09 07 05 40 20 00         .....@ .
   167d0:	 00 a2 80 00 a0 41 21 00         .....A!.
   167d8:	 00 00 81 62 61 42 22 00         ...baB".
   167e0:	 00 83 82 63 43 24 23 00         ...cC$#.
   167e8:	 00 a3 84 64 45 44 25 00         ...dED%.
   167f0:	 00 86 85 66 65 46 26 00         ...feF&.
   167f8:	 00 00 87 67 47 27 28 00         ...gG'(.
   16800:	 00 88 68 48 49 2a 29 00         ..hHI*).
   16808:	 00 89 8a 69 6a 4a 2b 00         ...ijJ+.
   16810:	 00 00 6b 00 4b 2c 00 00         ..k.K,..
   16818:	 60 8b 6d 4c 00 6c 00 00         `.mL.l..
   16820:	 00 00 00 00 00 00 2d 00         ......-.
   16828:	 00 91 00 71 51 00 00 00         ...qQ...
   16830:	 b1 b2 92 72 73 52 01 31         ...rsR.1
   16838:	 0c 54 93 34 33 53 0f 00         .T.43S..
   16840:	 00 00 00 08 00 00 00 00         ........
   16848:	 00 00 00 00 00 00 00 00         ........
   16850:	 00 00 00 00 00 00 00 00         ........
   16858:	 00 00 00 00 00 00 00 00         ........
   16860:	 00 00 00 00 00 00 00 00         ........
   16868:	 00 00 00 00 00 00 00 00         ........
   16870:	 00 00 00 00 00 00 00 00         ........
   16878:	 00 00 00 00 00 00 00 00         ........
   16880:	 00 00 00 00 00 00 00 00         ........
   16888:	 00 00 00 00 00 00 00 00         ........
   16890:	 00 00 00 00 00 00 00 00         ........
   16898:	 00 00 00 00 00 00 00 00         ........
   168a0:	 00 00 00 00 00 00 00 00         ........
   168a8:	 00 00 00 00 00 00 00 00         ........
   168b0:	 00 00 00 00 00 00 00 00         ........
   168b8:	 00 00 00 00 00 00 00 00         

KeyCodeToScancode16:
   168c0:	 00 00 00 00 00 00 00 00         ........
   168c8:	 00 00 00 00 00 00 00 00         ........
   168d0:	 00 00 00 00 00 00 00 00         ........
   168d8:	 00 00 00 00 00 00 00 00         ........
   168e0:	 00 00 00 00 00 00 00 00         ........
   168e8:	 00 00 00 00 00 00 70 6c         ......pl
   168f0:	 7d 00 4a 00 00 00 00 00         }.J.....
   168f8:	 00 00 00 00 00 00 00 00         ........
   16900:	 00 00 00 00 00 00 00 00         ........
   16908:	 00 00 00 00 00 00 71 69         ......qi
   16910:	 7a 00 00 00 00 00 00 00         z.......
   16918:	 00 00 00 00 00 00 00 00         ........
   16920:	 00 00 00 00 00 00 00 00         ........
   16928:	 00 00 00 00 00 00 00 00         ........
   16930:	 00 00 00 00 00 00 00 00         ........
   16938:	 00 00 00 00 00 00 00 00         ........
   16940:	 00 00 00 00 00 00 00 00         ........
   16948:	 00 00 00 00 00 00 00 75         .......u
   16950:	 00 00 00 00 5a 00 00 00         ....Z...
   16958:	 00 00 00 00 00 00 00 00         ........
   16960:	 00 1f 00 00 11 27 2f 14         .....'/.
   16968:	 00 00 00 00 00 00 6b 72         ......kr
   16970:	 74 00 00 00 00 00 00 00         t.......
   16978:	 00 00 00 00 00 00 00 00         ........
   16980:	 00 00 00 00 00 00 00 00         ........
   16988:	 00 00 00 00 00 00 00 00         ........
   16990:	 00 00 00 00 00 00 00 00         ........
   16998:	 00 00 00 00 00 00 00 00         ........
   169a0:	 00 00 00 00 00 00 00 00         ........
   169a8:	 00 00 00 00 00 00 00 00         ........
   169b0:	 00 00 00 00 00 00 00 00         ........
   169b8:	 00 00 00 00 00 00 00 00         

ScancodeToKeyCode16:
   169c0:	 00 00 00 00 00 00 00 00         ........
   169c8:	 00 00 00 00 00 00 00 00         ........
   169d0:	 00 a4 00 00 a7 00 00 00         ........
   169d8:	 00 00 00 00 00 00 00 a1         ........
   169e0:	 00 00 00 00 00 00 00 a5         ........
   169e8:	 00 00 00 00 00 00 00 a6         ........
   169f0:	 00 00 00 00 00 00 00 00         ........
   169f8:	 00 00 00 00 00 00 00 00         ........
   16a00:	 00 00 00 00 00 00 00 00         ........
   16a08:	 00 00 32 00 00 00 00 00         ..2.....
   16a10:	 00 00 00 00 00 00 00 00         ........
   16a18:	 00 00 94 00 00 00 00 00         ........
   16a20:	 00 00 00 00 00 00 00 00         ........
   16a28:	 00 4f 00 ae 2f 00 00 00         .O../...
   16a30:	 2e 4e af 00 b0 8f 00 00         .N......
   16a38:	 00 00 50 00 00 30 00 00         ..P..0..
   16a40:	 00 00 00 00 00 00 00 00         ........
   16a48:	 00 00 00 00 00 00 00 00         ........
   16a50:	 00 00 00 00 00 00 00 00         ........
   16a58:	 00 00 00 00 00 00 00 00         ........
   16a60:	 00 00 00 00 00 00 00 00         ........
   16a68:	 00 00 00 00 00 00 00 00         ........
   16a70:	 00 00 00 00 00 00 00 00         ........
   16a78:	 00 00 00 00 00 00 00 00         ........
   16a80:	 00 00 00 00 00 00 00 00         ........
   16a88:	 00 00 00 00 00 00 00 00         ........
   16a90:	 00 00 00 00 00 00 00 00         ........
   16a98:	 00 00 00 00 00 00 00 00         ........
   16aa0:	 00 00 00 00 00 00 00 00         ........
   16aa8:	 00 00 00 00 00 00 00 00         ........
   16ab0:	 00 00 00 00 00 00 00 00         ........
   16ab8:	 00 00 00 00 00 00 00 00         

KeyCodeToASCII8:
   16ac0:	 00 00 00 00 00 00 00 00         ........
   16ac8:	 00 00 00 00 00 00 00 00         ........
   16ad0:	 00 00 00 00 00 00 00 00         ........
   16ad8:	 00 00 00 00 00 00 00 00         ........
   16ae0:	 60 31 32 33 34 35 36 37         `1234567
   16ae8:	 38 39 30 2d 3d 08 00 00         890-=...
   16af0:	 00 00 2f 2a 2d 00 00 00         ../*-...
   16af8:	 00 00 00 00 00 00 00 00         ........
   16b00:	 00 71 77 65 72 74 79 75         .qwertyu
   16b08:	 69 6f 70 5b 5d 00 00 00         iop[]...
   16b10:	 00 37 38 39 2b 00 00 00         .789+...
   16b18:	 00 00 00 00 00 00 00 00         ........
   16b20:	 00 61 73 64 66 67 68 6a         .asdfghj
   16b28:	 6b 6c 3b 27 5c 0d 00 00         kl;'\...
   16b30:	 00 34 35 36 00 00 00 00         .456....
   16b38:	 00 00 00 00 00 00 00 00         ........
   16b40:	 00 7a 78 63 76 62 6e 6d         .zxcvbnm
   16b48:	 2c 2e 2f 00 00 00 00 00         ,./.....
   16b50:	 00 31 32 33 00 00 00 00         .123....
   16b58:	 00 00 00 00 00 00 00 00         ........
   16b60:	 00 00 00 20 00 00 00 00         ... ....
   16b68:	 00 00 00 00 00 00 00 00         ........
   16b70:	 00 30 00 00 00 00 00 00         .0......
   16b78:	 00 00 00 00 00 00 00 00         ........
   16b80:	 00 00 00 00 00 00 00 00         ........
   16b88:	 00 00 00 00 00 00 00 00         ........
   16b90:	 00 00 00 00 00 00 00 00         ........
   16b98:	 00 00 00 00 00 00 00 00         ........
   16ba0:	 00 00 00 00 00 00 00 00         ........
   16ba8:	 00 00 00 00 00 00 00 00         ........
   16bb0:	 00 00 00 00 00 00 00 00         ........
   16bb8:	 00 00 00 00 00 00 00 00         

KeyCodeToASCIIShift8:
   16bc0:	 00 00 00 00 00 00 00 00         ........
   16bc8:	 00 00 00 00 00 00 00 00         ........
   16bd0:	 00 00 00 00 00 00 00 00         ........
   16bd8:	 00 00 00 00 00 00 00 00         ........
   16be0:	 7e 21 40 23 24 25 5e 26         ~!@#$%^&
   16be8:	 2a 28 29 5f 2b 00 00 00         *()_+...
   16bf0:	 00 00 2f 2a 2d 00 00 00         ../*-...
   16bf8:	 00 00 00 00 00 00 00 00         ........
   16c00:	 09 51 57 45 52 54 59 55         .QWERTYU
   16c08:	 49 4f 50 7b 7d 00 00 00         IOP{}...
   16c10:	 00 37 38 39 2b 00 00 00         .789+...
   16c18:	 00 00 00 00 00 00 00 00         ........
   16c20:	 00 41 53 44 46 47 48 4a         .ASDFGHJ
   16c28:	 4b 4c 3a 22 7c 00 00 00         KL:"|...
   16c30:	 00 34 35 36 00 00 00 00         .456....
   16c38:	 00 00 00 00 00 00 00 00         ........
   16c40:	 00 5a 58 43 56 42 4e 4d         .ZXCVBNM
   16c48:	 3c 3e 3f 00 00 00 00 00         <>?.....
   16c50:	 00 31 32 33 00 00 00 00         .123....
   16c58:	 00 00 00 00 00 00 00 00         ........
   16c60:	 00 00 00 20 00 00 00 00         ... ....
   16c68:	 00 00 00 00 00 00 00 00         ........
   16c70:	 00 30 00 00 00 00 00 00         .0......
   16c78:	 00 00 00 00 00 00 00 00         ........
   16c80:	 00 00 00 00 00 00 00 00         ........
   16c88:	 00 00 00 00 00 00 00 00         ........
   16c90:	 00 00 00 00 00 00 00 00         ........
   16c98:	 00 00 00 00 00 00 00 00         ........
   16ca0:	 00 00 00 00 00 00 00 00         ........
   16ca8:	 00 00 00 00 00 00 00 00         ........
   16cb0:	 00 00 00 00 00 00 00 00         ........
   16cb8:	 00 00 00 00 00 00 00 00         

KeyCodeToASCIIAlt8:
   16cc0:	 00 00 00 00 00 00 00 00         ........
   16cc8:	 00 00 00 00 00 00 00 00         ........
   16cd0:	 00 00 00 00 00 00 00 00         ........
   16cd8:	 00 00 00 00 00 00 00 00         ........
   16ce0:	 7e 21 40 23 24 25 5e 26         ~!@#$%^&
   16ce8:	 2a 28 29 5f 2b 00 00 00         *()_+...
   16cf0:	 00 00 2f 2a 2d 00 00 00         ../*-...
   16cf8:	 00 00 00 00 00 00 00 00         ........
   16d00:	 09 51 57 45 52 54 59 55         .QWERTYU
   16d08:	 49 4f 50 7b 7d 00 00 00         IOP{}...
   16d10:	 00 37 38 39 2b 00 00 00         .789+...
   16d18:	 00 00 00 00 00 00 00 00         ........
   16d20:	 00 41 53 44 46 47 48 4a         .ASDFGHJ
   16d28:	 4b 4c 3a 22 7c 00 00 00         KL:"|...
   16d30:	 00 34 35 36 00 00 00 00         .456....
   16d38:	 00 00 00 00 00 00 00 00         ........
   16d40:	 00 5a 58 43 56 42 4e 4d         .ZXCVBNM
   16d48:	 3c 3e 3f 00 00 00 00 00         <>?.....
   16d50:	 00 31 32 33 00 00 00 00         .123....
   16d58:	 00 00 00 00 00 00 00 00         ........
   16d60:	 00 00 00 20 00 00 00 00         ... ....
   16d68:	 00 00 00 00 00 00 00 00         ........
   16d70:	 00 30 00 00 00 00 00 00         .0......
   16d78:	 00 00 00 00 00 00 00 00         ........
   16d80:	 00 00 00 00 00 00 00 00         ........
   16d88:	 00 00 00 00 00 00 00 00         ........
   16d90:	 00 00 00 00 00 00 00 00         ........
   16d98:	 00 00 00 00 00 00 00 00         ........
   16da0:	 00 00 00 00 00 00 00 00         ........
   16da8:	 00 00 00 00 00 00 00 00         ........
   16db0:	 00 00 00 00 00 00 00 00         ........
   16db8:	 00 00 00 00 00 00 00 00         

kernelInfo:
   16dc0:	 00 00 00 00 00 00 00 00         ........
   16dc8:	 00 00 00 00 00 00 00 00         ........
   16dd0:	 00 00 00 00 00 00 00 00         ........
   16dd8:	 00 00 00 00 00 00 00 00         ........
   16de0:	 00 90                           ......

memoryMapFirstEntry:
   16de2:	 00 00 66 2e 0f 1f 84 00         ..f.....
   16dea:	 00 00 00 00 66 90               ..

physicalPageBitmap:
   16df0:	 00 00 00 00 00 00 00 00         ........
   16df8:	 00 00 00 00 00 00 00 00         

isPhysicalPageFrameAllocationInitialized:
   16e00:	 00 00 00 00 66 2e 0f 1f         ....f...
   16e08:	 84 00 00 00 00 00 66 2e         ......f.
   16e10:	 0f 1f 84 00 00 00 00 00         ........
   16e18:	 0f 1f 84 00 00 00 00 00         

gdtentries:
   16e20:	 00 00 00 00 00 00 00 00         ........
   16e28:	 00 00 00 00 00 00 00 00         ........
   16e30:	 00 00 00 00 00 00 00 00         ........
   16e38:	 00 00 00 00 00 00 00 00         ........
   16e40:	 00 00 00 00 00 00 00 00         

currentPML4:
   16e48:	 00 00 00 00 00 00 00 00         

currentHeap:
   16e50:	 00 00 00 00 00 00 00 00         ........
   16e58:	 0f 1f 84 00 00 00 00 00         

currentIDT:
   16e60:	 00 00 00 00 00 00 00 00         ........
   16e68:	 00 00 00 00 00 00 00 00         ........
   16e70:	 00 00 00 00 00 00 00 00         ........
   16e78:	 00 00 00 00 00 00 00 00         

idtEntries:
   16e80:	 00 00 00 00 00 00 00 00         ........
   16e88:	 00 00 00 00 00 00 00 00         ........
   16e90:	 00 00 00 00 00 00 00 00         ........
   16e98:	 00 00 00 00 00 00 00 00         ........
   16ea0:	 00 00 00 00 00 00 00 00         ........
   16ea8:	 00 00 00 00 00 00 00 00         ........
   16eb0:	 00 00 00 00 00 00 00 00         ........
   16eb8:	 00 00 00 00 00 00 00 00         ........
   16ec0:	 00 00 00 00 00 00 00 00         ........
   16ec8:	 00 00 00 00 00 00 00 00         ........
   16ed0:	 00 00 00 00 00 00 00 00         ........
   16ed8:	 00 00 00 00 00 00 00 00         ........
   16ee0:	 00 00 00 00 00 00 00 00         ........
   16ee8:	 00 00 00 00 00 00 00 00         ........
   16ef0:	 00 00 00 00 00 00 00 00         ........
   16ef8:	 00 00 00 00 00 00 00 00         ........
   16f00:	 00 00 00 00 00 00 00 00         ........
   16f08:	 00 00 00 00 00 00 00 00         ........
   16f10:	 00 00 00 00 00 00 00 00         ........
   16f18:	 00 00 00 00 00 00 00 00         ........
   16f20:	 00 00 00 00 00 00 00 00         ........
   16f28:	 00 00 00 00 00 00 00 00         ........
   16f30:	 00 00 00 00 00 00 00 00         ........
   16f38:	 00 00 00 00 00 00 00 00         ........
   16f40:	 00 00 00 00 00 00 00 00         ........
   16f48:	 00 00 00 00 00 00 00 00         ........
   16f50:	 00 00 00 00 00 00 00 00         ........
   16f58:	 00 00 00 00 00 00 00 00         ........
   16f60:	 00 00 00 00 00 00 00 00         ........
   16f68:	 00 00 00 00 00 00 00 00         ........
   16f70:	 00 00 00 00 00 00 00 00         ........
   16f78:	 00 00 00 00 00 00 00 00         ........
   16f80:	 00 00 00 00 00 00 00 00         ........
   16f88:	 00 00 00 00 00 00 00 00         ........
   16f90:	 00 00 00 00 00 00 00 00         ........
   16f98:	 00 00 00 00 00 00 00 00         ........
   16fa0:	 00 00 00 00 00 00 00 00         ........
   16fa8:	 00 00 00 00 00 00 00 00         ........
   16fb0:	 00 00 00 00 00 00 00 00         ........
   16fb8:	 00 00 00 00 00 00 00 00         ........
   16fc0:	 00 00 00 00 00 00 00 00         ........
   16fc8:	 00 00 00 00 00 00 00 00         ........
   16fd0:	 00 00 00 00 00 00 00 00         ........
   16fd8:	 00 00 00 00 00 00 00 00         ........
   16fe0:	 00 00 00 00 00 00 00 00         ........
   16fe8:	 00 00 00 00 00 00 00 00         ........
   16ff0:	 00 00 00 00 00 00 00 00         ........
   16ff8:	 00 00 00 00 00 00 00 00         ........
   17000:	 00 00 00 00 00 00 00 00         ........
   17008:	 00 00 00 00 00 00 00 00         ........
   17010:	 00 00 00 00 00 00 00 00         ........
   17018:	 00 00 00 00 00 00 00 00         ........
   17020:	 00 00 00 00 00 00 00 00         ........
   17028:	 00 00 00 00 00 00 00 00         ........
   17030:	 00 00 00 00 00 00 00 00         ........
   17038:	 00 00 00 00 00 00 00 00         ........
   17040:	 00 00 00 00 00 00 00 00         ........
   17048:	 00 00 00 00 00 00 00 00         ........
   17050:	 00 00 00 00 00 00 00 00         ........
   17058:	 00 00 00 00 00 00 00 00         ........
   17060:	 00 00 00 00 00 00 00 00         ........
   17068:	 00 00 00 00 00 00 00 00         ........
   17070:	 00 00 00 00 00 00 00 00         ........
   17078:	 00 00 00 00 00 00 00 00         ........
   17080:	 00 00 00 00 00 00 00 00         ........
   17088:	 00 00 00 00 00 00 00 00         ........
   17090:	 00 00 00 00 00 00 00 00         ........
   17098:	 00 00 00 00 00 00 00 00         ........
   170a0:	 00 00 00 00 00 00 00 00         ........
   170a8:	 00 00 00 00 00 00 00 00         ........
   170b0:	 00 00 00 00 00 00 00 00         ........
   170b8:	 00 00 00 00 00 00 00 00         ........
   170c0:	 00 00 00 00 00 00 00 00         ........
   170c8:	 00 00 00 00 00 00 00 00         ........
   170d0:	 00 00 00 00 00 00 00 00         ........
   170d8:	 00 00 00 00 00 00 00 00         ........
   170e0:	 00 00 00 00 00 00 00 00         ........
   170e8:	 00 00 00 00 00 00 00 00         ........
   170f0:	 00 00 00 00 00 00 00 00         ........
   170f8:	 00 00 00 00 00 00 00 00         ........
   17100:	 00 00 00 00 00 00 00 00         ........
   17108:	 00 00 00 00 00 00 00 00         ........
   17110:	 00 00 00 00 00 00 00 00         ........
   17118:	 00 00 00 00 00 00 00 00         ........
   17120:	 00 00 00 00 00 00 00 00         ........
   17128:	 00 00 00 00 00 00 00 00         ........
   17130:	 00 00 00 00 00 00 00 00         ........
   17138:	 00 00 00 00 00 00 00 00         ........
   17140:	 00 00 00 00 00 00 00 00         ........
   17148:	 00 00 00 00 00 00 00 00         ........
   17150:	 00 00 00 00 00 00 00 00         ........
   17158:	 00 00 00 00 00 00 00 00         ........
   17160:	 00 00 00 00 00 00 00 00         ........
   17168:	 00 00 00 00 00 00 00 00         ........
   17170:	 00 00 00 00 00 00 00 00         ........
   17178:	 00 00 00 00 00 00 00 00         ........
   17180:	 00 00 00 00 00 00 00 00         ........
   17188:	 00 00 00 00 00 00 00 00         ........
   17190:	 00 00 00 00 00 00 00 00         ........
   17198:	 00 00 00 00 00 00 00 00         ........
   171a0:	 00 00 00 00 00 00 00 00         ........
   171a8:	 00 00 00 00 00 00 00 00         ........
   171b0:	 00 00 00 00 00 00 00 00         ........
   171b8:	 00 00 00 00 00 00 00 00         ........
   171c0:	 00 00 00 00 00 00 00 00         ........
   171c8:	 00 00 00 00 00 00 00 00         ........
   171d0:	 00 00 00 00 00 00 00 00         ........
   171d8:	 00 00 00 00 00 00 00 00         ........
   171e0:	 00 00 00 00 00 00 00 00         ........
   171e8:	 00 00 00 00 00 00 00 00         ........
   171f0:	 00 00 00 00 00 00 00 00         ........
   171f8:	 00 00 00 00 00 00 00 00         ........
   17200:	 00 00 00 00 00 00 00 00         ........
   17208:	 00 00 00 00 00 00 00 00         ........
   17210:	 00 00 00 00 00 00 00 00         ........
   17218:	 00 00 00 00 00 00 00 00         ........
   17220:	 00 00 00 00 00 00 00 00         ........
   17228:	 00 00 00 00 00 00 00 00         ........
   17230:	 00 00 00 00 00 00 00 00         ........
   17238:	 00 00 00 00 00 00 00 00         ........
   17240:	 00 00 00 00 00 00 00 00         ........
   17248:	 00 00 00 00 00 00 00 00         ........
   17250:	 00 00 00 00 00 00 00 00         ........
   17258:	 00 00 00 00 00 00 00 00         ........
   17260:	 00 00 00 00 00 00 00 00         ........
   17268:	 00 00 00 00 00 00 00 00         ........
   17270:	 00 00 00 00 00 00 00 00         ........
   17278:	 00 00 00 00 00 00 00 00         ........
   17280:	 00 00 00 00 00 00 00 00         ........
   17288:	 00 00 00 00 00 00 00 00         ........
   17290:	 00 00 00 00 00 00 00 00         ........
   17298:	 00 00 00 00 00 00 00 00         ........
   172a0:	 00 00 00 00 00 00 00 00         ........
   172a8:	 00 00 00 00 00 00 00 00         ........
   172b0:	 00 00 00 00 00 00 00 00         ........
   172b8:	 00 00 00 00 00 00 00 00         ........
   172c0:	 00 00 00 00 00 00 00 00         ........
   172c8:	 00 00 00 00 00 00 00 00         ........
   172d0:	 00 00 00 00 00 00 00 00         ........
   172d8:	 00 00 00 00 00 00 00 00         ........
   172e0:	 00 00 00 00 00 00 00 00         ........
   172e8:	 00 00 00 00 00 00 00 00         ........
   172f0:	 00 00 00 00 00 00 00 00         ........
   172f8:	 00 00 00 00 00 00 00 00         ........
   17300:	 00 00 00 00 00 00 00 00         ........
   17308:	 00 00 00 00 00 00 00 00         ........
   17310:	 00 00 00 00 00 00 00 00         ........
   17318:	 00 00 00 00 00 00 00 00         ........
   17320:	 00 00 00 00 00 00 00 00         ........
   17328:	 00 00 00 00 00 00 00 00         ........
   17330:	 00 00 00 00 00 00 00 00         ........
   17338:	 00 00 00 00 00 00 00 00         ........
   17340:	 00 00 00 00 00 00 00 00         ........
   17348:	 00 00 00 00 00 00 00 00         ........
   17350:	 00 00 00 00 00 00 00 00         ........
   17358:	 00 00 00 00 00 00 00 00         ........
   17360:	 00 00 00 00 00 00 00 00         ........
   17368:	 00 00 00 00 00 00 00 00         ........
   17370:	 00 00 00 00 00 00 00 00         ........
   17378:	 00 00 00 00 00 00 00 00         ........
   17380:	 00 00 00 00 00 00 00 00         ........
   17388:	 00 00 00 00 00 00 00 00         ........
   17390:	 00 00 00 00 00 00 00 00         ........
   17398:	 00 00 00 00 00 00 00 00         ........
   173a0:	 00 00 00 00 00 00 00 00         ........
   173a8:	 00 00 00 00 00 00 00 00         ........
   173b0:	 00 00 00 00 00 00 00 00         ........
   173b8:	 00 00 00 00 00 00 00 00         ........
   173c0:	 00 00 00 00 00 00 00 00         ........
   173c8:	 00 00 00 00 00 00 00 00         ........
   173d0:	 00 00 00 00 00 00 00 00         ........
   173d8:	 00 00 00 00 00 00 00 00         ........
   173e0:	 00 00 00 00 00 00 00 00         ........
   173e8:	 00 00 00 00 00 00 00 00         ........
   173f0:	 00 00 00 00 00 00 00 00         ........
   173f8:	 00 00 00 00 00 00 00 00         ........
   17400:	 00 00 00 00 00 00 00 00         ........
   17408:	 00 00 00 00 00 00 00 00         ........
   17410:	 00 00 00 00 00 00 00 00         ........
   17418:	 00 00 00 00 00 00 00 00         ........
   17420:	 00 00 00 00 00 00 00 00         ........
   17428:	 00 00 00 00 00 00 00 00         ........
   17430:	 00 00 00 00 00 00 00 00         ........
   17438:	 00 00 00 00 00 00 00 00         ........
   17440:	 00 00 00 00 00 00 00 00         ........
   17448:	 00 00 00 00 00 00 00 00         ........
   17450:	 00 00 00 00 00 00 00 00         ........
   17458:	 00 00 00 00 00 00 00 00         ........
   17460:	 00 00 00 00 00 00 00 00         ........
   17468:	 00 00 00 00 00 00 00 00         ........
   17470:	 00 00 00 00 00 00 00 00         ........
   17478:	 00 00 00 00 00 00 00 00         ........
   17480:	 00 00 00 00 00 00 00 00         ........
   17488:	 00 00 00 00 00 00 00 00         ........
   17490:	 00 00 00 00 00 00 00 00         ........
   17498:	 00 00 00 00 00 00 00 00         ........
   174a0:	 00 00 00 00 00 00 00 00         ........
   174a8:	 00 00 00 00 00 00 00 00         ........
   174b0:	 00 00 00 00 00 00 00 00         ........
   174b8:	 00 00 00 00 00 00 00 00         ........
   174c0:	 00 00 00 00 00 00 00 00         ........
   174c8:	 00 00 00 00 00 00 00 00         ........
   174d0:	 00 00 00 00 00 00 00 00         ........
   174d8:	 00 00 00 00 00 00 00 00         ........
   174e0:	 00 00 00 00 00 00 00 00         ........
   174e8:	 00 00 00 00 00 00 00 00         ........
   174f0:	 00 00 00 00 00 00 00 00         ........
   174f8:	 00 00 00 00 00 00 00 00         ........
   17500:	 00 00 00 00 00 00 00 00         ........
   17508:	 00 00 00 00 00 00 00 00         ........
   17510:	 00 00 00 00 00 00 00 00         ........
   17518:	 00 00 00 00 00 00 00 00         ........
   17520:	 00 00 00 00 00 00 00 00         ........
   17528:	 00 00 00 00 00 00 00 00         ........
   17530:	 00 00 00 00 00 00 00 00         ........
   17538:	 00 00 00 00 00 00 00 00         ........
   17540:	 00 00 00 00 00 00 00 00         ........
   17548:	 00 00 00 00 00 00 00 00         ........
   17550:	 00 00 00 00 00 00 00 00         ........
   17558:	 00 00 00 00 00 00 00 00         ........
   17560:	 00 00 00 00 00 00 00 00         ........
   17568:	 00 00 00 00 00 00 00 00         ........
   17570:	 00 00 00 00 00 00 00 00         ........
   17578:	 00 00 00 00 00 00 00 00         ........
   17580:	 00 00 00 00 00 00 00 00         ........
   17588:	 00 00 00 00 00 00 00 00         ........
   17590:	 00 00 00 00 00 00 00 00         ........
   17598:	 00 00 00 00 00 00 00 00         ........
   175a0:	 00 00 00 00 00 00 00 00         ........
   175a8:	 00 00 00 00 00 00 00 00         ........
   175b0:	 00 00 00 00 00 00 00 00         ........
   175b8:	 00 00 00 00 00 00 00 00         ........
   175c0:	 00 00 00 00 00 00 00 00         ........
   175c8:	 00 00 00 00 00 00 00 00         ........
   175d0:	 00 00 00 00 00 00 00 00         ........
   175d8:	 00 00 00 00 00 00 00 00         ........
   175e0:	 00 00 00 00 00 00 00 00         ........
   175e8:	 00 00 00 00 00 00 00 00         ........
   175f0:	 00 00 00 00 00 00 00 00         ........
   175f8:	 00 00 00 00 00 00 00 00         ........
   17600:	 00 00 00 00 00 00 00 00         ........
   17608:	 00 00 00 00 00 00 00 00         ........
   17610:	 00 00 00 00 00 00 00 00         ........
   17618:	 00 00 00 00 00 00 00 00         ........
   17620:	 00 00 00 00 00 00 00 00         ........
   17628:	 00 00 00 00 00 00 00 00         ........
   17630:	 00 00 00 00 00 00 00 00         ........
   17638:	 00 00 00 00 00 00 00 00         ........
   17640:	 00 00 00 00 00 00 00 00         ........
   17648:	 00 00 00 00 00 00 00 00         ........
   17650:	 00 00 00 00 00 00 00 00         ........
   17658:	 00 00 00 00 00 00 00 00         ........
   17660:	 00 00 00 00 00 00 00 00         ........
   17668:	 00 00 00 00 00 00 00 00         ........
   17670:	 00 00 00 00 00 00 00 00         ........
   17678:	 00 00 00 00 00 00 00 00         ........
   17680:	 00 00 00 00 00 00 00 00         ........
   17688:	 00 00 00 00 00 00 00 00         ........
   17690:	 00 00 00 00 00 00 00 00         ........
   17698:	 00 00 00 00 00 00 00 00         ........
   176a0:	 00 00 00 00 00 00 00 00         ........
   176a8:	 00 00 00 00 00 00 00 00         ........
   176b0:	 00 00 00 00 00 00 00 00         ........
   176b8:	 00 00 00 00 00 00 00 00         ........
   176c0:	 00 00 00 00 00 00 00 00         ........
   176c8:	 00 00 00 00 00 00 00 00         ........
   176d0:	 00 00 00 00 00 00 00 00         ........
   176d8:	 00 00 00 00 00 00 00 00         ........
   176e0:	 00 00 00 00 00 00 00 00         ........
   176e8:	 00 00 00 00 00 00 00 00         ........
   176f0:	 00 00 00 00 00 00 00 00         ........
   176f8:	 00 00 00 00 00 00 00 00         ........
   17700:	 00 00 00 00 00 00 00 00         ........
   17708:	 00 00 00 00 00 00 00 00         ........
   17710:	 00 00 00 00 00 00 00 00         ........
   17718:	 00 00 00 00 00 00 00 00         ........
   17720:	 00 00 00 00 00 00 00 00         ........
   17728:	 00 00 00 00 00 00 00 00         ........
   17730:	 00 00 00 00 00 00 00 00         ........
   17738:	 00 00 00 00 00 00 00 00         ........
   17740:	 00 00 00 00 00 00 00 00         ........
   17748:	 00 00 00 00 00 00 00 00         ........
   17750:	 00 00 00 00 00 00 00 00         ........
   17758:	 00 00 00 00 00 00 00 00         ........
   17760:	 00 00 00 00 00 00 00 00         ........
   17768:	 00 00 00 00 00 00 00 00         ........
   17770:	 00 00 00 00 00 00 00 00         ........
   17778:	 00 00 00 00 00 00 00 00         ........
   17780:	 00 00 00 00 00 00 00 00         ........
   17788:	 00 00 00 00 00 00 00 00         ........
   17790:	 00 00 00 00 00 00 00 00         ........
   17798:	 00 00 00 00 00 00 00 00         ........
   177a0:	 00 00 00 00 00 00 00 00         ........
   177a8:	 00 00 00 00 00 00 00 00         ........
   177b0:	 00 00 00 00 00 00 00 00         ........
   177b8:	 00 00 00 00 00 00 00 00         ........
   177c0:	 00 00 00 00 00 00 00 00         ........
   177c8:	 00 00 00 00 00 00 00 00         ........
   177d0:	 00 00 00 00 00 00 00 00         ........
   177d8:	 00 00 00 00 00 00 00 00         ........
   177e0:	 00 00 00 00 00 00 00 00         ........
   177e8:	 00 00 00 00 00 00 00 00         ........
   177f0:	 00 00 00 00 00 00 00 00         ........
   177f8:	 00 00 00 00 00 00 00 00         ........
   17800:	 00 00 00 00 00 00 00 00         ........
   17808:	 00 00 00 00 00 00 00 00         ........
   17810:	 00 00 00 00 00 00 00 00         ........
   17818:	 00 00 00 00 00 00 00 00         ........
   17820:	 00 00 00 00 00 00 00 00         ........
   17828:	 00 00 00 00 00 00 00 00         ........
   17830:	 00 00 00 00 00 00 00 00         ........
   17838:	 00 00 00 00 00 00 00 00         ........
   17840:	 00 00 00 00 00 00 00 00         ........
   17848:	 00 00 00 00 00 00 00 00         ........
   17850:	 00 00 00 00 00 00 00 00         ........
   17858:	 00 00 00 00 00 00 00 00         ........
   17860:	 00 00 00 00 00 00 00 00         ........
   17868:	 00 00 00 00 00 00 00 00         ........
   17870:	 00 00 00 00 00 00 00 00         ........
   17878:	 00 00 00 00 00 00 00 00         ........
   17880:	 00 00 00 00 00 00 00 00         ........
   17888:	 00 00 00 00 00 00 00 00         ........
   17890:	 00 00 00 00 00 00 00 00         ........
   17898:	 00 00 00 00 00 00 00 00         ........
   178a0:	 00 00 00 00 00 00 00 00         ........
   178a8:	 00 00 00 00 00 00 00 00         ........
   178b0:	 00 00 00 00 00 00 00 00         ........
   178b8:	 00 00 00 00 00 00 00 00         ........
   178c0:	 00 00 00 00 00 00 00 00         ........
   178c8:	 00 00 00 00 00 00 00 00         ........
   178d0:	 00 00 00 00 00 00 00 00         ........
   178d8:	 00 00 00 00 00 00 00 00         ........
   178e0:	 00 00 00 00 00 00 00 00         ........
   178e8:	 00 00 00 00 00 00 00 00         ........
   178f0:	 00 00 00 00 00 00 00 00         ........
   178f8:	 00 00 00 00 00 00 00 00         ........
   17900:	 00 00 00 00 00 00 00 00         ........
   17908:	 00 00 00 00 00 00 00 00         ........
   17910:	 00 00 00 00 00 00 00 00         ........
   17918:	 00 00 00 00 00 00 00 00         ........
   17920:	 00 00 00 00 00 00 00 00         ........
   17928:	 00 00 00 00 00 00 00 00         ........
   17930:	 00 00 00 00 00 00 00 00         ........
   17938:	 00 00 00 00 00 00 00 00         ........
   17940:	 00 00 00 00 00 00 00 00         ........
   17948:	 00 00 00 00 00 00 00 00         ........
   17950:	 00 00 00 00 00 00 00 00         ........
   17958:	 00 00 00 00 00 00 00 00         ........
   17960:	 00 00 00 00 00 00 00 00         ........
   17968:	 00 00 00 00 00 00 00 00         ........
   17970:	 00 00 00 00 00 00 00 00         ........
   17978:	 00 00 00 00 00 00 00 00         ........
   17980:	 00 00 00 00 00 00 00 00         ........
   17988:	 00 00 00 00 00 00 00 00         ........
   17990:	 00 00 00 00 00 00 00 00         ........
   17998:	 00 00 00 00 00 00 00 00         ........
   179a0:	 00 00 00 00 00 00 00 00         ........
   179a8:	 00 00 00 00 00 00 00 00         ........
   179b0:	 00 00 00 00 00 00 00 00         ........
   179b8:	 00 00 00 00 00 00 00 00         ........
   179c0:	 00 00 00 00 00 00 00 00         ........
   179c8:	 00 00 00 00 00 00 00 00         ........
   179d0:	 00 00 00 00 00 00 00 00         ........
   179d8:	 00 00 00 00 00 00 00 00         ........
   179e0:	 00 00 00 00 00 00 00 00         ........
   179e8:	 00 00 00 00 00 00 00 00         ........
   179f0:	 00 00 00 00 00 00 00 00         ........
   179f8:	 00 00 00 00 00 00 00 00         ........
   17a00:	 00 00 00 00 00 00 00 00         ........
   17a08:	 00 00 00 00 00 00 00 00         ........
   17a10:	 00 00 00 00 00 00 00 00         ........
   17a18:	 00 00 00 00 00 00 00 00         ........
   17a20:	 00 00 00 00 00 00 00 00         ........
   17a28:	 00 00 00 00 00 00 00 00         ........
   17a30:	 00 00 00 00 00 00 00 00         ........
   17a38:	 00 00 00 00 00 00 00 00         ........
   17a40:	 00 00 00 00 00 00 00 00         ........
   17a48:	 00 00 00 00 00 00 00 00         ........
   17a50:	 00 00 00 00 00 00 00 00         ........
   17a58:	 00 00 00 00 00 00 00 00         ........
   17a60:	 00 00 00 00 00 00 00 00         ........
   17a68:	 00 00 00 00 00 00 00 00         ........
   17a70:	 00 00 00 00 00 00 00 00         ........
   17a78:	 00 00 00 00 00 00 00 00         ........
   17a80:	 00 00 00 00 00 00 00 00         ........
   17a88:	 00 00 00 00 00 00 00 00         ........
   17a90:	 00 00 00 00 00 00 00 00         ........
   17a98:	 00 00 00 00 00 00 00 00         ........
   17aa0:	 00 00 00 00 00 00 00 00         ........
   17aa8:	 00 00 00 00 00 00 00 00         ........
   17ab0:	 00 00 00 00 00 00 00 00         ........
   17ab8:	 00 00 00 00 00 00 00 00         ........
   17ac0:	 00 00 00 00 00 00 00 00         ........
   17ac8:	 00 00 00 00 00 00 00 00         ........
   17ad0:	 00 00 00 00 00 00 00 00         ........
   17ad8:	 00 00 00 00 00 00 00 00         ........
   17ae0:	 00 00 00 00 00 00 00 00         ........
   17ae8:	 00 00 00 00 00 00 00 00         ........
   17af0:	 00 00 00 00 00 00 00 00         ........
   17af8:	 00 00 00 00 00 00 00 00         ........
   17b00:	 00 00 00 00 00 00 00 00         ........
   17b08:	 00 00 00 00 00 00 00 00         ........
   17b10:	 00 00 00 00 00 00 00 00         ........
   17b18:	 00 00 00 00 00 00 00 00         ........
   17b20:	 00 00 00 00 00 00 00 00         ........
   17b28:	 00 00 00 00 00 00 00 00         ........
   17b30:	 00 00 00 00 00 00 00 00         ........
   17b38:	 00 00 00 00 00 00 00 00         ........
   17b40:	 00 00 00 00 00 00 00 00         ........
   17b48:	 00 00 00 00 00 00 00 00         ........
   17b50:	 00 00 00 00 00 00 00 00         ........
   17b58:	 00 00 00 00 00 00 00 00         ........
   17b60:	 00 00 00 00 00 00 00 00         ........
   17b68:	 00 00 00 00 00 00 00 00         ........
   17b70:	 00 00 00 00 00 00 00 00         ........
   17b78:	 00 00 00 00 00 00 00 00         ........
   17b80:	 00 00 00 00 00 00 00 00         ........
   17b88:	 00 00 00 00 00 00 00 00         ........
   17b90:	 00 00 00 00 00 00 00 00         ........
   17b98:	 00 00 00 00 00 00 00 00         ........
   17ba0:	 00 00 00 00 00 00 00 00         ........
   17ba8:	 00 00 00 00 00 00 00 00         ........
   17bb0:	 00 00 00 00 00 00 00 00         ........
   17bb8:	 00 00 00 00 00 00 00 00         ........
   17bc0:	 00 00 00 00 00 00 00 00         ........
   17bc8:	 00 00 00 00 00 00 00 00         ........
   17bd0:	 00 00 00 00 00 00 00 00         ........
   17bd8:	 00 00 00 00 00 00 00 00         ........
   17be0:	 00 00 00 00 00 00 00 00         ........
   17be8:	 00 00 00 00 00 00 00 00         ........
   17bf0:	 00 00 00 00 00 00 00 00         ........
   17bf8:	 00 00 00 00 00 00 00 00         ........
   17c00:	 00 00 00 00 00 00 00 00         ........
   17c08:	 00 00 00 00 00 00 00 00         ........
   17c10:	 00 00 00 00 00 00 00 00         ........
   17c18:	 00 00 00 00 00 00 00 00         ........
   17c20:	 00 00 00 00 00 00 00 00         ........
   17c28:	 00 00 00 00 00 00 00 00         ........
   17c30:	 00 00 00 00 00 00 00 00         ........
   17c38:	 00 00 00 00 00 00 00 00         ........
   17c40:	 00 00 00 00 00 00 00 00         ........
   17c48:	 00 00 00 00 00 00 00 00         ........
   17c50:	 00 00 00 00 00 00 00 00         ........
   17c58:	 00 00 00 00 00 00 00 00         ........
   17c60:	 00 00 00 00 00 00 00 00         ........
   17c68:	 00 00 00 00 00 00 00 00         ........
   17c70:	 00 00 00 00 00 00 00 00         ........
   17c78:	 00 00 00 00 00 00 00 00         ........
   17c80:	 00 00 00 00 00 00 00 00         ........
   17c88:	 00 00 00 00 00 00 00 00         ........
   17c90:	 00 00 00 00 00 00 00 00         ........
   17c98:	 00 00 00 00 00 00 00 00         ........
   17ca0:	 00 00 00 00 00 00 00 00         ........
   17ca8:	 00 00 00 00 00 00 00 00         ........
   17cb0:	 00 00 00 00 00 00 00 00         ........
   17cb8:	 00 00 00 00 00 00 00 00         ........
   17cc0:	 00 00 00 00 00 00 00 00         ........
   17cc8:	 00 00 00 00 00 00 00 00         ........
   17cd0:	 00 00 00 00 00 00 00 00         ........
   17cd8:	 00 00 00 00 00 00 00 00         ........
   17ce0:	 00 00 00 00 00 00 00 00         ........
   17ce8:	 00 00 00 00 00 00 00 00         ........
   17cf0:	 00 00 00 00 00 00 00 00         ........
   17cf8:	 00 00 00 00 00 00 00 00         ........
   17d00:	 00 00 00 00 00 00 00 00         ........
   17d08:	 00 00 00 00 00 00 00 00         ........
   17d10:	 00 00 00 00 00 00 00 00         ........
   17d18:	 00 00 00 00 00 00 00 00         ........
   17d20:	 00 00 00 00 00 00 00 00         ........
   17d28:	 00 00 00 00 00 00 00 00         ........
   17d30:	 00 00 00 00 00 00 00 00         ........
   17d38:	 00 00 00 00 00 00 00 00         ........
   17d40:	 00 00 00 00 00 00 00 00         ........
   17d48:	 00 00 00 00 00 00 00 00         ........
   17d50:	 00 00 00 00 00 00 00 00         ........
   17d58:	 00 00 00 00 00 00 00 00         ........
   17d60:	 00 00 00 00 00 00 00 00         ........
   17d68:	 00 00 00 00 00 00 00 00         ........
   17d70:	 00 00 00 00 00 00 00 00         ........
   17d78:	 00 00 00 00 00 00 00 00         ........
   17d80:	 00 00 00 00 00 00 00 00         ........
   17d88:	 00 00 00 00 00 00 00 00         ........
   17d90:	 00 00 00 00 00 00 00 00         ........
   17d98:	 00 00 00 00 00 00 00 00         ........
   17da0:	 00 00 00 00 00 00 00 00         ........
   17da8:	 00 00 00 00 00 00 00 00         ........
   17db0:	 00 00 00 00 00 00 00 00         ........
   17db8:	 00 00 00 00 00 00 00 00         ........
   17dc0:	 00 00 00 00 00 00 00 00         ........
   17dc8:	 00 00 00 00 00 00 00 00         ........
   17dd0:	 00 00 00 00 00 00 00 00         ........
   17dd8:	 00 00 00 00 00 00 00 00         ........
   17de0:	 00 00 00 00 00 00 00 00         ........
   17de8:	 00 00 00 00 00 00 00 00         ........
   17df0:	 00 00 00 00 00 00 00 00         ........
   17df8:	 00 00 00 00 00 00 00 00         ........
   17e00:	 00 00 00 00 00 00 00 00         ........
   17e08:	 00 00 00 00 00 00 00 00         ........
   17e10:	 00 00 00 00 00 00 00 00         ........
   17e18:	 00 00 00 00 00 00 00 00         ........
   17e20:	 00 00 00 00 00 00 00 00         ........
   17e28:	 00 00 00 00 00 00 00 00         ........
   17e30:	 00 00 00 00 00 00 00 00         ........
   17e38:	 00 00 00 00 00 00 00 00         ........
   17e40:	 00 00 00 00 00 00 00 00         ........
   17e48:	 00 00 00 00 00 00 00 00         ........
   17e50:	 00 00 00 00 00 00 00 00         ........
   17e58:	 00 00 00 00 00 00 00 00         ........
   17e60:	 00 00 00 00 00 00 00 00         ........
   17e68:	 00 00 00 00 00 00 00 00         ........
   17e70:	 00 00 00 00 00 00 00 00         ........
   17e78:	 00 00 00 00 00 00 00 00         

environmentTickCount:
   17e80:	 00 00 00 00 00 00 00 00         

secondsElapsed:
   17e88:	 00 00 00 00 00 00 00 00         

defaultCursor:
   17e90:	 00 00 00 00 00 00 00 00         ........
   17e98:	 00 00 00 00 00 00 00 00         

defaultAttr:
   17ea0:	 00 00 00 00 00 00 00 00         ........
   17ea8:	 66 2e 0f 1f 84 00 00 00         f.......
   17eb0:	 00 00 66 2e 0f 1f 84 00         ..f.....
   17eb8:	 00 00 00 00 0f 1f 40 00         

buffer:
   17ec0:	 00 00 00 00 00 00 00 00         ........
   17ec8:	 00 00 00 00 00 00 00 00         ........
   17ed0:	 00 00 00 00 00 00 00 00         ........
   17ed8:	 00 00 00 00 00 00 00 00         ........
   17ee0:	 00 00 00 00 00 00 00 00         ........
   17ee8:	 00 00 00 00 00 00 00 00         ........
   17ef0:	 00 00 00 00 00 00 00 00         ........
   17ef8:	 00 00 00 00 00 00 00 00         ........
   17f00:	 00 00 00 00 00 00 00 00         ........
   17f08:	 00 00 00 00 00 00 00 00         ........
   17f10:	 00 00 00 00 00 00 00 00         ........
   17f18:	 00 00 00 00 00 00 00 00         ........
   17f20:	 00 00 00 00 00 00 00 00         ........
   17f28:	 00 00 00 00 00 00 00 00         ........
   17f30:	 00 00 00 00 00 00 00 00         ........
   17f38:	 00 00 00 00 00 00 00 00         ........
   17f40:	 00 00 00 00 00 00 00 00         ........
   17f48:	 00 00 00 00 00 00 00 00         ........
   17f50:	 00 00 00 00 00 00 00 00         ........
   17f58:	 00 00 00 00 00 00 00 00         ........
   17f60:	 00 00 00 00 00 00 00 00         ........
   17f68:	 00 00 00 00 00 00 00 00         ........
   17f70:	 00 00 00 00 00 00 00 00         ........
   17f78:	 00 00 00 00 00 00 00 00         ........
   17f80:	 00 00 00 00 00 00 00 00         ........
   17f88:	 00 00 00 00 00 00 00 00         ........
   17f90:	 00 00 00 00 00 00 00 00         ........
   17f98:	 00 00 00 00 00 00 00 00         ........
   17fa0:	 00 00 00 00 00 00 00 00         ........
   17fa8:	 00 00 00 00 00 00 00 00         ........
   17fb0:	 00 00 00 00 00 00 00 00         ........
   17fb8:	 00 00 00 00 00 00 00 00         

firstPortDevice:
   17fc0:	 00 00 00                        ...

secondPortDevice:
   17fc3:	 00 00 00 66 2e 0f 1f 84         ...f....
   17fcb:	 00 00 00 00 00 66 2e 0f         .....f..
   17fd3:	 1f 84 00 00 00 00 00 66         .......f
   17fdb:	 0f 1f 44 00 00                  ..D

KeyPressed:
   17fe0:	 00 00 00 00 00 00 00 00         ........
   17fe8:	 00 00 00 00 00 00 00 00         ........
   17ff0:	 00 00 00 00 00 00 00 00         ........
   17ff8:	 00 00 00 00 00 00 00 00         ........
   18000:	 00 00 00 00 00 00 00 00         ........
   18008:	 00 00 00 00 00 00 00 00         ........
   18010:	 00 00 00 00 00 00 00 00         ........
   18018:	 00 00 00 00 00 00 00 00         ........
   18020:	 00 00 00 00 00 00 00 00         ........
   18028:	 00 00 00 00 00 00 00 00         ........
   18030:	 00 00 00 00 00 00 00 00         ........
   18038:	 00 00 00 00 00 00 00 00         ........
   18040:	 00 00 00 00 00 00 00 00         ........
   18048:	 00 00 00 00 00 00 00 00         ........
   18050:	 00 00 00 00 00 00 00 00         ........
   18058:	 00 00 00 00 00 00 00 00         ........
   18060:	 00 00 00 00 00 00 00 00         ........
   18068:	 00 00 00 00 00 00 00 00         ........
   18070:	 00 00 00 00 00 00 00 00         ........
   18078:	 00 00 00 00 00 00 00 00         ........
   18080:	 00 00 00 00 00 00 00 00         ........
   18088:	 00 00 00 00 00 00 00 00         ........
   18090:	 00 00 00 00 00 00 00 00         ........
   18098:	 00 00 00 00 00 00 00 00         ........
   180a0:	 00 00 00 00 00 00 00 00         ........
   180a8:	 00 00 00 00 00 00 00 00         ........
   180b0:	 00 00 00 00 00 00 00 00         ........
   180b8:	 00 00 00 00 00 00 00 00         ........
   180c0:	 00 00 00 00 00 00 00 00         ........
   180c8:	 00 00 00 00 00 00 00 00         ........
   180d0:	 00 00 00 00 00 00 00 00         ........
   180d8:	 00 00 00 00 00 00 00 00         
